Archive member included because of file (symbol)

/home/programs/XC32/v2.30/bin/bin/../../lib/gcc/pic32mx/4.8.3/../../../../pic32mx/lib/fpu64/libpic32.a(memcmp.o)
                              build/default/production/_ext/120273967/x509_cert_validate.o (memcmp)
/home/programs/XC32/v2.30/bin/bin/../../lib/gcc/pic32mx/4.8.3/../../../../pic32mx/lib/fpu64/libpic32.a(memcpy.o)
                              build/default/production/_ext/360186330/str.o (memcpy)
/home/programs/XC32/v2.30/bin/bin/../../lib/gcc/pic32mx/4.8.3/../../../../pic32mx/lib/fpu64/libpic32.a(memset.o)
                              build/default/production/_ext/273211656/hmac.o (memset)
/home/programs/XC32/v2.30/bin/bin/../../lib/gcc/pic32mx/4.8.3/../../../../pic32mx/lib/fpu64/libpic32.a(strcmp.o)
                              build/default/production/_ext/476983781/tls13_misc.o (strcmp)
/home/programs/XC32/v2.30/bin/bin/../../lib/gcc/pic32mx/4.8.3/../../../../pic32mx/lib/fpu64/libpic32.a(strcpy.o)
                              build/default/production/_ext/1404394810/oid.o (strcpy)
/home/programs/XC32/v2.30/bin/bin/../../lib/gcc/pic32mx/4.8.3/../../../../pic32mx/lib/fpu64/libpic32.a(strlen.o)
                              build/default/production/_ext/360186330/str.o (strlen)
/home/programs/XC32/v2.30/bin/bin/../../lib/gcc/pic32mx/4.8.3/../../../../pic32mx/lib/fpu64/libpic32.a(default-bootstrap-exception-handler.o)
                              /tmp/ccIr63g9.o (_bootstrap_exception_handler)
/home/programs/XC32/v2.30/bin/bin/../../lib/gcc/pic32mx/4.8.3/../../../../pic32mx/lib/fpu64/libpic32.a(default-on-reset.o)
                              /tmp/ccIr63g9.o (_on_reset)
/home/programs/XC32/v2.30/bin/bin/../../lib/gcc/pic32mx/4.8.3/../../../../pic32mx/lib/fpu64/libpic32.a(default-on-bootstrap.o)
                              /tmp/ccIr63g9.o (_on_bootstrap)
/home/programs/XC32/v2.30/bin/bin/../../lib/gcc/pic32mx/4.8.3/../../../../pic32mx/lib/fpu64/libpic32.a(default-nmi-handler.o)
                              /tmp/ccIr63g9.o (_nmi_handler)
/home/programs/XC32/v2.30/bin/bin/../../lib/gcc/pic32mx/4.8.3/../../../../pic32mx/lib/fpu64/libpic32.a(pic32_data_init.o)
                              /tmp/ccIr63g9.o (__pic32_data_init)
/home/programs/XC32/v2.30/bin/bin/../../lib/gcc/pic32mx/4.8.3/../../../../pic32mx/lib/fpu64/libpic32.a(pic32_init_cache.o)
                              /tmp/ccIr63g9.o (__pic32_init_cache)
/home/programs/XC32/v2.30/bin/bin/../../lib/gcc/pic32mx/4.8.3/../../../../pic32mx/lib/fpu64/libpic32.a(pic32_init_tlb_ebi_sqi.o)
                              /tmp/ccIr63g9.o (__pic32_tlb_init_ebi_sqi)
/home/programs/XC32/v2.30/bin/bin/../../lib/gcc/pic32mx/4.8.3/../../../../pic32mx/lib/fpu64/libpic32.a(general-exception.o)
                              /tmp/ccIr63g9.o (_general_exception_context)
/home/programs/XC32/v2.30/bin/bin/../../lib/gcc/pic32mx/4.8.3/../../../../pic32mx/lib/fpu64/libpic32.a(cache-err-exception.o)
                              /tmp/ccIr63g9.o (_cache_err_exception_context)
/home/programs/XC32/v2.30/bin/bin/../../lib/gcc/pic32mx/4.8.3/../../../../pic32mx/lib/fpu64/libpic32.a(simple-tlb-refill-exception.o)
                              /tmp/ccIr63g9.o (_simple_tlb_refill_exception_context)
/home/programs/XC32/v2.30/bin/bin/../../lib/gcc/pic32mx/4.8.3/../../../../pic32mx/lib/fpu64/libpic32.a(defaultinterrupt.o)
                              /tmp/ccccCLg5.o (_DefaultInterrupt)
/home/programs/XC32/v2.30/bin/bin/../../lib/gcc/pic32mx/4.8.3/../../../../pic32mx/lib/fpu64/libpic32.a(default-general-exception-handler.o)
                              /home/programs/XC32/v2.30/bin/bin/../../lib/gcc/pic32mx/4.8.3/../../../../pic32mx/lib/fpu64/libpic32.a(general-exception.o) (_general_exception_handler)
/home/programs/XC32/v2.30/bin/bin/../../lib/gcc/pic32mx/4.8.3/../../../../pic32mx/lib/fpu64/libpic32.a(default-cache-err-exception-handler.o)
                              /home/programs/XC32/v2.30/bin/bin/../../lib/gcc/pic32mx/4.8.3/../../../../pic32mx/lib/fpu64/libpic32.a(cache-err-exception.o) (_cache_err_exception_handler)
/home/programs/XC32/v2.30/bin/bin/../../lib/gcc/pic32mx/4.8.3/../../../../pic32mx/lib/fpu64/libpic32.a(default-simple-tlb-refill-exception-handler.o)
                              /home/programs/XC32/v2.30/bin/bin/../../lib/gcc/pic32mx/4.8.3/../../../../pic32mx/lib/fpu64/libpic32.a(simple-tlb-refill-exception.o) (_simple_tlb_refill_exception_handler)
/home/programs/XC32/v2.30/bin/bin/../../lib/gcc/pic32mx/4.8.3/../../../../pic32mx/lib/fpu64/libc.a(_iob.o)
                              build/default/production/_ext/476983781/tls_client_fsm.o (_iob)
/home/programs/XC32/v2.30/bin/bin/../../lib/gcc/pic32mx/4.8.3/../../../../pic32mx/lib/fpu64/libc.a(fwrite.o)
                              build/default/production/_ext/273212127/mpi.o (fwrite)
/home/programs/XC32/v2.30/bin/bin/../../lib/gcc/pic32mx/4.8.3/../../../../pic32mx/lib/fpu64/libc.a(atoi.o)
                              build/default/production/_ext/1079612995/http_server_misc.o (atoi)
/home/programs/XC32/v2.30/bin/bin/../../lib/gcc/pic32mx/4.8.3/../../../../pic32mx/lib/fpu64/libc.a(ctype.o)
                              build/default/production/_ext/360186330/str.o (_ctype)
/home/programs/XC32/v2.30/bin/bin/../../lib/gcc/pic32mx/4.8.3/../../../../pic32mx/lib/fpu64/libc.a(ctypef.o)
                              build/default/production/_ext/360186330/path.o (tolower)
/home/programs/XC32/v2.30/bin/bin/../../lib/gcc/pic32mx/4.8.3/../../../../pic32mx/lib/fpu64/libc.a(malloc.o)
                              build/default/production/_ext/979089083/heap_3.o (malloc)
/home/programs/XC32/v2.30/bin/bin/../../lib/gcc/pic32mx/4.8.3/../../../../pic32mx/lib/fpu64/libc.a(memmove.o)
                              build/default/production/_ext/360186330/path.o (memmove)
/home/programs/XC32/v2.30/bin/bin/../../lib/gcc/pic32mx/4.8.3/../../../../pic32mx/lib/fpu64/libc.a(puts.o)
                              build/default/production/_ext/273212127/mpi.o (fputs)
/home/programs/XC32/v2.30/bin/bin/../../lib/gcc/pic32mx/4.8.3/../../../../pic32mx/lib/fpu64/libc.a(strchr.o)
                              build/default/production/_ext/1079766828/ip.o (strchr)
/home/programs/XC32/v2.30/bin/bin/../../lib/gcc/pic32mx/4.8.3/../../../../pic32mx/lib/fpu64/libc.a(strcasecmp.o)
                              build/default/production/_ext/1079766828/socket.o (strcasecmp)
/home/programs/XC32/v2.30/bin/bin/../../lib/gcc/pic32mx/4.8.3/../../../../pic32mx/lib/fpu64/libc.a(strncasecmp.o)
                              build/default/production/_ext/360186330/resource_manager.o (strncasecmp)
/home/programs/XC32/v2.30/bin/bin/../../lib/gcc/pic32mx/4.8.3/../../../../pic32mx/lib/fpu64/libc.a(strncat.o)
                              build/default/production/_ext/1360937237/main.o (strncat)
/home/programs/XC32/v2.30/bin/bin/../../lib/gcc/pic32mx/4.8.3/../../../../pic32mx/lib/fpu64/libc.a(strncmp.o)
                              build/default/production/_ext/360186330/path.o (strncmp)
/home/programs/XC32/v2.30/bin/bin/../../lib/gcc/pic32mx/4.8.3/../../../../pic32mx/lib/fpu64/libc.a(strncpy.o)
                              build/default/production/_ext/360186330/str.o (strncpy)
/home/programs/XC32/v2.30/bin/bin/../../lib/gcc/pic32mx/4.8.3/../../../../pic32mx/lib/fpu64/libc.a(strrchr.o)
                              build/default/production/_ext/1079612995/ssi.o (strrchr)
/home/programs/XC32/v2.30/bin/bin/../../lib/gcc/pic32mx/4.8.3/../../../../pic32mx/lib/fpu64/libc.a(strtok.o)
                              build/default/production/_ext/1360937237/main.o (strtok)
/home/programs/XC32/v2.30/bin/bin/../../lib/gcc/pic32mx/4.8.3/../../../../pic32mx/lib/fpu64/libc.a(strtol.o)
                              build/default/production/_ext/1079612995/http_server_misc.o (strtoul)
/home/programs/XC32/v2.30/bin/bin/../../lib/gcc/pic32mx/4.8.3/../../../../pic32mx/lib/fpu64/libc.a(fprintf_cdnopsuxX.eo)
                              build/default/production/_ext/1079766828/net.o (_fprintf_cdnopsuxX)
/home/programs/XC32/v2.30/bin/bin/../../lib/gcc/pic32mx/4.8.3/../../../../pic32mx/lib/fpu64/libc.a(fprintf_cdnopuxX.eo)
                              build/default/production/_ext/273212127/mpi.o (_fprintf_cdnopuxX)
/home/programs/XC32/v2.30/bin/bin/../../lib/gcc/pic32mx/4.8.3/../../../../pic32mx/lib/fpu64/libc.a(fprintf_s.eo)
                              build/default/production/_ext/1079744218/dhcp_client.o (_fprintf_s)
/home/programs/XC32/v2.30/bin/bin/../../lib/gcc/pic32mx/4.8.3/../../../../pic32mx/lib/fpu64/libc.a(sprintf_s.eo)
                              (_sprintf_0)
/home/programs/XC32/v2.30/bin/bin/../../lib/gcc/pic32mx/4.8.3/../../../../pic32mx/lib/fpu64/libc.a(fflush.o)
                              /home/programs/XC32/v2.30/bin/bin/../../lib/gcc/pic32mx/4.8.3/../../../../pic32mx/lib/fpu64/libc.a(fwrite.o) (fflush)
/home/programs/XC32/v2.30/bin/bin/../../lib/gcc/pic32mx/4.8.3/../../../../pic32mx/lib/fpu64/libc.a(fseek.o)
                              /home/programs/XC32/v2.30/bin/bin/../../lib/gcc/pic32mx/4.8.3/../../../../pic32mx/lib/fpu64/libc.a(fwrite.o) (fseek)
/home/programs/XC32/v2.30/bin/bin/../../lib/gcc/pic32mx/4.8.3/../../../../pic32mx/lib/fpu64/libc.a(errno.o)
                              /home/programs/XC32/v2.30/bin/bin/../../lib/gcc/pic32mx/4.8.3/../../../../pic32mx/lib/fpu64/libc.a(strtol.o) (errno)
/home/programs/XC32/v2.30/bin/bin/../../lib/gcc/pic32mx/4.8.3/../../../../pic32mx/lib/fpu64/libc.a(strcspn.o)
                              /home/programs/XC32/v2.30/bin/bin/../../lib/gcc/pic32mx/4.8.3/../../../../pic32mx/lib/fpu64/libc.a(strtok.o) (strcspn)
/home/programs/XC32/v2.30/bin/bin/../../lib/gcc/pic32mx/4.8.3/../../../../pic32mx/lib/fpu64/libc.a(strspn.o)
                              /home/programs/XC32/v2.30/bin/bin/../../lib/gcc/pic32mx/4.8.3/../../../../pic32mx/lib/fpu64/libc.a(strtok.o) (strspn)
/home/programs/XC32/v2.30/bin/bin/../../lib/gcc/pic32mx/4.8.3/../../../../pic32mx/lib/fpu64/libc.a(doprnt_cdnopsuxX.eo)
                              /home/programs/XC32/v2.30/bin/bin/../../lib/gcc/pic32mx/4.8.3/../../../../pic32mx/lib/fpu64/libc.a(fprintf_cdnopsuxX.eo) (_vfprintf_cdnopsuxX)
/home/programs/XC32/v2.30/bin/bin/../../lib/gcc/pic32mx/4.8.3/../../../../pic32mx/lib/fpu64/libc.a(doprnt_cdnopuxX.eo)
                              /home/programs/XC32/v2.30/bin/bin/../../lib/gcc/pic32mx/4.8.3/../../../../pic32mx/lib/fpu64/libc.a(fprintf_cdnopuxX.eo) (_vfprintf_cdnopuxX)
/home/programs/XC32/v2.30/bin/bin/../../lib/gcc/pic32mx/4.8.3/../../../../pic32mx/lib/fpu64/libc.a(doprnt_s.eo)
                              /home/programs/XC32/v2.30/bin/bin/../../lib/gcc/pic32mx/4.8.3/../../../../pic32mx/lib/fpu64/libc.a(fprintf_s.eo) (_vfprintf_s)
/home/programs/XC32/v2.30/bin/bin/../../lib/gcc/pic32mx/4.8.3/fpu64/libgcc.a(_udivdi3.o)
                              /home/programs/XC32/v2.30/bin/bin/../../lib/gcc/pic32mx/4.8.3/../../../../pic32mx/lib/fpu64/libc.a(doprnt_cdnopsuxX.eo) (__udivdi3)
/home/programs/XC32/v2.30/bin/bin/../../lib/gcc/pic32mx/4.8.3/fpu64/libgcc.a(_umoddi3.o)
                              /home/programs/XC32/v2.30/bin/bin/../../lib/gcc/pic32mx/4.8.3/../../../../pic32mx/lib/fpu64/libc.a(doprnt_cdnopsuxX.eo) (__umoddi3)
/home/programs/XC32/v2.30/bin/bin/../../lib/gcc/pic32mx/4.8.3/../../../../pic32mx/lib/fpu64/libpic32.a(sbrk.o)
                              /home/programs/XC32/v2.30/bin/bin/../../lib/gcc/pic32mx/4.8.3/../../../../pic32mx/lib/fpu64/libc.a(malloc.o) (sbrk)
/home/programs/XC32/v2.30/bin/bin/../../lib/gcc/pic32mx/4.8.3/../../../../pic32mx/lib/fpu64/libpic32.a(write.o)
                              /home/programs/XC32/v2.30/bin/bin/../../lib/gcc/pic32mx/4.8.3/../../../../pic32mx/lib/fpu64/libc.a(fflush.o) (write)
/home/programs/XC32/v2.30/bin/bin/../../lib/gcc/pic32mx/4.8.3/../../../../pic32mx/lib/fpu64/libpic32.a(lseek.o)
                              /home/programs/XC32/v2.30/bin/bin/../../lib/gcc/pic32mx/4.8.3/../../../../pic32mx/lib/fpu64/libc.a(fseek.o) (lseek)
/home/programs/XC32/v2.30/bin/bin/../../lib/gcc/pic32mx/4.8.3/../../../../pic32mx/lib/fpu64/libpic32.a(_mon_putc.o)
                              /home/programs/XC32/v2.30/bin/bin/../../lib/gcc/pic32mx/4.8.3/../../../../pic32mx/lib/fpu64/libpic32.a(write.o) (_mon_putc)
/home/programs/XC32/v2.30/bin/bin/../../lib/gcc/pic32mx/4.8.3/../../../../pic32mx/lib/fpu64/libpic32.a(xc32_uart.o)
                              /home/programs/XC32/v2.30/bin/bin/../../lib/gcc/pic32mx/4.8.3/../../../../pic32mx/lib/fpu64/libpic32.a(_mon_putc.o) (__XC_UART)

Allocating common symbols
Common symbol       size              file

currentDevice       0x1               build/default/production/_ext/1360937237/main.o
mldTickCounter      0x4               build/default/production/_ext/1079587044/mld.o
dhcpServerTickCounter
                    0x4               build/default/production/_ext/1079744218/dhcp_server.o
dhcpClientContext1  0x78              build/default/production/_ext/1360937237/main.o
netTaskHandle       0x4               build/default/production/_ext/1079766828/net.o
udpCallbackTable    0xa0              build/default/production/_ext/1079766828/udp.o
nicTickCounter      0x4               build/default/production/_ext/1079766828/nic.o
ethMac              0x6               build/default/production/_ext/1360937237/main.o
ndpRouterAdvContext
                    0x5c              build/default/production/_ext/1360937237/main.o
slaacContext1       0x18              build/default/production/_ext/1360937237/main.o
slaacSettings       0x10              build/default/production/_ext/1360937237/main.o
mqttClientContext   0x58c             build/default/production/_ext/1360937237/main.o
devList             0x180             build/default/production/_ext/1360937237/main.o
netEvent            0x4               build/default/production/_ext/1079766828/net.o
arpTickCounter      0x4               build/default/production/_ext/1079587046/arp.o
socketTable         0x16f8            build/default/production/_ext/1079766828/socket.o
httpServerContext   0x70              build/default/production/_ext/1360937237/main.o
seed                0x20              build/default/production/_ext/1360937237/main.o
dhcpServerContext   0x170             build/default/production/_ext/1360937237/main.o
netMutex            0x4               build/default/production/_ext/1079766828/net.o
netInterface        0x24a8            build/default/production/_ext/1079766828/net.o
httpInitialized     0x1               build/default/production/_ext/1360937237/main.o
webSockRandCallback
                    0x4               build/default/production/_ext/18976819/web_socket.o
ndpRouterAdvPrefixInfo
                    0x24              build/default/production/_ext/1360937237/main.o
dhcpClientTickCounter
                    0x4               build/default/production/_ext/1079744218/dhcp_client.o
tcpTickCounter      0x4               build/default/production/_ext/1079766828/tcp.o
webSocketTable      0x2780            build/default/production/_ext/18976819/web_socket.o
gatewaytxNum        0x20              build/default/production/_ext/1360937237/main.o
gatewayNodes        0x20              build/default/production/_ext/1360937237/main.o
gatewayRequest      0x20              build/default/production/_ext/1360937237/main.o
gatewayChannel      0x10              build/default/production/_ext/1360937237/main.o
dhcpServerSettings  0x28              build/default/production/_ext/1360937237/main.o
dhcpClientContext0  0x78              build/default/production/_ext/1360937237/main.o
udpCallbackMutex    0x4               build/default/production/_ext/1079766828/udp.o
ethMacString        0x14              build/default/production/_ext/1360937237/main.o
dhcpClientSettings  0x3c              build/default/production/_ext/1360937237/main.o
dnsCache            0x3e0             build/default/production/_ext/242264404/dns_cache.o
nodeFailed          0x1               build/default/production/_ext/1360937237/main.o
slaacContext0       0x18              build/default/production/_ext/1360937237/main.o
dnsTickCounter      0x4               build/default/production/_ext/242264404/dns_cache.o
neverReturn         0x1               build/default/production/_ext/1360937237/main.o
ipv4FragTickCounter
                    0x4               build/default/production/_ext/1079587046/ipv4_frag.o
gatewayFinished     0x1               build/default/production/_ext/1360937237/main.o
initConfig          0x1               build/default/production/_ext/1360937237/main.o
apList              0x840             build/default/production/_ext/1157531022/wilc1000_driver.o
ndpRouterAdvSettings
                    0x4c              build/default/production/_ext/1360937237/main.o
startWindow         0x1               build/default/production/_ext/1360937237/main.o
httpServerSettings  0x60              build/default/production/_ext/1360937237/main.o
ndpTickCounter      0x4               build/default/production/_ext/1079587044/ndp.o
ipv6FragTickCounter
                    0x4               build/default/production/_ext/1079587044/ipv6_frag.o
failedDevice        0x1               build/default/production/_ext/1360937237/main.o
strHifInitParam     0x8               build/default/production/_ext/1679150795/m2m_hif.o
gatewayID           0x1               build/default/production/_ext/1360937237/main.o
guCtrlStruct        0x6c              build/default/production/_ext/1679150795/m2m_wifi.o
currentAP           0x4               build/default/production/_ext/1157531022/wilc1000_driver.o
yarrowContext       0x330             build/default/production/_ext/1360937237/main.o
gatewayFinish       0x20              build/default/production/_ext/1360937237/main.o
gatewayTimer        0x20              build/default/production/_ext/1360937237/main.o
httpConnections     0x1ac0            build/default/production/_ext/1360937237/main.o
ndpRouterAdvTickCounter
                    0x4               build/default/production/_ext/1079587044/ndp_router_adv.o

Microchip PIC32 Memory-Usage Report

kseg0 Program-Memory Usage
section                    address  length [bytes]      (dec)  Description
-------                 ----------  -------------------------  -----------
.simple_tlb_refill_excp 0x9d000000           0x10          16   
.rodata                 0x9d000010           0xf0         240  Read-only const 
.cache_err_excpt        0x9d000100           0x10          16   
.rodata                 0x9d000110           0x70         112  Read-only const 
.app_excpt              0x9d000180           0x10          16  General-Exception 
.text.strncmp           0x9d000190           0x70         112   
.vectors                0x9d000200          0x7f4        2036   
.rodata                 0x9d0009f4        0x31ac0      203456  Read-only const 
.text                   0x9d0324b4         0x2bf0       11248  App's exec code 
.rodata                 0x9d0350a4         0x2808       10248  Read-only const 
.text                   0x9d0378ac         0x4520       17696  App's exec code 
.text                   0x9d03bdcc         0x4138       16696  App's exec code 
.text                   0x9d03ff04         0x3be8       15336  App's exec code 
.text                   0x9d043aec         0x3994       14740  App's exec code 
.text                   0x9d047480         0x37b8       14264  App's exec code 
.text                   0x9d04ac38         0x2fa0       12192  App's exec code 
.text                   0x9d04dbd8         0x29c0       10688  App's exec code 
.text                   0x9d050598         0x2970       10608  App's exec code 
.text                   0x9d052f08         0x28c8       10440  App's exec code 
.text                   0x9d0557d0         0x262c        9772  App's exec code 
.text                   0x9d057dfc         0x2444        9284  App's exec code 
.text                   0x9d05a240         0x2354        9044  App's exec code 
.text                   0x9d05c594         0x2260        8800  App's exec code 
.text                   0x9d05e7f4         0x20ec        8428  App's exec code 
.text                   0x9d0608e0         0x1ef0        7920  App's exec code 
.text                   0x9d0627d0         0x1d74        7540  App's exec code 
.text                   0x9d064544         0x1cb8        7352  App's exec code 
.text                   0x9d0661fc         0x1be4        7140  App's exec code 
.text                   0x9d067de0         0x1b8c        7052  App's exec code 
.text                   0x9d06996c         0x1b4c        6988  App's exec code 
.text                   0x9d06b4b8         0x1a38        6712  App's exec code 
.text                   0x9d06cef0          0xcc4        3268  App's exec code 
.text._vfprintf_cdnopsu 0x9d06dbb4          0xc8c        3212   
.text                   0x9d06e840         0x18cc        6348  App's exec code 
.text                   0x9d07010c         0x17f8        6136  App's exec code 
.text                   0x9d071904         0x16c4        5828  App's exec code 
.text                   0x9d072fc8         0x15e8        5608  App's exec code 
.text                   0x9d0745b0         0x1544        5444  App's exec code 
.text                   0x9d075af4          0xa9c        2716  App's exec code 
.rodata                 0x9d076590         0x1454        5204  Read-only const 
.text                   0x9d0779e4         0x13e4        5092  App's exec code 
.text                   0x9d078dc8         0x1374        4980  App's exec code 
.text                   0x9d07a13c         0x128c        4748  App's exec code 
.text                   0x9d07b3c8         0x11e8        4584  App's exec code 
.text                   0x9d07c5b0         0x1184        4484  App's exec code 
.text                   0x9d07d734         0x1144        4420  App's exec code 
.text                   0x9d07e878         0x10dc        4316  App's exec code 
.text                   0x9d07f954         0x1048        4168  App's exec code 
.text                   0x9d08099c          0x7dc        2012  App's exec code 
.rodata                 0x9d081178          0x7b4        1972  Read-only const 
.text                   0x9d08192c          0xef8        3832  App's exec code 
.text                   0x9d082824          0xeb0        3760  App's exec code 
.text                   0x9d0836d4          0xe88        3720  App's exec code 
.text                   0x9d08455c          0xe1c        3612  App's exec code 
.dinit                  0x9d085378          0x6a0        1696   
.rodata                 0x9d085a18          0x688        1672  Read-only const 
.text                   0x9d0860a0          0xcbc        3260  App's exec code 
.text                   0x9d086d5c          0xc68        3176  App's exec code 
.text                   0x9d0879c4          0xc14        3092  App's exec code 
.text                   0x9d0885d8          0xbcc        3020  App's exec code 
.text                   0x9d0891a4          0xba4        2980  App's exec code 
.text                   0x9d089d48          0xb64        2916  App's exec code 
.text                   0x9d08a8ac          0x590        1424  App's exec code 
.rodata                 0x9d08ae3c          0x564        1380  Read-only const 
.text                   0x9d08b3a0          0xa38        2616  App's exec code 
.text                   0x9d08bdd8          0x988        2440  App's exec code 
.text                   0x9d08c760          0x93c        2364  App's exec code 
.rodata                 0x9d08d09c          0x480        1152  Read-only const 
.text                   0x9d08d51c          0x8dc        2268  App's exec code 
.text                   0x9d08ddf8          0x8bc        2236  App's exec code 
.text                   0x9d08e6b4          0x88c        2188  App's exec code 
.text                   0x9d08ef40          0x434        1076  App's exec code 
.rodata                 0x9d08f374          0x42c        1068  Read-only const 
.text                   0x9d08f7a0          0x7fc        2044  App's exec code 
.rodata                 0x9d08ff9c          0x3fc        1020  Read-only const 
.text                   0x9d090398          0x7c4        1988  App's exec code 
.text                   0x9d090b5c          0x798        1944  App's exec code 
.text                   0x9d0912f4          0x768        1896  App's exec code 
.rodata                 0x9d091a5c          0x38c         908  Read-only const 
.text                   0x9d091de8          0x6e8        1768  App's exec code 
.rodata                 0x9d0924d0          0x348         840  Read-only const 
.text                   0x9d092818          0x338         824  App's exec code 
.rodata                 0x9d092b50          0x32c         812  Read-only const 
.text                   0x9d092e7c          0x61c        1564  App's exec code 
.text                   0x9d093498          0x5ec        1516  App's exec code 
.text                   0x9d093a84          0x570        1392  App's exec code 
.text.malloc            0x9d093ff4          0x28c         652   
.text                   0x9d094280          0x4c4        1220  App's exec code 
.text                   0x9d094744          0x460        1120  App's exec code 
.text                   0x9d094ba4          0x454        1108  App's exec code 
.text                   0x9d094ff8          0x214         532  App's exec code 
.text.fwrite            0x9d09520c          0x214         532   
.text                   0x9d095420          0x200         512  App's exec code 
.rodata                 0x9d095620          0x1e4         484  Read-only const 
.text                   0x9d095804          0x1d4         468  App's exec code 
.text.strtoul           0x9d0959d8          0x1d4         468   
.text                   0x9d095bac          0x1d0         464  App's exec code 
.rodata                 0x9d095d7c          0x390         912  Read-only const 
.text.fseek             0x9d09610c          0x1ac         428   
.text                   0x9d0962b8          0x348         840  App's exec code 
.text._sbrk_init        0x9d096600          0x194         404   
.rodata                 0x9d096794          0x188         392  Read-only const 
.text                   0x9d09691c          0x2ec         748  App's exec code 
.text                   0x9d096c08          0x168         360  App's exec code 
.rodata                 0x9d096d70          0x154         340  Read-only const 
.text                   0x9d096ec4          0x150         336  App's exec code 
.rodata                 0x9d097014          0x288         648  Read-only const 
.rodata                 0x9d09729c          0x12c         300  Read-only const 
.text                   0x9d0973c8          0x22c         556  App's exec code 
.rodata                 0x9d0975f4          0x20c         524  Read-only const 
.rodata                 0x9d097800           0xf4         244  Read-only const 
.rodata                 0x9d0978f4           0xe8         232  Read-only const 
.text.general_exception 0x9d0979dc           0xdc         220   
.text._cache_err_except 0x9d097ab8           0xd8         216   
.text.simple_tlb_refill 0x9d097b90           0xd8         216   
.rodata                 0x9d097c68           0xd4         212  Read-only const 
.text._mon_putc         0x9d097d3c           0xd4         212   
.text.strtok            0x9d097e10           0xd0         208   
.rodata                 0x9d097ee0           0xd0         208  Read-only const 
.text                   0x9d097fb0           0xcc         204  App's exec code 
.text._sbrk             0x9d09807c           0xc8         200   
.rodata                 0x9d098144          0x188         392  Read-only const 
.rodata                 0x9d0982cc           0xc0         192  Read-only const 
.tlb.__pic32_tlb_init_e 0x9d09838c           0xbc         188   
.rodata                 0x9d098448           0xb8         184  Read-only const 
.text                   0x9d098500           0xa8         168  App's exec code 
.text.atoi              0x9d0985a8           0xa8         168   
.text                   0x9d098650           0xa4         164  App's exec code 
.text.fflush            0x9d0986f4           0xa0         160   
.text.write             0x9d098794           0x9c         156   
.text                   0x9d098830           0x98         152  App's exec code 
.rodata                 0x9d0988c8          0x10c         268  Read-only const 
.text                   0x9d0989d4          0x108         264  App's exec code 
.rodata                 0x9d098adc          0x100         256  Read-only const 
.text.strncasecmp       0x9d098bdc           0x80         128   
.text                   0x9d098c5c           0x74         116  App's exec code 
.text.strncpy           0x9d098cd0           0x74         116   
.text.ftell             0x9d098d44           0x74         116   
.text.strcspn           0x9d098db8           0x70         112   
.text.strspn            0x9d098e28           0x70         112   
.text                   0x9d098e98           0x6c         108  App's exec code 
.text.strncat           0x9d098f04           0x6c         108   
.rodata                 0x9d098f70           0xd0         208  Read-only const 
.text.strcasecmp        0x9d099040           0x68         104   
.text.strrchr           0x9d0990a8           0x68         104   
.rodata                 0x9d099110           0x64         100  Read-only const 
.text.memmove           0x9d099174           0x64         100   
.rodata                 0x9d0991d8           0x60          96  Read-only const 
.text.fputs             0x9d099238           0x60          96   
.rodata                 0x9d099298           0xb0         176  Read-only const 
.rodata                 0x9d099348           0x54          84  Read-only const 
.text.main_entry        0x9d09939c           0x54          84   
.text.sbrk              0x9d0993f0           0x50          80   
.rodata                 0x9d099440           0x90         144  Read-only const 
.text._bootstrap_except 0x9d0994d0           0x48          72   
.text._general_exceptio 0x9d099518           0x48          72   
.text._cache_err_except 0x9d099560           0x48          72   
.text._simple_tlb_refil 0x9d0995a8           0x48          72   
.text                   0x9d0995f0           0x44          68  App's exec code 
.rodata                 0x9d099634           0x80         128  Read-only const 
.rodata                 0x9d0996b4           0x74         116  Read-only const 
.rodata                 0x9d099728           0x64         100  Read-only const 
.rodata                 0x9d09978c           0x30          48  Read-only const 
.text.free              0x9d0997bc           0x30          48   
.text.strchr            0x9d0997ec           0x2c          44   
.text._fprintf_cdnopsux 0x9d099818           0x2c          44   
.text._stub_sbd_memlayo 0x9d099844           0x2c          44   
.rodata                 0x9d099870           0x4c          76  Read-only const 
.rodata                 0x9d0998bc           0x24          36  Read-only const 
.text.tolower           0x9d0998e0           0x24          36   
.text.toupper           0x9d099904           0x24          36   
.rodata                 0x9d099928           0x3c          60  Read-only const 
.rodata                 0x9d099964           0x34          52  Read-only const 
.text                   0x9d099998           0x18          24  App's exec code 
.rodata                 0x9d0999b0           0x20          32  Read-only const 
.rodata                 0x9d0999d0           0x18          24  Read-only const 
.rodata                 0x9d0999e8           0x18          24  Read-only const 
.rodata                 0x9d099a00           0x18          24  Read-only const 
.rodata                 0x9d099a18           0x10          16  Read-only const 
.rodata                 0x9d099a28           0x10          16  Read-only const 
.rodata                 0x9d099a38           0x10          16  Read-only const 
.rodata                 0x9d099a48            0x8           8  Read-only const 
.text._on_reset         0x9d099a50            0x8           8   
.text._on_bootstrap     0x9d099a58            0x8           8   
.text.lseek             0x9d099a60            0x8           8   
.rodata                 0x9d099a68            0x8           8  Read-only const 
.rodata                 0x9d099a70            0x4           4  Read-only const 
      Total kseg0_program_mem used  :     0x99a74      629364  30.0% of 0x200000

kseg0 Boot-Memory Usage
section                    address  length [bytes]      (dec)  Description
-------                 ----------  -------------------------  -----------
         Total kseg0_boot_mem used  :           0           0  

kseg1 Boot-Memory Usage
section                    address  length [bytes]      (dec)  Description
-------                 ----------  -------------------------  -----------
.reset                  0xbfc00000          0x1b4         436  Reset handler 
.bev_excpt              0xbfc00380           0x10          16  BEV-Exception 
         Total kseg1_boot_mem used  :       0x1c4         452  39.2% of 0x480
        --------------------------------------------------------------------------
         Total Program Memory used  :     0x99c38      629816  30.0% of 0x200480
        --------------------------------------------------------------------------


kseg0 Data-Memory Usage
section                    address  length [bytes]      (dec)  Description
-------                 ----------  -------------------------  -----------
.sdata                  0x80000000           0x30          48  Small init data 
.sbss                   0x80000030          0x130         304  Small uninit data 
.bss                    0x80000160         0x928c       37516  Uninitialized data 
.bss                    0x800093ec            0x4           4  Uninitialized data 
.bss                    0x8000cab0         0x12c0        4800  Uninitialized data 
.bss                    0x8000dd70          0x6c8        1736  Uninitialized data 
.data                   0x8000e438           0xa4         164  Initialized data 
.bss                    0x8000e4dc           0xc8         200  Uninitialized data 
.bss                    0x8000e5a4           0x84         132  Uninitialized data 
.bss                    0x8000e628           0x54          84  Uninitialized data 
.bss                    0x8000e67c           0x4c          76  Uninitialized data 
.bss                    0x8000e6c8           0x30          48  Uninitialized data 
.bss.errno              0x8000e6f8            0x4           4   
.COHERENTBSS$           0x800093f0         0x36b4       14004   
         Total kseg0_data_mem used  :      0xe6f0       59120  11.3% of 0x80000
        --------------------------------------------------------------------------
            Total Data Memory used  :      0xe6f0       59120  11.3% of 0x80000
        --------------------------------------------------------------------------


Dynamic Data-Memory Reservation
section                    address  length [bytes]      (dec)  Description
-------                 ----------  -------------------------  -----------
heap                    0x8000e700        0x40000      262144  Reserved for heap 
stack                   0x8004e718        0x318d8      202968  Reserved for stack 

        --------------------------------------------------------------------------

Discarded input sections

 .text          0x00000000        0x0 /home/programs/XC32/v2.30/bin/bin/../../lib/gcc/pic32mx/4.8.3/../../../../pic32mx/lib/fpu64/debug-exception-return.o
 .data          0x00000000        0x0 /home/programs/XC32/v2.30/bin/bin/../../lib/gcc/pic32mx/4.8.3/../../../../pic32mx/lib/fpu64/debug-exception-return.o
 .bss           0x00000000        0x0 /home/programs/XC32/v2.30/bin/bin/../../lib/gcc/pic32mx/4.8.3/../../../../pic32mx/lib/fpu64/debug-exception-return.o
 .data          0x00000000        0x0 build/default/production/_ext/360186330/cpu_endian.o
 .bss           0x00000000        0x0 build/default/production/_ext/360186330/cpu_endian.o
 .reginfo       0x00000000       0x18 build/default/production/_ext/360186330/cpu_endian.o
 .data          0x00000000        0x0 build/default/production/_ext/360186330/os_port_freertos.o
 .bss           0x00000000        0x0 build/default/production/_ext/360186330/os_port_freertos.o
 .reginfo       0x00000000       0x18 build/default/production/_ext/360186330/os_port_freertos.o
 .data          0x00000000        0x0 build/default/production/_ext/360186330/date_time.o
 .reginfo       0x00000000       0x18 build/default/production/_ext/360186330/date_time.o
 .data          0x00000000        0x0 build/default/production/_ext/360186330/str.o
 .bss           0x00000000        0x0 build/default/production/_ext/360186330/str.o
 .reginfo       0x00000000       0x18 build/default/production/_ext/360186330/str.o
 .data          0x00000000        0x0 build/default/production/_ext/360186330/path.o
 .bss           0x00000000        0x0 build/default/production/_ext/360186330/path.o
 .reginfo       0x00000000       0x18 build/default/production/_ext/360186330/path.o
 .data          0x00000000        0x0 build/default/production/_ext/360186330/resource_manager.o
 .bss           0x00000000        0x0 build/default/production/_ext/360186330/resource_manager.o
 .reginfo       0x00000000       0x18 build/default/production/_ext/360186330/resource_manager.o
 .data          0x00000000        0x0 build/default/production/_ext/120521611/md5.o
 .bss           0x00000000        0x0 build/default/production/_ext/120521611/md5.o
 .reginfo       0x00000000       0x18 build/default/production/_ext/120521611/md5.o
 .data          0x00000000        0x0 build/default/production/_ext/120521611/sha1.o
 .bss           0x00000000        0x0 build/default/production/_ext/120521611/sha1.o
 .reginfo       0x00000000       0x18 build/default/production/_ext/120521611/sha1.o
 .text          0x00000000      0x1c4 build/default/production/_ext/120521611/sha224.o
 .data          0x00000000        0x0 build/default/production/_ext/120521611/sha224.o
 .bss           0x00000000        0x0 build/default/production/_ext/120521611/sha224.o
 .reginfo       0x00000000       0x18 build/default/production/_ext/120521611/sha224.o
 .rodata        0x00000000       0x48 build/default/production/_ext/120521611/sha224.o
 .data          0x00000000        0x0 build/default/production/_ext/120521611/sha256.o
 .bss           0x00000000        0x0 build/default/production/_ext/120521611/sha256.o
 .reginfo       0x00000000       0x18 build/default/production/_ext/120521611/sha256.o
 .data          0x00000000        0x0 build/default/production/_ext/120521611/sha384.o
 .bss           0x00000000        0x0 build/default/production/_ext/120521611/sha384.o
 .reginfo       0x00000000       0x18 build/default/production/_ext/120521611/sha384.o
 .data          0x00000000        0x0 build/default/production/_ext/120521611/sha512.o
 .bss           0x00000000        0x0 build/default/production/_ext/120521611/sha512.o
 .reginfo       0x00000000       0x18 build/default/production/_ext/120521611/sha512.o
 .data          0x00000000        0x0 build/default/production/_ext/273211656/hmac.o
 .bss           0x00000000        0x0 build/default/production/_ext/273211656/hmac.o
 .reginfo       0x00000000       0x18 build/default/production/_ext/273211656/hmac.o
 .rodata        0x00000000       0x70 build/default/production/_ext/273211656/hmac.o
 .text          0x00000000      0x114 build/default/production/_ext/7005106/rc4.o
 .data          0x00000000        0x0 build/default/production/_ext/7005106/rc4.o
 .bss           0x00000000        0x0 build/default/production/_ext/7005106/rc4.o
 .reginfo       0x00000000       0x18 build/default/production/_ext/7005106/rc4.o
 .rodata        0x00000000       0x28 build/default/production/_ext/7005106/rc4.o
 .text          0x00000000      0x5a8 build/default/production/_ext/7005106/idea.o
 .data          0x00000000        0x0 build/default/production/_ext/7005106/idea.o
 .bss           0x00000000        0x0 build/default/production/_ext/7005106/idea.o
 .reginfo       0x00000000       0x18 build/default/production/_ext/7005106/idea.o
 .rodata        0x00000000       0x2c build/default/production/_ext/7005106/idea.o
 .text          0x00000000      0xa1c build/default/production/_ext/7005106/des.o
 .data          0x00000000        0x0 build/default/production/_ext/7005106/des.o
 .bss           0x00000000        0x0 build/default/production/_ext/7005106/des.o
 .reginfo       0x00000000       0x18 build/default/production/_ext/7005106/des.o
 .rodata        0x00000000      0x828 build/default/production/_ext/7005106/des.o
 .text          0x00000000      0x190 build/default/production/_ext/7005106/des3.o
 .data          0x00000000        0x0 build/default/production/_ext/7005106/des3.o
 .bss           0x00000000        0x0 build/default/production/_ext/7005106/des3.o
 .reginfo       0x00000000       0x18 build/default/production/_ext/7005106/des3.o
 .rodata        0x00000000       0x2c build/default/production/_ext/7005106/des3.o
 .data          0x00000000        0x0 build/default/production/_ext/7005106/aes.o
 .bss           0x00000000        0x0 build/default/production/_ext/7005106/aes.o
 .reginfo       0x00000000       0x18 build/default/production/_ext/7005106/aes.o
 .text          0x00000000      0xa74 build/default/production/_ext/7005106/camellia.o
 .data          0x00000000        0x0 build/default/production/_ext/7005106/camellia.o
 .bss           0x00000000        0x0 build/default/production/_ext/7005106/camellia.o
 .reginfo       0x00000000       0x18 build/default/production/_ext/7005106/camellia.o
 .rodata        0x00000000      0x550 build/default/production/_ext/7005106/camellia.o
 .text          0x00000000      0x650 build/default/production/_ext/7005106/seed.o
 .data          0x00000000        0x0 build/default/production/_ext/7005106/seed.o
 .bss           0x00000000        0x0 build/default/production/_ext/7005106/seed.o
 .reginfo       0x00000000       0x18 build/default/production/_ext/7005106/seed.o
 .rodata        0x00000000     0x106c build/default/production/_ext/7005106/seed.o
 .text          0x00000000     0x1dd0 build/default/production/_ext/7005106/aria.o
 .data          0x00000000        0x0 build/default/production/_ext/7005106/aria.o
 .bss           0x00000000        0x0 build/default/production/_ext/7005106/aria.o
 .reginfo       0x00000000       0x18 build/default/production/_ext/7005106/aria.o
 .rodata        0x00000000      0x45c build/default/production/_ext/7005106/aria.o
 .data          0x00000000        0x0 build/default/production/_ext/1125617168/cbc.o
 .bss           0x00000000        0x0 build/default/production/_ext/1125617168/cbc.o
 .reginfo       0x00000000       0x18 build/default/production/_ext/1125617168/cbc.o
 .text          0x00000000      0x7f8 build/default/production/_ext/120726866/ccm.o
 .data          0x00000000        0x0 build/default/production/_ext/120726866/ccm.o
 .bss           0x00000000        0x0 build/default/production/_ext/120726866/ccm.o
 .reginfo       0x00000000       0x18 build/default/production/_ext/120726866/ccm.o
 .data          0x00000000        0x0 build/default/production/_ext/120726866/gcm.o
 .bss           0x00000000        0x0 build/default/production/_ext/120726866/gcm.o
 .reginfo       0x00000000       0x18 build/default/production/_ext/120726866/gcm.o
 .data          0x00000000        0x0 build/default/production/_ext/7005106/chacha.o
 .bss           0x00000000        0x0 build/default/production/_ext/7005106/chacha.o
 .reginfo       0x00000000       0x18 build/default/production/_ext/7005106/chacha.o
 .data          0x00000000        0x0 build/default/production/_ext/273211656/poly1305.o
 .bss           0x00000000        0x0 build/default/production/_ext/273211656/poly1305.o
 .reginfo       0x00000000       0x18 build/default/production/_ext/273211656/poly1305.o
 .data          0x00000000        0x0 build/default/production/_ext/120726866/chacha20_poly1305.o
 .bss           0x00000000        0x0 build/default/production/_ext/120726866/chacha20_poly1305.o
 .reginfo       0x00000000       0x18 build/default/production/_ext/120726866/chacha20_poly1305.o
 .text          0x00000000      0x280 build/default/production/_ext/273214849/dh.o
 .data          0x00000000        0x0 build/default/production/_ext/273214849/dh.o
 .bss           0x00000000        0x0 build/default/production/_ext/273214849/dh.o
 .reginfo       0x00000000       0x18 build/default/production/_ext/273214849/dh.o
 .data          0x00000000        0x0 build/default/production/_ext/273214849/rsa.o
 .bss           0x00000000        0x0 build/default/production/_ext/273214849/rsa.o
 .reginfo       0x00000000       0x18 build/default/production/_ext/273214849/rsa.o
 .data          0x00000000        0x0 build/default/production/_ext/273214849/dsa.o
 .bss           0x00000000        0x0 build/default/production/_ext/273214849/dsa.o
 .reginfo       0x00000000       0x18 build/default/production/_ext/273214849/dsa.o
 .data          0x00000000        0x0 build/default/production/_ext/273204030/ec.o
 .bss           0x00000000        0x0 build/default/production/_ext/273204030/ec.o
 .reginfo       0x00000000       0x18 build/default/production/_ext/273204030/ec.o
 .data          0x00000000        0x0 build/default/production/_ext/273204030/ec_curves.o
 .bss           0x00000000        0x0 build/default/production/_ext/273204030/ec_curves.o
 .reginfo       0x00000000       0x18 build/default/production/_ext/273204030/ec_curves.o
 .data          0x00000000        0x0 build/default/production/_ext/273204030/ecdh.o
 .bss           0x00000000        0x0 build/default/production/_ext/273204030/ecdh.o
 .reginfo       0x00000000       0x18 build/default/production/_ext/273204030/ecdh.o
 .data          0x00000000        0x0 build/default/production/_ext/273204030/ecdsa.o
 .bss           0x00000000        0x0 build/default/production/_ext/273204030/ecdsa.o
 .reginfo       0x00000000       0x18 build/default/production/_ext/273204030/ecdsa.o
 .text          0x00000000        0x0 build/default/production/_ext/273204030/eddsa.o
 .data          0x00000000        0x0 build/default/production/_ext/273204030/eddsa.o
 .bss           0x00000000        0x0 build/default/production/_ext/273204030/eddsa.o
 .reginfo       0x00000000       0x18 build/default/production/_ext/273204030/eddsa.o
 .data          0x00000000        0x0 build/default/production/_ext/273204030/curve25519.o
 .bss           0x00000000        0x0 build/default/production/_ext/273204030/curve25519.o
 .reginfo       0x00000000       0x18 build/default/production/_ext/273204030/curve25519.o
 .text          0x00000000        0x0 build/default/production/_ext/273204030/curve448.o
 .data          0x00000000        0x0 build/default/production/_ext/273204030/curve448.o
 .bss           0x00000000        0x0 build/default/production/_ext/273204030/curve448.o
 .reginfo       0x00000000       0x18 build/default/production/_ext/273204030/curve448.o
 .data          0x00000000        0x0 build/default/production/_ext/273204030/x25519.o
 .bss           0x00000000        0x0 build/default/production/_ext/273204030/x25519.o
 .reginfo       0x00000000       0x18 build/default/production/_ext/273204030/x25519.o
 .text          0x00000000        0x0 build/default/production/_ext/273204030/x448.o
 .data          0x00000000        0x0 build/default/production/_ext/273204030/x448.o
 .bss           0x00000000        0x0 build/default/production/_ext/273204030/x448.o
 .reginfo       0x00000000       0x18 build/default/production/_ext/273204030/x448.o
 .text          0x00000000        0x0 build/default/production/_ext/273204030/ed25519.o
 .data          0x00000000        0x0 build/default/production/_ext/273204030/ed25519.o
 .bss           0x00000000        0x0 build/default/production/_ext/273204030/ed25519.o
 .reginfo       0x00000000       0x18 build/default/production/_ext/273204030/ed25519.o
 .text          0x00000000        0x0 build/default/production/_ext/273204030/ed448.o
 .data          0x00000000        0x0 build/default/production/_ext/273204030/ed448.o
 .bss           0x00000000        0x0 build/default/production/_ext/273204030/ed448.o
 .reginfo       0x00000000       0x18 build/default/production/_ext/273204030/ed448.o
 .data          0x00000000        0x0 build/default/production/_ext/273212127/mpi.o
 .bss           0x00000000        0x0 build/default/production/_ext/273212127/mpi.o
 .reginfo       0x00000000       0x18 build/default/production/_ext/273212127/mpi.o
 .data          0x00000000        0x0 build/default/production/_ext/1404394810/base64.o
 .bss           0x00000000        0x0 build/default/production/_ext/1404394810/base64.o
 .reginfo       0x00000000       0x18 build/default/production/_ext/1404394810/base64.o
 .data          0x00000000        0x0 build/default/production/_ext/1404394810/asn1.o
 .bss           0x00000000        0x0 build/default/production/_ext/1404394810/asn1.o
 .reginfo       0x00000000       0x18 build/default/production/_ext/1404394810/asn1.o
 .data          0x00000000        0x0 build/default/production/_ext/1404394810/oid.o
 .reginfo       0x00000000       0x18 build/default/production/_ext/1404394810/oid.o
 .data          0x00000000        0x0 build/default/production/_ext/120273967/pem_import.o
 .bss           0x00000000        0x0 build/default/production/_ext/120273967/pem_import.o
 .reginfo       0x00000000       0x18 build/default/production/_ext/120273967/pem_import.o
 .data          0x00000000        0x0 build/default/production/_ext/120273967/pkcs8_key_parse.o
 .bss           0x00000000        0x0 build/default/production/_ext/120273967/pkcs8_key_parse.o
 .reginfo       0x00000000       0x18 build/default/production/_ext/120273967/pkcs8_key_parse.o
 .data          0x00000000        0x0 build/default/production/_ext/120273967/x509_key_parse.o
 .bss           0x00000000        0x0 build/default/production/_ext/120273967/x509_key_parse.o
 .reginfo       0x00000000       0x18 build/default/production/_ext/120273967/x509_key_parse.o
 .data          0x00000000        0x0 build/default/production/_ext/120273967/x509_cert_parse.o
 .bss           0x00000000        0x0 build/default/production/_ext/120273967/x509_cert_parse.o
 .reginfo       0x00000000       0x18 build/default/production/_ext/120273967/x509_cert_parse.o
 .data          0x00000000        0x0 build/default/production/_ext/120273967/x509_cert_validate.o
 .bss           0x00000000        0x0 build/default/production/_ext/120273967/x509_cert_validate.o
 .reginfo       0x00000000       0x18 build/default/production/_ext/120273967/x509_cert_validate.o
 .text          0x00000000      0xc60 build/default/production/_ext/120273967/x509_crl_parse.o
 .data          0x00000000        0x0 build/default/production/_ext/120273967/x509_crl_parse.o
 .bss           0x00000000        0x0 build/default/production/_ext/120273967/x509_crl_parse.o
 .reginfo       0x00000000       0x18 build/default/production/_ext/120273967/x509_crl_parse.o
 .text          0x00000000      0x2ac build/default/production/_ext/120273967/x509_crl_validate.o
 .data          0x00000000        0x0 build/default/production/_ext/120273967/x509_crl_validate.o
 .bss           0x00000000        0x0 build/default/production/_ext/120273967/x509_crl_validate.o
 .reginfo       0x00000000       0x18 build/default/production/_ext/120273967/x509_crl_validate.o
 .data          0x00000000        0x0 build/default/production/_ext/120273967/x509_common.o
 .bss           0x00000000        0x0 build/default/production/_ext/120273967/x509_common.o
 .reginfo       0x00000000       0x18 build/default/production/_ext/120273967/x509_common.o
 .data          0x00000000        0x0 build/default/production/_ext/273209830/hkdf.o
 .bss           0x00000000        0x0 build/default/production/_ext/273209830/hkdf.o
 .reginfo       0x00000000       0x18 build/default/production/_ext/273209830/hkdf.o
 .data          0x00000000        0x0 build/default/production/_ext/273216868/yarrow.o
 .bss           0x00000000        0x0 build/default/production/_ext/273216868/yarrow.o
 .reginfo       0x00000000       0x18 build/default/production/_ext/273216868/yarrow.o
 .data          0x00000000        0x0 build/default/production/_ext/476983781/tls.o
 .bss           0x00000000        0x0 build/default/production/_ext/476983781/tls.o
 .reginfo       0x00000000       0x18 build/default/production/_ext/476983781/tls.o
 .data          0x00000000        0x0 build/default/production/_ext/476983781/tls_cipher_suites.o
 .bss           0x00000000        0x0 build/default/production/_ext/476983781/tls_cipher_suites.o
 .reginfo       0x00000000       0x18 build/default/production/_ext/476983781/tls_cipher_suites.o
 .data          0x00000000        0x0 build/default/production/_ext/476983781/tls_handshake.o
 .bss           0x00000000        0x0 build/default/production/_ext/476983781/tls_handshake.o
 .reginfo       0x00000000       0x18 build/default/production/_ext/476983781/tls_handshake.o
 .data          0x00000000        0x0 build/default/production/_ext/476983781/tls_client.o
 .bss           0x00000000        0x0 build/default/production/_ext/476983781/tls_client.o
 .reginfo       0x00000000       0x18 build/default/production/_ext/476983781/tls_client.o
 .data          0x00000000        0x0 build/default/production/_ext/476983781/tls_client_fsm.o
 .bss           0x00000000        0x0 build/default/production/_ext/476983781/tls_client_fsm.o
 .reginfo       0x00000000       0x18 build/default/production/_ext/476983781/tls_client_fsm.o
 .data          0x00000000        0x0 build/default/production/_ext/476983781/tls_client_extensions.o
 .bss           0x00000000        0x0 build/default/production/_ext/476983781/tls_client_extensions.o
 .reginfo       0x00000000       0x18 build/default/production/_ext/476983781/tls_client_extensions.o
 .data          0x00000000        0x0 build/default/production/_ext/476983781/tls_client_misc.o
 .bss           0x00000000        0x0 build/default/production/_ext/476983781/tls_client_misc.o
 .reginfo       0x00000000       0x18 build/default/production/_ext/476983781/tls_client_misc.o
 .text          0x00000000        0x0 build/default/production/_ext/476983781/tls_server.o
 .data          0x00000000        0x0 build/default/production/_ext/476983781/tls_server.o
 .bss           0x00000000        0x0 build/default/production/_ext/476983781/tls_server.o
 .reginfo       0x00000000       0x18 build/default/production/_ext/476983781/tls_server.o
 .text          0x00000000        0x0 build/default/production/_ext/476983781/tls_server_fsm.o
 .data          0x00000000        0x0 build/default/production/_ext/476983781/tls_server_fsm.o
 .bss           0x00000000        0x0 build/default/production/_ext/476983781/tls_server_fsm.o
 .reginfo       0x00000000       0x18 build/default/production/_ext/476983781/tls_server_fsm.o
 .text          0x00000000        0x0 build/default/production/_ext/476983781/tls_server_extensions.o
 .data          0x00000000        0x0 build/default/production/_ext/476983781/tls_server_extensions.o
 .bss           0x00000000        0x0 build/default/production/_ext/476983781/tls_server_extensions.o
 .reginfo       0x00000000       0x18 build/default/production/_ext/476983781/tls_server_extensions.o
 .text          0x00000000        0x0 build/default/production/_ext/476983781/tls_server_misc.o
 .data          0x00000000        0x0 build/default/production/_ext/476983781/tls_server_misc.o
 .bss           0x00000000        0x0 build/default/production/_ext/476983781/tls_server_misc.o
 .reginfo       0x00000000       0x18 build/default/production/_ext/476983781/tls_server_misc.o
 .data          0x00000000        0x0 build/default/production/_ext/476983781/tls_common.o
 .bss           0x00000000        0x0 build/default/production/_ext/476983781/tls_common.o
 .reginfo       0x00000000       0x18 build/default/production/_ext/476983781/tls_common.o
 .data          0x00000000        0x0 build/default/production/_ext/476983781/tls_extensions.o
 .bss           0x00000000        0x0 build/default/production/_ext/476983781/tls_extensions.o
 .reginfo       0x00000000       0x18 build/default/production/_ext/476983781/tls_extensions.o
 .data          0x00000000        0x0 build/default/production/_ext/476983781/tls_certificate.o
 .bss           0x00000000        0x0 build/default/production/_ext/476983781/tls_certificate.o
 .reginfo       0x00000000       0x18 build/default/production/_ext/476983781/tls_certificate.o
 .data          0x00000000        0x0 build/default/production/_ext/476983781/tls_signature.o
 .bss           0x00000000        0x0 build/default/production/_ext/476983781/tls_signature.o
 .reginfo       0x00000000       0x18 build/default/production/_ext/476983781/tls_signature.o
 .data          0x00000000        0x0 build/default/production/_ext/476983781/tls_key_material.o
 .bss           0x00000000        0x0 build/default/production/_ext/476983781/tls_key_material.o
 .reginfo       0x00000000       0x18 build/default/production/_ext/476983781/tls_key_material.o
 .data          0x00000000        0x0 build/default/production/_ext/476983781/tls_transcript_hash.o
 .bss           0x00000000        0x0 build/default/production/_ext/476983781/tls_transcript_hash.o
 .reginfo       0x00000000       0x18 build/default/production/_ext/476983781/tls_transcript_hash.o
 .data          0x00000000        0x0 build/default/production/_ext/476983781/tls_cache.o
 .bss           0x00000000        0x0 build/default/production/_ext/476983781/tls_cache.o
 .reginfo       0x00000000       0x18 build/default/production/_ext/476983781/tls_cache.o
 .text          0x00000000        0x0 build/default/production/_ext/476983781/tls_ticket.o
 .data          0x00000000        0x0 build/default/production/_ext/476983781/tls_ticket.o
 .bss           0x00000000        0x0 build/default/production/_ext/476983781/tls_ticket.o
 .reginfo       0x00000000       0x18 build/default/production/_ext/476983781/tls_ticket.o
 .text          0x00000000        0x0 build/default/production/_ext/476983781/tls_ffdhe.o
 .data          0x00000000        0x0 build/default/production/_ext/476983781/tls_ffdhe.o
 .bss           0x00000000        0x0 build/default/production/_ext/476983781/tls_ffdhe.o
 .reginfo       0x00000000       0x18 build/default/production/_ext/476983781/tls_ffdhe.o
 .data          0x00000000        0x0 build/default/production/_ext/476983781/tls_record.o
 .bss           0x00000000        0x0 build/default/production/_ext/476983781/tls_record.o
 .reginfo       0x00000000       0x18 build/default/production/_ext/476983781/tls_record.o
 .data          0x00000000        0x0 build/default/production/_ext/476983781/tls_record_encryption.o
 .bss           0x00000000        0x0 build/default/production/_ext/476983781/tls_record_encryption.o
 .reginfo       0x00000000       0x18 build/default/production/_ext/476983781/tls_record_encryption.o
 .data          0x00000000        0x0 build/default/production/_ext/476983781/tls_record_decryption.o
 .bss           0x00000000        0x0 build/default/production/_ext/476983781/tls_record_decryption.o
 .reginfo       0x00000000       0x18 build/default/production/_ext/476983781/tls_record_decryption.o
 .data          0x00000000        0x0 build/default/production/_ext/476983781/tls_misc.o
 .bss           0x00000000        0x0 build/default/production/_ext/476983781/tls_misc.o
 .reginfo       0x00000000       0x18 build/default/production/_ext/476983781/tls_misc.o
 .data          0x00000000        0x0 build/default/production/_ext/476983781/tls13_client.o
 .bss           0x00000000        0x0 build/default/production/_ext/476983781/tls13_client.o
 .reginfo       0x00000000       0x18 build/default/production/_ext/476983781/tls13_client.o
 .data          0x00000000        0x0 build/default/production/_ext/476983781/tls13_client_extensions.o
 .bss           0x00000000        0x0 build/default/production/_ext/476983781/tls13_client_extensions.o
 .reginfo       0x00000000       0x18 build/default/production/_ext/476983781/tls13_client_extensions.o
 .data          0x00000000        0x0 build/default/production/_ext/476983781/tls13_client_misc.o
 .bss           0x00000000        0x0 build/default/production/_ext/476983781/tls13_client_misc.o
 .reginfo       0x00000000       0x18 build/default/production/_ext/476983781/tls13_client_misc.o
 .text          0x00000000        0x0 build/default/production/_ext/476983781/tls13_server.o
 .data          0x00000000        0x0 build/default/production/_ext/476983781/tls13_server.o
 .bss           0x00000000        0x0 build/default/production/_ext/476983781/tls13_server.o
 .reginfo       0x00000000       0x18 build/default/production/_ext/476983781/tls13_server.o
 .text          0x00000000        0x0 build/default/production/_ext/476983781/tls13_server_extensions.o
 .data          0x00000000        0x0 build/default/production/_ext/476983781/tls13_server_extensions.o
 .bss           0x00000000        0x0 build/default/production/_ext/476983781/tls13_server_extensions.o
 .reginfo       0x00000000       0x18 build/default/production/_ext/476983781/tls13_server_extensions.o
 .text          0x00000000        0x0 build/default/production/_ext/476983781/tls13_server_misc.o
 .data          0x00000000        0x0 build/default/production/_ext/476983781/tls13_server_misc.o
 .bss           0x00000000        0x0 build/default/production/_ext/476983781/tls13_server_misc.o
 .reginfo       0x00000000       0x18 build/default/production/_ext/476983781/tls13_server_misc.o
 .data          0x00000000        0x0 build/default/production/_ext/476983781/tls13_common.o
 .bss           0x00000000        0x0 build/default/production/_ext/476983781/tls13_common.o
 .reginfo       0x00000000       0x18 build/default/production/_ext/476983781/tls13_common.o
 .data          0x00000000        0x0 build/default/production/_ext/476983781/tls13_key_material.o
 .bss           0x00000000        0x0 build/default/production/_ext/476983781/tls13_key_material.o
 .reginfo       0x00000000       0x18 build/default/production/_ext/476983781/tls13_key_material.o
 .data          0x00000000        0x0 build/default/production/_ext/476983781/tls13_misc.o
 .bss           0x00000000        0x0 build/default/production/_ext/476983781/tls13_misc.o
 .reginfo       0x00000000       0x18 build/default/production/_ext/476983781/tls13_misc.o
 .text          0x00000000        0x0 build/default/production/_ext/476983781/ssl_misc.o
 .data          0x00000000        0x0 build/default/production/_ext/476983781/ssl_misc.o
 .bss           0x00000000        0x0 build/default/production/_ext/476983781/ssl_misc.o
 .reginfo       0x00000000       0x18 build/default/production/_ext/476983781/ssl_misc.o
 .data          0x00000000        0x0 build/default/production/_ext/1079766828/net.o
 .reginfo       0x00000000       0x18 build/default/production/_ext/1079766828/net.o
 .data          0x00000000        0x0 build/default/production/_ext/1079766828/net_mem.o
 .bss           0x00000000        0x0 build/default/production/_ext/1079766828/net_mem.o
 .reginfo       0x00000000       0x18 build/default/production/_ext/1079766828/net_mem.o
 .data          0x00000000        0x0 build/default/production/_ext/37329846/pic32mz_eth_driver.o
 .reginfo       0x00000000       0x18 build/default/production/_ext/37329846/pic32mz_eth_driver.o
 .data          0x00000000        0x0 build/default/production/_ext/37332968/lan8720_driver.o
 .bss           0x00000000        0x0 build/default/production/_ext/37332968/lan8720_driver.o
 .reginfo       0x00000000       0x18 build/default/production/_ext/37332968/lan8720_driver.o
 .data          0x00000000        0x0 build/default/production/_ext/1157531022/wilc1000_driver.o
 .reginfo       0x00000000       0x18 build/default/production/_ext/1157531022/wilc1000_driver.o
 COMMON         0x00000000      0x840 build/default/production/_ext/1157531022/wilc1000_driver.o
 .data          0x00000000        0x0 build/default/production/_ext/1079766828/nic.o
 .bss           0x00000000        0x0 build/default/production/_ext/1079766828/nic.o
 .reginfo       0x00000000       0x18 build/default/production/_ext/1079766828/nic.o
 .data          0x00000000        0x0 build/default/production/_ext/1079766828/ethernet.o
 .reginfo       0x00000000       0x18 build/default/production/_ext/1079766828/ethernet.o
 .data          0x00000000        0x0 build/default/production/_ext/1079766828/ethernet_misc.o
 .bss           0x00000000        0x0 build/default/production/_ext/1079766828/ethernet_misc.o
 .reginfo       0x00000000       0x18 build/default/production/_ext/1079766828/ethernet_misc.o
 .data          0x00000000        0x0 build/default/production/_ext/1079587046/arp.o
 .bss           0x00000000        0x0 build/default/production/_ext/1079587046/arp.o
 .reginfo       0x00000000       0x18 build/default/production/_ext/1079587046/arp.o
 .data          0x00000000        0x0 build/default/production/_ext/1079587046/ipv4.o
 .reginfo       0x00000000       0x18 build/default/production/_ext/1079587046/ipv4.o
 .data          0x00000000        0x0 build/default/production/_ext/1079587046/ipv4_frag.o
 .bss           0x00000000        0x0 build/default/production/_ext/1079587046/ipv4_frag.o
 .reginfo       0x00000000       0x18 build/default/production/_ext/1079587046/ipv4_frag.o
 .data          0x00000000        0x0 build/default/production/_ext/1079587046/ipv4_misc.o
 .bss           0x00000000        0x0 build/default/production/_ext/1079587046/ipv4_misc.o
 .reginfo       0x00000000       0x18 build/default/production/_ext/1079587046/ipv4_misc.o
 .data          0x00000000        0x0 build/default/production/_ext/1079587046/icmp.o
 .bss           0x00000000        0x0 build/default/production/_ext/1079587046/icmp.o
 .reginfo       0x00000000       0x18 build/default/production/_ext/1079587046/icmp.o
 .text          0x00000000        0x0 build/default/production/_ext/1079587046/igmp.o
 .data          0x00000000        0x0 build/default/production/_ext/1079587046/igmp.o
 .bss           0x00000000        0x0 build/default/production/_ext/1079587046/igmp.o
 .reginfo       0x00000000       0x18 build/default/production/_ext/1079587046/igmp.o
 .data          0x00000000        0x0 build/default/production/_ext/1079587044/ipv6.o
 .reginfo       0x00000000       0x18 build/default/production/_ext/1079587044/ipv6.o
 .data          0x00000000        0x0 build/default/production/_ext/1079587044/ipv6_frag.o
 .bss           0x00000000        0x0 build/default/production/_ext/1079587044/ipv6_frag.o
 .reginfo       0x00000000       0x18 build/default/production/_ext/1079587044/ipv6_frag.o
 .data          0x00000000        0x0 build/default/production/_ext/1079587044/ipv6_misc.o
 .bss           0x00000000        0x0 build/default/production/_ext/1079587044/ipv6_misc.o
 .reginfo       0x00000000       0x18 build/default/production/_ext/1079587044/ipv6_misc.o
 .data          0x00000000        0x0 build/default/production/_ext/1079587044/ipv6_pmtu.o
 .bss           0x00000000        0x0 build/default/production/_ext/1079587044/ipv6_pmtu.o
 .reginfo       0x00000000       0x18 build/default/production/_ext/1079587044/ipv6_pmtu.o
 .data          0x00000000        0x0 build/default/production/_ext/1079587044/icmpv6.o
 .bss           0x00000000        0x0 build/default/production/_ext/1079587044/icmpv6.o
 .reginfo       0x00000000       0x18 build/default/production/_ext/1079587044/icmpv6.o
 .data          0x00000000        0x0 build/default/production/_ext/1079587044/mld.o
 .bss           0x00000000        0x0 build/default/production/_ext/1079587044/mld.o
 .reginfo       0x00000000       0x18 build/default/production/_ext/1079587044/mld.o
 .data          0x00000000        0x0 build/default/production/_ext/1079587044/ndp.o
 .bss           0x00000000        0x0 build/default/production/_ext/1079587044/ndp.o
 .reginfo       0x00000000       0x18 build/default/production/_ext/1079587044/ndp.o
 .data          0x00000000        0x0 build/default/production/_ext/1079587044/ndp_cache.o
 .bss           0x00000000        0x0 build/default/production/_ext/1079587044/ndp_cache.o
 .reginfo       0x00000000       0x18 build/default/production/_ext/1079587044/ndp_cache.o
 .data          0x00000000        0x0 build/default/production/_ext/1079587044/ndp_misc.o
 .bss           0x00000000        0x0 build/default/production/_ext/1079587044/ndp_misc.o
 .reginfo       0x00000000       0x18 build/default/production/_ext/1079587044/ndp_misc.o
 .data          0x00000000        0x0 build/default/production/_ext/1079587044/ndp_router_adv.o
 .bss           0x00000000        0x0 build/default/production/_ext/1079587044/ndp_router_adv.o
 .reginfo       0x00000000       0x18 build/default/production/_ext/1079587044/ndp_router_adv.o
 .data          0x00000000        0x0 build/default/production/_ext/1079587044/slaac.o
 .bss           0x00000000        0x0 build/default/production/_ext/1079587044/slaac.o
 .reginfo       0x00000000       0x18 build/default/production/_ext/1079587044/slaac.o
 .data          0x00000000        0x0 build/default/production/_ext/1079766828/ip.o
 .bss           0x00000000        0x0 build/default/production/_ext/1079766828/ip.o
 .reginfo       0x00000000       0x18 build/default/production/_ext/1079766828/ip.o
 .data          0x00000000        0x0 build/default/production/_ext/1079766828/tcp.o
 .bss           0x00000000        0x0 build/default/production/_ext/1079766828/tcp.o
 .reginfo       0x00000000       0x18 build/default/production/_ext/1079766828/tcp.o
 .data          0x00000000        0x0 build/default/production/_ext/1079766828/tcp_fsm.o
 .bss           0x00000000        0x0 build/default/production/_ext/1079766828/tcp_fsm.o
 .reginfo       0x00000000       0x18 build/default/production/_ext/1079766828/tcp_fsm.o
 .data          0x00000000        0x0 build/default/production/_ext/1079766828/tcp_misc.o
 .bss           0x00000000        0x0 build/default/production/_ext/1079766828/tcp_misc.o
 .reginfo       0x00000000       0x18 build/default/production/_ext/1079766828/tcp_misc.o
 .data          0x00000000        0x0 build/default/production/_ext/1079766828/tcp_timer.o
 .bss           0x00000000        0x0 build/default/production/_ext/1079766828/tcp_timer.o
 .reginfo       0x00000000       0x18 build/default/production/_ext/1079766828/tcp_timer.o
 .data          0x00000000        0x0 build/default/production/_ext/1079766828/udp.o
 .bss           0x00000000        0x0 build/default/production/_ext/1079766828/udp.o
 .reginfo       0x00000000       0x18 build/default/production/_ext/1079766828/udp.o
 .data          0x00000000        0x0 build/default/production/_ext/1079766828/socket.o
 .bss           0x00000000        0x0 build/default/production/_ext/1079766828/socket.o
 .reginfo       0x00000000       0x18 build/default/production/_ext/1079766828/socket.o
 .text          0x00000000     0x1c5c build/default/production/_ext/1079766828/bsd_socket.o
 .data          0x00000000        0x0 build/default/production/_ext/1079766828/bsd_socket.o
 .bss           0x00000000        0x0 build/default/production/_ext/1079766828/bsd_socket.o
 .reginfo       0x00000000       0x18 build/default/production/_ext/1079766828/bsd_socket.o
 .rodata        0x00000000       0x20 build/default/production/_ext/1079766828/bsd_socket.o
 .text          0x00000000        0x0 build/default/production/_ext/1079766828/raw_socket.o
 .data          0x00000000        0x0 build/default/production/_ext/1079766828/raw_socket.o
 .bss           0x00000000        0x0 build/default/production/_ext/1079766828/raw_socket.o
 .reginfo       0x00000000       0x18 build/default/production/_ext/1079766828/raw_socket.o
 .data          0x00000000        0x0 build/default/production/_ext/242264404/dns_cache.o
 .bss           0x00000000        0x0 build/default/production/_ext/242264404/dns_cache.o
 .reginfo       0x00000000       0x18 build/default/production/_ext/242264404/dns_cache.o
 .data          0x00000000        0x0 build/default/production/_ext/242264404/dns_client.o
 .bss           0x00000000        0x0 build/default/production/_ext/242264404/dns_client.o
 .reginfo       0x00000000       0x18 build/default/production/_ext/242264404/dns_client.o
 .data          0x00000000        0x0 build/default/production/_ext/242264404/dns_common.o
 .bss           0x00000000        0x0 build/default/production/_ext/242264404/dns_common.o
 .reginfo       0x00000000       0x18 build/default/production/_ext/242264404/dns_common.o
 .text          0x00000000        0x0 build/default/production/_ext/242264404/dns_debug.o
 .data          0x00000000        0x0 build/default/production/_ext/242264404/dns_debug.o
 .bss           0x00000000        0x0 build/default/production/_ext/242264404/dns_debug.o
 .reginfo       0x00000000       0x18 build/default/production/_ext/242264404/dns_debug.o
 .text          0x00000000        0x0 build/default/production/_ext/1079479599/mdns_client.o
 .data          0x00000000        0x0 build/default/production/_ext/1079479599/mdns_client.o
 .bss           0x00000000        0x0 build/default/production/_ext/1079479599/mdns_client.o
 .reginfo       0x00000000       0x18 build/default/production/_ext/1079479599/mdns_client.o
 .text          0x00000000        0x0 build/default/production/_ext/1079479599/mdns_responder.o
 .data          0x00000000        0x0 build/default/production/_ext/1079479599/mdns_responder.o
 .bss           0x00000000        0x0 build/default/production/_ext/1079479599/mdns_responder.o
 .reginfo       0x00000000       0x18 build/default/production/_ext/1079479599/mdns_responder.o
 .text          0x00000000        0x0 build/default/production/_ext/1079479599/mdns_common.o
 .data          0x00000000        0x0 build/default/production/_ext/1079479599/mdns_common.o
 .bss           0x00000000        0x0 build/default/production/_ext/1079479599/mdns_common.o
 .reginfo       0x00000000       0x18 build/default/production/_ext/1079479599/mdns_common.o
 .data          0x00000000        0x0 build/default/production/_ext/1435316685/nbns_client.o
 .bss           0x00000000        0x0 build/default/production/_ext/1435316685/nbns_client.o
 .reginfo       0x00000000       0x18 build/default/production/_ext/1435316685/nbns_client.o
 .data          0x00000000        0x0 build/default/production/_ext/1435316685/nbns_responder.o
 .bss           0x00000000        0x0 build/default/production/_ext/1435316685/nbns_responder.o
 .reginfo       0x00000000       0x18 build/default/production/_ext/1435316685/nbns_responder.o
 .data          0x00000000        0x0 build/default/production/_ext/1435316685/nbns_common.o
 .bss           0x00000000        0x0 build/default/production/_ext/1435316685/nbns_common.o
 .reginfo       0x00000000       0x18 build/default/production/_ext/1435316685/nbns_common.o
 .text          0x00000000        0x0 build/default/production/_ext/895184604/llmnr_client.o
 .data          0x00000000        0x0 build/default/production/_ext/895184604/llmnr_client.o
 .bss           0x00000000        0x0 build/default/production/_ext/895184604/llmnr_client.o
 .reginfo       0x00000000       0x18 build/default/production/_ext/895184604/llmnr_client.o
 .data          0x00000000        0x0 build/default/production/_ext/895184604/llmnr_responder.o
 .bss           0x00000000        0x0 build/default/production/_ext/895184604/llmnr_responder.o
 .reginfo       0x00000000       0x18 build/default/production/_ext/895184604/llmnr_responder.o
 .text          0x00000000        0x0 build/default/production/_ext/895184604/llmnr_common.o
 .data          0x00000000        0x0 build/default/production/_ext/895184604/llmnr_common.o
 .bss           0x00000000        0x0 build/default/production/_ext/895184604/llmnr_common.o
 .reginfo       0x00000000       0x18 build/default/production/_ext/895184604/llmnr_common.o
 .data          0x00000000        0x0 build/default/production/_ext/1079744218/dhcp_client.o
 .bss           0x00000000        0x0 build/default/production/_ext/1079744218/dhcp_client.o
 .reginfo       0x00000000       0x18 build/default/production/_ext/1079744218/dhcp_client.o
 .data          0x00000000        0x0 build/default/production/_ext/1079744218/dhcp_server.o
 .bss           0x00000000        0x0 build/default/production/_ext/1079744218/dhcp_server.o
 .reginfo       0x00000000       0x18 build/default/production/_ext/1079744218/dhcp_server.o
 .data          0x00000000        0x0 build/default/production/_ext/1079744218/dhcp_common.o
 .bss           0x00000000        0x0 build/default/production/_ext/1079744218/dhcp_common.o
 .reginfo       0x00000000       0x18 build/default/production/_ext/1079744218/dhcp_common.o
 .text          0x00000000        0x0 build/default/production/_ext/1079744218/dhcp_debug.o
 .data          0x00000000        0x0 build/default/production/_ext/1079744218/dhcp_debug.o
 .bss           0x00000000        0x0 build/default/production/_ext/1079744218/dhcp_debug.o
 .reginfo       0x00000000       0x18 build/default/production/_ext/1079744218/dhcp_debug.o
 .data          0x00000000        0x0 build/default/production/_ext/1079612995/http_server.o
 .bss           0x00000000        0x0 build/default/production/_ext/1079612995/http_server.o
 .reginfo       0x00000000       0x18 build/default/production/_ext/1079612995/http_server.o
 .data          0x00000000        0x0 build/default/production/_ext/1079612995/http_server_auth.o
 .bss           0x00000000        0x0 build/default/production/_ext/1079612995/http_server_auth.o
 .reginfo       0x00000000       0x18 build/default/production/_ext/1079612995/http_server_auth.o
 .data          0x00000000        0x0 build/default/production/_ext/1079612995/http_server_misc.o
 .bss           0x00000000        0x0 build/default/production/_ext/1079612995/http_server_misc.o
 .reginfo       0x00000000       0x18 build/default/production/_ext/1079612995/http_server_misc.o
 .data          0x00000000        0x0 build/default/production/_ext/1079612995/mime.o
 .bss           0x00000000        0x0 build/default/production/_ext/1079612995/mime.o
 .reginfo       0x00000000       0x18 build/default/production/_ext/1079612995/mime.o
 .data          0x00000000        0x0 build/default/production/_ext/1079612995/ssi.o
 .bss           0x00000000        0x0 build/default/production/_ext/1079612995/ssi.o
 .reginfo       0x00000000       0x18 build/default/production/_ext/1079612995/ssi.o
 .data          0x00000000        0x0 build/default/production/_ext/1079466919/mqtt_client.o
 .bss           0x00000000        0x0 build/default/production/_ext/1079466919/mqtt_client.o
 .reginfo       0x00000000       0x18 build/default/production/_ext/1079466919/mqtt_client.o
 .data          0x00000000        0x0 build/default/production/_ext/1079466919/mqtt_client_misc.o
 .bss           0x00000000        0x0 build/default/production/_ext/1079466919/mqtt_client_misc.o
 .reginfo       0x00000000       0x18 build/default/production/_ext/1079466919/mqtt_client_misc.o
 .data          0x00000000        0x0 build/default/production/_ext/1079466919/mqtt_client_packet.o
 .bss           0x00000000        0x0 build/default/production/_ext/1079466919/mqtt_client_packet.o
 .reginfo       0x00000000       0x18 build/default/production/_ext/1079466919/mqtt_client_packet.o
 .data          0x00000000        0x0 build/default/production/_ext/1079466919/mqtt_client_transport.o
 .bss           0x00000000        0x0 build/default/production/_ext/1079466919/mqtt_client_transport.o
 .reginfo       0x00000000       0x18 build/default/production/_ext/1079466919/mqtt_client_transport.o
 .data          0x00000000        0x0 build/default/production/_ext/18976819/web_socket.o
 .bss           0x00000000        0x0 build/default/production/_ext/18976819/web_socket.o
 .reginfo       0x00000000       0x18 build/default/production/_ext/18976819/web_socket.o
 .text          0x00000000       0x70 build/default/production/_ext/18976819/web_socket_auth.o
 .data          0x00000000        0x0 build/default/production/_ext/18976819/web_socket_auth.o
 .bss           0x00000000        0x0 build/default/production/_ext/18976819/web_socket_auth.o
 .reginfo       0x00000000       0x18 build/default/production/_ext/18976819/web_socket_auth.o
 .rodata        0x00000000       0x10 build/default/production/_ext/18976819/web_socket_auth.o
 .data          0x00000000        0x0 build/default/production/_ext/18976819/web_socket_frame.o
 .bss           0x00000000        0x0 build/default/production/_ext/18976819/web_socket_frame.o
 .reginfo       0x00000000       0x18 build/default/production/_ext/18976819/web_socket_frame.o
 .data          0x00000000        0x0 build/default/production/_ext/18976819/web_socket_misc.o
 .bss           0x00000000        0x0 build/default/production/_ext/18976819/web_socket_misc.o
 .reginfo       0x00000000       0x18 build/default/production/_ext/18976819/web_socket_misc.o
 .data          0x00000000        0x0 build/default/production/_ext/18976819/web_socket_transport.o
 .bss           0x00000000        0x0 build/default/production/_ext/18976819/web_socket_transport.o
 .reginfo       0x00000000       0x18 build/default/production/_ext/18976819/web_socket_transport.o
 .data          0x00000000        0x0 build/default/production/_ext/1360937237/main.o
 .bss           0x00000000        0x0 build/default/production/_ext/1360937237/main.o
 .reginfo       0x00000000       0x18 build/default/production/_ext/1360937237/main.o
 .data          0x00000000        0x0 build/default/production/_ext/1360937237/debug.o
 .bss           0x00000000        0x0 build/default/production/_ext/1360937237/debug.o
 .reginfo       0x00000000       0x18 build/default/production/_ext/1360937237/debug.o
 .data          0x00000000        0x0 build/default/production/_ext/1360937237/sprintf.o
 .bss           0x00000000        0x0 build/default/production/_ext/1360937237/sprintf.o
 .reginfo       0x00000000       0x18 build/default/production/_ext/1360937237/sprintf.o
 .data          0x00000000        0x0 build/default/production/_ext/1360937237/strtok_r.o
 .bss           0x00000000        0x0 build/default/production/_ext/1360937237/strtok_r.o
 .reginfo       0x00000000       0x18 build/default/production/_ext/1360937237/strtok_r.o
 .data          0x00000000        0x0 build/default/production/_ext/1360937237/eth_irq_wrapper.o
 .bss           0x00000000        0x0 build/default/production/_ext/1360937237/eth_irq_wrapper.o
 .reginfo       0x00000000       0x18 build/default/production/_ext/1360937237/eth_irq_wrapper.o
 .data          0x00000000        0x0 build/default/production/_ext/1360937237/ext1_irq_wrapper.o
 .bss           0x00000000        0x0 build/default/production/_ext/1360937237/ext1_irq_wrapper.o
 .reginfo       0x00000000       0x18 build/default/production/_ext/1360937237/ext1_irq_wrapper.o
 .data          0x00000000        0x0 build/default/production/_ext/1360937237/wilc1000_callbacks.o
 .bss           0x00000000        0x0 build/default/production/_ext/1360937237/wilc1000_callbacks.o
 .reginfo       0x00000000       0x18 build/default/production/_ext/1360937237/wilc1000_callbacks.o
 .text          0x00000000        0x0 build/default/production/_ext/1360937237/res.o
 .data          0x00000000        0x0 build/default/production/_ext/1360937237/res.o
 .bss           0x00000000        0x0 build/default/production/_ext/1360937237/res.o
 .reginfo       0x00000000       0x18 build/default/production/_ext/1360937237/res.o
 .data          0x00000000        0x0 build/default/production/_ext/23001898/port.o
 .reginfo       0x00000000       0x18 build/default/production/_ext/23001898/port.o
 .data          0x00000000        0x0 build/default/production/_ext/23001898/port_asm.o
 .bss           0x00000000        0x0 build/default/production/_ext/23001898/port_asm.o
 .reginfo       0x00000000       0x18 build/default/production/_ext/23001898/port_asm.o
 .text          0x00000000        0x0 build/default/production/_ext/986256546/croutine.o
 .data          0x00000000        0x0 build/default/production/_ext/986256546/croutine.o
 .bss           0x00000000        0x0 build/default/production/_ext/986256546/croutine.o
 .reginfo       0x00000000       0x18 build/default/production/_ext/986256546/croutine.o
 .data          0x00000000        0x0 build/default/production/_ext/986256546/list.o
 .bss           0x00000000        0x0 build/default/production/_ext/986256546/list.o
 .reginfo       0x00000000       0x18 build/default/production/_ext/986256546/list.o
 .data          0x00000000        0x0 build/default/production/_ext/986256546/queue.o
 .bss           0x00000000        0x0 build/default/production/_ext/986256546/queue.o
 .reginfo       0x00000000       0x18 build/default/production/_ext/986256546/queue.o
 .data          0x00000000        0x0 build/default/production/_ext/986256546/tasks.o
 .reginfo       0x00000000       0x18 build/default/production/_ext/986256546/tasks.o
 .data          0x00000000        0x0 build/default/production/_ext/986256546/timers.o
 .reginfo       0x00000000       0x18 build/default/production/_ext/986256546/timers.o
 .data          0x00000000        0x0 build/default/production/_ext/979089083/heap_3.o
 .bss           0x00000000        0x0 build/default/production/_ext/979089083/heap_3.o
 .reginfo       0x00000000       0x18 build/default/production/_ext/979089083/heap_3.o
 .data          0x00000000        0x0 build/default/production/_ext/457051042/nm_bsp_pic32mz.o
 .bss           0x00000000        0x0 build/default/production/_ext/457051042/nm_bsp_pic32mz.o
 .reginfo       0x00000000       0x18 build/default/production/_ext/457051042/nm_bsp_pic32mz.o
 .data          0x00000000        0x0 build/default/production/_ext/1700104339/nm_bus_wrapper_pic32mz.o
 .bss           0x00000000        0x0 build/default/production/_ext/1700104339/nm_bus_wrapper_pic32mz.o
 .reginfo       0x00000000       0x18 build/default/production/_ext/1700104339/nm_bus_wrapper_pic32mz.o
 .data          0x00000000        0x0 build/default/production/_ext/1185106856/nm_common.o
 .bss           0x00000000        0x0 build/default/production/_ext/1185106856/nm_common.o
 .reginfo       0x00000000       0x18 build/default/production/_ext/1185106856/nm_common.o
 .data          0x00000000        0x0 build/default/production/_ext/1679150795/m2m_hif.o
 .bss           0x00000000        0x0 build/default/production/_ext/1679150795/m2m_hif.o
 .reginfo       0x00000000       0x18 build/default/production/_ext/1679150795/m2m_hif.o
 .text          0x00000000      0x188 build/default/production/_ext/1679150795/m2m_periph.o
 .data          0x00000000        0x0 build/default/production/_ext/1679150795/m2m_periph.o
 .bss           0x00000000        0x0 build/default/production/_ext/1679150795/m2m_periph.o
 .reginfo       0x00000000       0x18 build/default/production/_ext/1679150795/m2m_periph.o
 .data          0x00000000        0x0 build/default/production/_ext/1679150795/m2m_wifi.o
 .bss           0x00000000        0x0 build/default/production/_ext/1679150795/m2m_wifi.o
 .reginfo       0x00000000       0x18 build/default/production/_ext/1679150795/m2m_wifi.o
 .data          0x00000000        0x0 build/default/production/_ext/1679150795/nmasic.o
 .bss           0x00000000        0x0 build/default/production/_ext/1679150795/nmasic.o
 .reginfo       0x00000000       0x18 build/default/production/_ext/1679150795/nmasic.o
 .data          0x00000000        0x0 build/default/production/_ext/1679150795/nmbus.o
 .bss           0x00000000        0x0 build/default/production/_ext/1679150795/nmbus.o
 .reginfo       0x00000000       0x18 build/default/production/_ext/1679150795/nmbus.o
 .data          0x00000000        0x0 build/default/production/_ext/1679150795/nmdrv.o
 .bss           0x00000000        0x0 build/default/production/_ext/1679150795/nmdrv.o
 .reginfo       0x00000000       0x18 build/default/production/_ext/1679150795/nmdrv.o
 .data          0x00000000        0x0 build/default/production/_ext/1679150795/nmspi.o
 .bss           0x00000000        0x0 build/default/production/_ext/1679150795/nmspi.o
 .reginfo       0x00000000       0x18 build/default/production/_ext/1679150795/nmspi.o
 .text          0x00000000      0x20c build/default/production/_ext/1679150795/spi_flash.o
 .data          0x00000000        0x0 build/default/production/_ext/1679150795/spi_flash.o
 .bss           0x00000000        0x0 build/default/production/_ext/1679150795/spi_flash.o
 .reginfo       0x00000000       0x18 build/default/production/_ext/1679150795/spi_flash.o
 .rodata        0x00000000       0x78 build/default/production/_ext/1679150795/spi_flash.o
 .text          0x00000000      0xadc build/default/production/_ext/1022178492/PMK.o
 .data          0x00000000        0x0 build/default/production/_ext/1022178492/PMK.o
 .bss           0x00000000        0x0 build/default/production/_ext/1022178492/PMK.o
 .reginfo       0x00000000       0x18 build/default/production/_ext/1022178492/PMK.o
 .data          0x00000000        0x0 build/default/production/_ext/1640134129/m2m_wifi_ex.o
 .bss           0x00000000        0x0 build/default/production/_ext/1640134129/m2m_wifi_ex.o
 .reginfo       0x00000000       0x18 build/default/production/_ext/1640134129/m2m_wifi_ex.o
 .text          0x00000000        0x0 /tmp/ccIr63g9.o
 .data          0x00000000        0x0 /tmp/ccIr63g9.o
 .bss           0x00000000        0x0 /tmp/ccIr63g9.o
 .reginfo       0x00000000       0x18 /tmp/ccIr63g9.o
 .text          0x00000000        0x0 /tmp/ccp5XRh5.o
 .data          0x00000000        0x0 /tmp/ccp5XRh5.o
 .bss           0x00000000        0x0 /tmp/ccp5XRh5.o
 .reginfo       0x00000000       0x18 /tmp/ccp5XRh5.o
 .text          0x00000000        0x0 /tmp/ccccCLg5.o
 .data          0x00000000        0x0 /tmp/ccccCLg5.o
 .bss           0x00000000        0x0 /tmp/ccccCLg5.o
 .reginfo       0x00000000       0x18 /tmp/ccccCLg5.o
 .discard       0x00000000        0x4 /tmp/ccccCLg5.o
 .text          0x00000000        0x0 /home/programs/XC32/v2.30/bin/bin/../../lib/gcc/pic32mx/4.8.3/../../../../pic32mx/lib/./proc/32MZ2048EFM100/default_isr_vectors.o
 .data          0x00000000        0x0 /home/programs/XC32/v2.30/bin/bin/../../lib/gcc/pic32mx/4.8.3/../../../../pic32mx/lib/./proc/32MZ2048EFM100/default_isr_vectors.o
 .bss           0x00000000        0x0 /home/programs/XC32/v2.30/bin/bin/../../lib/gcc/pic32mx/4.8.3/../../../../pic32mx/lib/./proc/32MZ2048EFM100/default_isr_vectors.o
 .reginfo       0x00000000       0x18 /home/programs/XC32/v2.30/bin/bin/../../lib/gcc/pic32mx/4.8.3/../../../../pic32mx/lib/./proc/32MZ2048EFM100/default_isr_vectors.o
 .discard       0x00000000        0x4 /home/programs/XC32/v2.30/bin/bin/../../lib/gcc/pic32mx/4.8.3/../../../../pic32mx/lib/./proc/32MZ2048EFM100/default_isr_vectors.o
 .data          0x00000000        0x0 /home/programs/XC32/v2.30/bin/bin/../../lib/gcc/pic32mx/4.8.3/../../../../pic32mx/lib/fpu64/pic32_software_reset.o
 .bss           0x00000000        0x0 /home/programs/XC32/v2.30/bin/bin/../../lib/gcc/pic32mx/4.8.3/../../../../pic32mx/lib/fpu64/pic32_software_reset.o
 .reginfo       0x00000000       0x18 /home/programs/XC32/v2.30/bin/bin/../../lib/gcc/pic32mx/4.8.3/../../../../pic32mx/lib/fpu64/pic32_software_reset.o
 .text          0x00000000        0x0 /home/programs/XC32/v2.30/bin/bin/../../lib/gcc/pic32mx/4.8.3/../../../../pic32mx/lib/./proc/32MZ2048EFM100/processor.o
 .data          0x00000000        0x0 /home/programs/XC32/v2.30/bin/bin/../../lib/gcc/pic32mx/4.8.3/../../../../pic32mx/lib/./proc/32MZ2048EFM100/processor.o
 .bss           0x00000000        0x0 /home/programs/XC32/v2.30/bin/bin/../../lib/gcc/pic32mx/4.8.3/../../../../pic32mx/lib/./proc/32MZ2048EFM100/processor.o
 .reginfo       0x00000000       0x18 /home/programs/XC32/v2.30/bin/bin/../../lib/gcc/pic32mx/4.8.3/../../../../pic32mx/lib/./proc/32MZ2048EFM100/processor.o
 .text          0x00000000        0x0 /home/programs/XC32/v2.30/bin/bin/../../lib/gcc/pic32mx/4.8.3/../../../../pic32mx/lib/./proc/32MZ2048EFM100/vector_offset_init.o
 .data          0x00000000        0x0 /home/programs/XC32/v2.30/bin/bin/../../lib/gcc/pic32mx/4.8.3/../../../../pic32mx/lib/./proc/32MZ2048EFM100/vector_offset_init.o
 .bss           0x00000000        0x0 /home/programs/XC32/v2.30/bin/bin/../../lib/gcc/pic32mx/4.8.3/../../../../pic32mx/lib/./proc/32MZ2048EFM100/vector_offset_init.o
 .reginfo       0x00000000       0x18 /home/programs/XC32/v2.30/bin/bin/../../lib/gcc/pic32mx/4.8.3/../../../../pic32mx/lib/./proc/32MZ2048EFM100/vector_offset_init.o
 .data          0x00000000        0x0 /home/programs/XC32/v2.30/bin/bin/../../lib/gcc/pic32mx/4.8.3/../../../../pic32mx/lib/fpu64/libpic32.a(memcmp.o)
 .bss           0x00000000        0x0 /home/programs/XC32/v2.30/bin/bin/../../lib/gcc/pic32mx/4.8.3/../../../../pic32mx/lib/fpu64/libpic32.a(memcmp.o)
 .reginfo       0x00000000       0x18 /home/programs/XC32/v2.30/bin/bin/../../lib/gcc/pic32mx/4.8.3/../../../../pic32mx/lib/fpu64/libpic32.a(memcmp.o)
 .data          0x00000000        0x0 /home/programs/XC32/v2.30/bin/bin/../../lib/gcc/pic32mx/4.8.3/../../../../pic32mx/lib/fpu64/libpic32.a(memcpy.o)
 .bss           0x00000000        0x0 /home/programs/XC32/v2.30/bin/bin/../../lib/gcc/pic32mx/4.8.3/../../../../pic32mx/lib/fpu64/libpic32.a(memcpy.o)
 .reginfo       0x00000000       0x18 /home/programs/XC32/v2.30/bin/bin/../../lib/gcc/pic32mx/4.8.3/../../../../pic32mx/lib/fpu64/libpic32.a(memcpy.o)
 .data          0x00000000        0x0 /home/programs/XC32/v2.30/bin/bin/../../lib/gcc/pic32mx/4.8.3/../../../../pic32mx/lib/fpu64/libpic32.a(memset.o)
 .bss           0x00000000        0x0 /home/programs/XC32/v2.30/bin/bin/../../lib/gcc/pic32mx/4.8.3/../../../../pic32mx/lib/fpu64/libpic32.a(memset.o)
 .reginfo       0x00000000       0x18 /home/programs/XC32/v2.30/bin/bin/../../lib/gcc/pic32mx/4.8.3/../../../../pic32mx/lib/fpu64/libpic32.a(memset.o)
 .data          0x00000000        0x0 /home/programs/XC32/v2.30/bin/bin/../../lib/gcc/pic32mx/4.8.3/../../../../pic32mx/lib/fpu64/libpic32.a(strcmp.o)
 .bss           0x00000000        0x0 /home/programs/XC32/v2.30/bin/bin/../../lib/gcc/pic32mx/4.8.3/../../../../pic32mx/lib/fpu64/libpic32.a(strcmp.o)
 .reginfo       0x00000000       0x18 /home/programs/XC32/v2.30/bin/bin/../../lib/gcc/pic32mx/4.8.3/../../../../pic32mx/lib/fpu64/libpic32.a(strcmp.o)
 .data          0x00000000        0x0 /home/programs/XC32/v2.30/bin/bin/../../lib/gcc/pic32mx/4.8.3/../../../../pic32mx/lib/fpu64/libpic32.a(strcpy.o)
 .bss           0x00000000        0x0 /home/programs/XC32/v2.30/bin/bin/../../lib/gcc/pic32mx/4.8.3/../../../../pic32mx/lib/fpu64/libpic32.a(strcpy.o)
 .reginfo       0x00000000       0x18 /home/programs/XC32/v2.30/bin/bin/../../lib/gcc/pic32mx/4.8.3/../../../../pic32mx/lib/fpu64/libpic32.a(strcpy.o)
 .data          0x00000000        0x0 /home/programs/XC32/v2.30/bin/bin/../../lib/gcc/pic32mx/4.8.3/../../../../pic32mx/lib/fpu64/libpic32.a(strlen.o)
 .bss           0x00000000        0x0 /home/programs/XC32/v2.30/bin/bin/../../lib/gcc/pic32mx/4.8.3/../../../../pic32mx/lib/fpu64/libpic32.a(strlen.o)
 .reginfo       0x00000000       0x18 /home/programs/XC32/v2.30/bin/bin/../../lib/gcc/pic32mx/4.8.3/../../../../pic32mx/lib/fpu64/libpic32.a(strlen.o)
 .text          0x00000000        0x0 /home/programs/XC32/v2.30/bin/bin/../../lib/gcc/pic32mx/4.8.3/../../../../pic32mx/lib/fpu64/libpic32.a(default-bootstrap-exception-handler.o)
 .data          0x00000000        0x0 /home/programs/XC32/v2.30/bin/bin/../../lib/gcc/pic32mx/4.8.3/../../../../pic32mx/lib/fpu64/libpic32.a(default-bootstrap-exception-handler.o)
 .bss           0x00000000        0x0 /home/programs/XC32/v2.30/bin/bin/../../lib/gcc/pic32mx/4.8.3/../../../../pic32mx/lib/fpu64/libpic32.a(default-bootstrap-exception-handler.o)
 .reginfo       0x00000000       0x18 /home/programs/XC32/v2.30/bin/bin/../../lib/gcc/pic32mx/4.8.3/../../../../pic32mx/lib/fpu64/libpic32.a(default-bootstrap-exception-handler.o)
 .text          0x00000000        0x0 /home/programs/XC32/v2.30/bin/bin/../../lib/gcc/pic32mx/4.8.3/../../../../pic32mx/lib/fpu64/libpic32.a(default-on-reset.o)
 .data          0x00000000        0x0 /home/programs/XC32/v2.30/bin/bin/../../lib/gcc/pic32mx/4.8.3/../../../../pic32mx/lib/fpu64/libpic32.a(default-on-reset.o)
 .bss           0x00000000        0x0 /home/programs/XC32/v2.30/bin/bin/../../lib/gcc/pic32mx/4.8.3/../../../../pic32mx/lib/fpu64/libpic32.a(default-on-reset.o)
 .reginfo       0x00000000       0x18 /home/programs/XC32/v2.30/bin/bin/../../lib/gcc/pic32mx/4.8.3/../../../../pic32mx/lib/fpu64/libpic32.a(default-on-reset.o)
 .text          0x00000000        0x0 /home/programs/XC32/v2.30/bin/bin/../../lib/gcc/pic32mx/4.8.3/../../../../pic32mx/lib/fpu64/libpic32.a(default-on-bootstrap.o)
 .data          0x00000000        0x0 /home/programs/XC32/v2.30/bin/bin/../../lib/gcc/pic32mx/4.8.3/../../../../pic32mx/lib/fpu64/libpic32.a(default-on-bootstrap.o)
 .bss           0x00000000        0x0 /home/programs/XC32/v2.30/bin/bin/../../lib/gcc/pic32mx/4.8.3/../../../../pic32mx/lib/fpu64/libpic32.a(default-on-bootstrap.o)
 .reginfo       0x00000000       0x18 /home/programs/XC32/v2.30/bin/bin/../../lib/gcc/pic32mx/4.8.3/../../../../pic32mx/lib/fpu64/libpic32.a(default-on-bootstrap.o)
 .data          0x00000000        0x0 /home/programs/XC32/v2.30/bin/bin/../../lib/gcc/pic32mx/4.8.3/../../../../pic32mx/lib/fpu64/libpic32.a(default-nmi-handler.o)
 .bss           0x00000000        0x0 /home/programs/XC32/v2.30/bin/bin/../../lib/gcc/pic32mx/4.8.3/../../../../pic32mx/lib/fpu64/libpic32.a(default-nmi-handler.o)
 .reginfo       0x00000000       0x18 /home/programs/XC32/v2.30/bin/bin/../../lib/gcc/pic32mx/4.8.3/../../../../pic32mx/lib/fpu64/libpic32.a(default-nmi-handler.o)
 .data          0x00000000        0x0 /home/programs/XC32/v2.30/bin/bin/../../lib/gcc/pic32mx/4.8.3/../../../../pic32mx/lib/fpu64/libpic32.a(pic32_data_init.o)
 .bss           0x00000000        0x0 /home/programs/XC32/v2.30/bin/bin/../../lib/gcc/pic32mx/4.8.3/../../../../pic32mx/lib/fpu64/libpic32.a(pic32_data_init.o)
 .reginfo       0x00000000       0x18 /home/programs/XC32/v2.30/bin/bin/../../lib/gcc/pic32mx/4.8.3/../../../../pic32mx/lib/fpu64/libpic32.a(pic32_data_init.o)
 .text          0x00000000        0x0 /home/programs/XC32/v2.30/bin/bin/../../lib/gcc/pic32mx/4.8.3/../../../../pic32mx/lib/fpu64/libpic32.a(pic32_init_cache.o)
 .data          0x00000000        0x0 /home/programs/XC32/v2.30/bin/bin/../../lib/gcc/pic32mx/4.8.3/../../../../pic32mx/lib/fpu64/libpic32.a(pic32_init_cache.o)
 .bss           0x00000000        0x0 /home/programs/XC32/v2.30/bin/bin/../../lib/gcc/pic32mx/4.8.3/../../../../pic32mx/lib/fpu64/libpic32.a(pic32_init_cache.o)
 .reginfo       0x00000000       0x18 /home/programs/XC32/v2.30/bin/bin/../../lib/gcc/pic32mx/4.8.3/../../../../pic32mx/lib/fpu64/libpic32.a(pic32_init_cache.o)
 .cache_init.pic32_size_cache
                0x00000000       0x58 /home/programs/XC32/v2.30/bin/bin/../../lib/gcc/pic32mx/4.8.3/../../../../pic32mx/lib/fpu64/libpic32.a(pic32_init_cache.o)
 .text          0x00000000        0x0 /home/programs/XC32/v2.30/bin/bin/../../lib/gcc/pic32mx/4.8.3/../../../../pic32mx/lib/fpu64/libpic32.a(pic32_init_tlb_ebi_sqi.o)
 .data          0x00000000        0x0 /home/programs/XC32/v2.30/bin/bin/../../lib/gcc/pic32mx/4.8.3/../../../../pic32mx/lib/fpu64/libpic32.a(pic32_init_tlb_ebi_sqi.o)
 .bss           0x00000000        0x0 /home/programs/XC32/v2.30/bin/bin/../../lib/gcc/pic32mx/4.8.3/../../../../pic32mx/lib/fpu64/libpic32.a(pic32_init_tlb_ebi_sqi.o)
 .reginfo       0x00000000       0x18 /home/programs/XC32/v2.30/bin/bin/../../lib/gcc/pic32mx/4.8.3/../../../../pic32mx/lib/fpu64/libpic32.a(pic32_init_tlb_ebi_sqi.o)
 .text          0x00000000        0x0 /home/programs/XC32/v2.30/bin/bin/../../lib/gcc/pic32mx/4.8.3/../../../../pic32mx/lib/fpu64/libpic32.a(general-exception.o)
 .data          0x00000000        0x0 /home/programs/XC32/v2.30/bin/bin/../../lib/gcc/pic32mx/4.8.3/../../../../pic32mx/lib/fpu64/libpic32.a(general-exception.o)
 .bss           0x00000000        0x0 /home/programs/XC32/v2.30/bin/bin/../../lib/gcc/pic32mx/4.8.3/../../../../pic32mx/lib/fpu64/libpic32.a(general-exception.o)
 .reginfo       0x00000000       0x18 /home/programs/XC32/v2.30/bin/bin/../../lib/gcc/pic32mx/4.8.3/../../../../pic32mx/lib/fpu64/libpic32.a(general-exception.o)
 .text          0x00000000        0x0 /home/programs/XC32/v2.30/bin/bin/../../lib/gcc/pic32mx/4.8.3/../../../../pic32mx/lib/fpu64/libpic32.a(cache-err-exception.o)
 .data          0x00000000        0x0 /home/programs/XC32/v2.30/bin/bin/../../lib/gcc/pic32mx/4.8.3/../../../../pic32mx/lib/fpu64/libpic32.a(cache-err-exception.o)
 .bss           0x00000000        0x0 /home/programs/XC32/v2.30/bin/bin/../../lib/gcc/pic32mx/4.8.3/../../../../pic32mx/lib/fpu64/libpic32.a(cache-err-exception.o)
 .reginfo       0x00000000       0x18 /home/programs/XC32/v2.30/bin/bin/../../lib/gcc/pic32mx/4.8.3/../../../../pic32mx/lib/fpu64/libpic32.a(cache-err-exception.o)
 .text          0x00000000        0x0 /home/programs/XC32/v2.30/bin/bin/../../lib/gcc/pic32mx/4.8.3/../../../../pic32mx/lib/fpu64/libpic32.a(simple-tlb-refill-exception.o)
 .data          0x00000000        0x0 /home/programs/XC32/v2.30/bin/bin/../../lib/gcc/pic32mx/4.8.3/../../../../pic32mx/lib/fpu64/libpic32.a(simple-tlb-refill-exception.o)
 .bss           0x00000000        0x0 /home/programs/XC32/v2.30/bin/bin/../../lib/gcc/pic32mx/4.8.3/../../../../pic32mx/lib/fpu64/libpic32.a(simple-tlb-refill-exception.o)
 .reginfo       0x00000000       0x18 /home/programs/XC32/v2.30/bin/bin/../../lib/gcc/pic32mx/4.8.3/../../../../pic32mx/lib/fpu64/libpic32.a(simple-tlb-refill-exception.o)
 .text          0x00000000        0x0 /home/programs/XC32/v2.30/bin/bin/../../lib/gcc/pic32mx/4.8.3/../../../../pic32mx/lib/fpu64/libpic32.a(defaultinterrupt.o)
 .data          0x00000000        0x0 /home/programs/XC32/v2.30/bin/bin/../../lib/gcc/pic32mx/4.8.3/../../../../pic32mx/lib/fpu64/libpic32.a(defaultinterrupt.o)
 .bss           0x00000000        0x0 /home/programs/XC32/v2.30/bin/bin/../../lib/gcc/pic32mx/4.8.3/../../../../pic32mx/lib/fpu64/libpic32.a(defaultinterrupt.o)
 .reginfo       0x00000000       0x18 /home/programs/XC32/v2.30/bin/bin/../../lib/gcc/pic32mx/4.8.3/../../../../pic32mx/lib/fpu64/libpic32.a(defaultinterrupt.o)
 .text          0x00000000        0x0 /home/programs/XC32/v2.30/bin/bin/../../lib/gcc/pic32mx/4.8.3/../../../../pic32mx/lib/fpu64/libpic32.a(default-general-exception-handler.o)
 .data          0x00000000        0x0 /home/programs/XC32/v2.30/bin/bin/../../lib/gcc/pic32mx/4.8.3/../../../../pic32mx/lib/fpu64/libpic32.a(default-general-exception-handler.o)
 .bss           0x00000000        0x0 /home/programs/XC32/v2.30/bin/bin/../../lib/gcc/pic32mx/4.8.3/../../../../pic32mx/lib/fpu64/libpic32.a(default-general-exception-handler.o)
 .reginfo       0x00000000       0x18 /home/programs/XC32/v2.30/bin/bin/../../lib/gcc/pic32mx/4.8.3/../../../../pic32mx/lib/fpu64/libpic32.a(default-general-exception-handler.o)
 .text          0x00000000        0x0 /home/programs/XC32/v2.30/bin/bin/../../lib/gcc/pic32mx/4.8.3/../../../../pic32mx/lib/fpu64/libpic32.a(default-cache-err-exception-handler.o)
 .data          0x00000000        0x0 /home/programs/XC32/v2.30/bin/bin/../../lib/gcc/pic32mx/4.8.3/../../../../pic32mx/lib/fpu64/libpic32.a(default-cache-err-exception-handler.o)
 .bss           0x00000000        0x0 /home/programs/XC32/v2.30/bin/bin/../../lib/gcc/pic32mx/4.8.3/../../../../pic32mx/lib/fpu64/libpic32.a(default-cache-err-exception-handler.o)
 .reginfo       0x00000000       0x18 /home/programs/XC32/v2.30/bin/bin/../../lib/gcc/pic32mx/4.8.3/../../../../pic32mx/lib/fpu64/libpic32.a(default-cache-err-exception-handler.o)
 .text          0x00000000        0x0 /home/programs/XC32/v2.30/bin/bin/../../lib/gcc/pic32mx/4.8.3/../../../../pic32mx/lib/fpu64/libpic32.a(default-simple-tlb-refill-exception-handler.o)
 .data          0x00000000        0x0 /home/programs/XC32/v2.30/bin/bin/../../lib/gcc/pic32mx/4.8.3/../../../../pic32mx/lib/fpu64/libpic32.a(default-simple-tlb-refill-exception-handler.o)
 .bss           0x00000000        0x0 /home/programs/XC32/v2.30/bin/bin/../../lib/gcc/pic32mx/4.8.3/../../../../pic32mx/lib/fpu64/libpic32.a(default-simple-tlb-refill-exception-handler.o)
 .reginfo       0x00000000       0x18 /home/programs/XC32/v2.30/bin/bin/../../lib/gcc/pic32mx/4.8.3/../../../../pic32mx/lib/fpu64/libpic32.a(default-simple-tlb-refill-exception-handler.o)
 .text          0x00000000        0x0 /home/programs/XC32/v2.30/bin/bin/../../lib/gcc/pic32mx/4.8.3/../../../../pic32mx/lib/fpu64/libc.a(_iob.o)
 .reginfo       0x00000000       0x18 /home/programs/XC32/v2.30/bin/bin/../../lib/gcc/pic32mx/4.8.3/../../../../pic32mx/lib/fpu64/libc.a(_iob.o)
 .text          0x00000000        0x0 /home/programs/XC32/v2.30/bin/bin/../../lib/gcc/pic32mx/4.8.3/../../../../pic32mx/lib/fpu64/libc.a(fwrite.o)
 .data          0x00000000        0x0 /home/programs/XC32/v2.30/bin/bin/../../lib/gcc/pic32mx/4.8.3/../../../../pic32mx/lib/fpu64/libc.a(fwrite.o)
 .bss           0x00000000        0x0 /home/programs/XC32/v2.30/bin/bin/../../lib/gcc/pic32mx/4.8.3/../../../../pic32mx/lib/fpu64/libc.a(fwrite.o)
 .reginfo       0x00000000       0x18 /home/programs/XC32/v2.30/bin/bin/../../lib/gcc/pic32mx/4.8.3/../../../../pic32mx/lib/fpu64/libc.a(fwrite.o)
 .text          0x00000000        0x0 /home/programs/XC32/v2.30/bin/bin/../../lib/gcc/pic32mx/4.8.3/../../../../pic32mx/lib/fpu64/libc.a(atoi.o)
 .data          0x00000000        0x0 /home/programs/XC32/v2.30/bin/bin/../../lib/gcc/pic32mx/4.8.3/../../../../pic32mx/lib/fpu64/libc.a(atoi.o)
 .bss           0x00000000        0x0 /home/programs/XC32/v2.30/bin/bin/../../lib/gcc/pic32mx/4.8.3/../../../../pic32mx/lib/fpu64/libc.a(atoi.o)
 .reginfo       0x00000000       0x18 /home/programs/XC32/v2.30/bin/bin/../../lib/gcc/pic32mx/4.8.3/../../../../pic32mx/lib/fpu64/libc.a(atoi.o)
 .text          0x00000000        0x0 /home/programs/XC32/v2.30/bin/bin/../../lib/gcc/pic32mx/4.8.3/../../../../pic32mx/lib/fpu64/libc.a(ctype.o)
 .data          0x00000000        0x0 /home/programs/XC32/v2.30/bin/bin/../../lib/gcc/pic32mx/4.8.3/../../../../pic32mx/lib/fpu64/libc.a(ctype.o)
 .bss           0x00000000        0x0 /home/programs/XC32/v2.30/bin/bin/../../lib/gcc/pic32mx/4.8.3/../../../../pic32mx/lib/fpu64/libc.a(ctype.o)
 .reginfo       0x00000000       0x18 /home/programs/XC32/v2.30/bin/bin/../../lib/gcc/pic32mx/4.8.3/../../../../pic32mx/lib/fpu64/libc.a(ctype.o)
 .text          0x00000000        0x0 /home/programs/XC32/v2.30/bin/bin/../../lib/gcc/pic32mx/4.8.3/../../../../pic32mx/lib/fpu64/libc.a(ctypef.o)
 .data          0x00000000        0x0 /home/programs/XC32/v2.30/bin/bin/../../lib/gcc/pic32mx/4.8.3/../../../../pic32mx/lib/fpu64/libc.a(ctypef.o)
 .bss           0x00000000        0x0 /home/programs/XC32/v2.30/bin/bin/../../lib/gcc/pic32mx/4.8.3/../../../../pic32mx/lib/fpu64/libc.a(ctypef.o)
 .reginfo       0x00000000       0x18 /home/programs/XC32/v2.30/bin/bin/../../lib/gcc/pic32mx/4.8.3/../../../../pic32mx/lib/fpu64/libc.a(ctypef.o)
 .text.isalnum  0x00000000       0x18 /home/programs/XC32/v2.30/bin/bin/../../lib/gcc/pic32mx/4.8.3/../../../../pic32mx/lib/fpu64/libc.a(ctypef.o)
 .text.isalpha  0x00000000       0x18 /home/programs/XC32/v2.30/bin/bin/../../lib/gcc/pic32mx/4.8.3/../../../../pic32mx/lib/fpu64/libc.a(ctypef.o)
 .text.isascii  0x00000000        0x8 /home/programs/XC32/v2.30/bin/bin/../../lib/gcc/pic32mx/4.8.3/../../../../pic32mx/lib/fpu64/libc.a(ctypef.o)
 .text.iscntrl  0x00000000       0x18 /home/programs/XC32/v2.30/bin/bin/../../lib/gcc/pic32mx/4.8.3/../../../../pic32mx/lib/fpu64/libc.a(ctypef.o)
 .text.isdigit  0x00000000       0x18 /home/programs/XC32/v2.30/bin/bin/../../lib/gcc/pic32mx/4.8.3/../../../../pic32mx/lib/fpu64/libc.a(ctypef.o)
 .text.isgraph  0x00000000       0x18 /home/programs/XC32/v2.30/bin/bin/../../lib/gcc/pic32mx/4.8.3/../../../../pic32mx/lib/fpu64/libc.a(ctypef.o)
 .text.islower  0x00000000       0x18 /home/programs/XC32/v2.30/bin/bin/../../lib/gcc/pic32mx/4.8.3/../../../../pic32mx/lib/fpu64/libc.a(ctypef.o)
 .text.isprint  0x00000000       0x18 /home/programs/XC32/v2.30/bin/bin/../../lib/gcc/pic32mx/4.8.3/../../../../pic32mx/lib/fpu64/libc.a(ctypef.o)
 .text.ispunct  0x00000000       0x18 /home/programs/XC32/v2.30/bin/bin/../../lib/gcc/pic32mx/4.8.3/../../../../pic32mx/lib/fpu64/libc.a(ctypef.o)
 .text.isspace  0x00000000       0x18 /home/programs/XC32/v2.30/bin/bin/../../lib/gcc/pic32mx/4.8.3/../../../../pic32mx/lib/fpu64/libc.a(ctypef.o)
 .text.isupper  0x00000000       0x18 /home/programs/XC32/v2.30/bin/bin/../../lib/gcc/pic32mx/4.8.3/../../../../pic32mx/lib/fpu64/libc.a(ctypef.o)
 .text.isxdigit
                0x00000000       0x18 /home/programs/XC32/v2.30/bin/bin/../../lib/gcc/pic32mx/4.8.3/../../../../pic32mx/lib/fpu64/libc.a(ctypef.o)
 .text.toascii  0x00000000        0x8 /home/programs/XC32/v2.30/bin/bin/../../lib/gcc/pic32mx/4.8.3/../../../../pic32mx/lib/fpu64/libc.a(ctypef.o)
 .text._tolower
                0x00000000        0x8 /home/programs/XC32/v2.30/bin/bin/../../lib/gcc/pic32mx/4.8.3/../../../../pic32mx/lib/fpu64/libc.a(ctypef.o)
 .text._toupper
                0x00000000        0x8 /home/programs/XC32/v2.30/bin/bin/../../lib/gcc/pic32mx/4.8.3/../../../../pic32mx/lib/fpu64/libc.a(ctypef.o)
 .text          0x00000000        0x0 /home/programs/XC32/v2.30/bin/bin/../../lib/gcc/pic32mx/4.8.3/../../../../pic32mx/lib/fpu64/libc.a(malloc.o)
 .data          0x00000000        0x0 /home/programs/XC32/v2.30/bin/bin/../../lib/gcc/pic32mx/4.8.3/../../../../pic32mx/lib/fpu64/libc.a(malloc.o)
 .reginfo       0x00000000       0x18 /home/programs/XC32/v2.30/bin/bin/../../lib/gcc/pic32mx/4.8.3/../../../../pic32mx/lib/fpu64/libc.a(malloc.o)
 .text.realloc  0x00000000      0x148 /home/programs/XC32/v2.30/bin/bin/../../lib/gcc/pic32mx/4.8.3/../../../../pic32mx/lib/fpu64/libc.a(malloc.o)
 .text          0x00000000        0x0 /home/programs/XC32/v2.30/bin/bin/../../lib/gcc/pic32mx/4.8.3/../../../../pic32mx/lib/fpu64/libc.a(memmove.o)
 .data          0x00000000        0x0 /home/programs/XC32/v2.30/bin/bin/../../lib/gcc/pic32mx/4.8.3/../../../../pic32mx/lib/fpu64/libc.a(memmove.o)
 .bss           0x00000000        0x0 /home/programs/XC32/v2.30/bin/bin/../../lib/gcc/pic32mx/4.8.3/../../../../pic32mx/lib/fpu64/libc.a(memmove.o)
 .reginfo       0x00000000       0x18 /home/programs/XC32/v2.30/bin/bin/../../lib/gcc/pic32mx/4.8.3/../../../../pic32mx/lib/fpu64/libc.a(memmove.o)
 .text          0x00000000        0x0 /home/programs/XC32/v2.30/bin/bin/../../lib/gcc/pic32mx/4.8.3/../../../../pic32mx/lib/fpu64/libc.a(puts.o)
 .data          0x00000000        0x0 /home/programs/XC32/v2.30/bin/bin/../../lib/gcc/pic32mx/4.8.3/../../../../pic32mx/lib/fpu64/libc.a(puts.o)
 .bss           0x00000000        0x0 /home/programs/XC32/v2.30/bin/bin/../../lib/gcc/pic32mx/4.8.3/../../../../pic32mx/lib/fpu64/libc.a(puts.o)
 .reginfo       0x00000000       0x18 /home/programs/XC32/v2.30/bin/bin/../../lib/gcc/pic32mx/4.8.3/../../../../pic32mx/lib/fpu64/libc.a(puts.o)
 .text.puts     0x00000000       0x44 /home/programs/XC32/v2.30/bin/bin/../../lib/gcc/pic32mx/4.8.3/../../../../pic32mx/lib/fpu64/libc.a(puts.o)
 .text          0x00000000        0x0 /home/programs/XC32/v2.30/bin/bin/../../lib/gcc/pic32mx/4.8.3/../../../../pic32mx/lib/fpu64/libc.a(strchr.o)
 .data          0x00000000        0x0 /home/programs/XC32/v2.30/bin/bin/../../lib/gcc/pic32mx/4.8.3/../../../../pic32mx/lib/fpu64/libc.a(strchr.o)
 .bss           0x00000000        0x0 /home/programs/XC32/v2.30/bin/bin/../../lib/gcc/pic32mx/4.8.3/../../../../pic32mx/lib/fpu64/libc.a(strchr.o)
 .reginfo       0x00000000       0x18 /home/programs/XC32/v2.30/bin/bin/../../lib/gcc/pic32mx/4.8.3/../../../../pic32mx/lib/fpu64/libc.a(strchr.o)
 .text          0x00000000        0x0 /home/programs/XC32/v2.30/bin/bin/../../lib/gcc/pic32mx/4.8.3/../../../../pic32mx/lib/fpu64/libc.a(strcasecmp.o)
 .data          0x00000000        0x0 /home/programs/XC32/v2.30/bin/bin/../../lib/gcc/pic32mx/4.8.3/../../../../pic32mx/lib/fpu64/libc.a(strcasecmp.o)
 .bss           0x00000000        0x0 /home/programs/XC32/v2.30/bin/bin/../../lib/gcc/pic32mx/4.8.3/../../../../pic32mx/lib/fpu64/libc.a(strcasecmp.o)
 .reginfo       0x00000000       0x18 /home/programs/XC32/v2.30/bin/bin/../../lib/gcc/pic32mx/4.8.3/../../../../pic32mx/lib/fpu64/libc.a(strcasecmp.o)
 .text          0x00000000        0x0 /home/programs/XC32/v2.30/bin/bin/../../lib/gcc/pic32mx/4.8.3/../../../../pic32mx/lib/fpu64/libc.a(strncasecmp.o)
 .data          0x00000000        0x0 /home/programs/XC32/v2.30/bin/bin/../../lib/gcc/pic32mx/4.8.3/../../../../pic32mx/lib/fpu64/libc.a(strncasecmp.o)
 .bss           0x00000000        0x0 /home/programs/XC32/v2.30/bin/bin/../../lib/gcc/pic32mx/4.8.3/../../../../pic32mx/lib/fpu64/libc.a(strncasecmp.o)
 .reginfo       0x00000000       0x18 /home/programs/XC32/v2.30/bin/bin/../../lib/gcc/pic32mx/4.8.3/../../../../pic32mx/lib/fpu64/libc.a(strncasecmp.o)
 .text          0x00000000        0x0 /home/programs/XC32/v2.30/bin/bin/../../lib/gcc/pic32mx/4.8.3/../../../../pic32mx/lib/fpu64/libc.a(strncat.o)
 .data          0x00000000        0x0 /home/programs/XC32/v2.30/bin/bin/../../lib/gcc/pic32mx/4.8.3/../../../../pic32mx/lib/fpu64/libc.a(strncat.o)
 .bss           0x00000000        0x0 /home/programs/XC32/v2.30/bin/bin/../../lib/gcc/pic32mx/4.8.3/../../../../pic32mx/lib/fpu64/libc.a(strncat.o)
 .reginfo       0x00000000       0x18 /home/programs/XC32/v2.30/bin/bin/../../lib/gcc/pic32mx/4.8.3/../../../../pic32mx/lib/fpu64/libc.a(strncat.o)
 .text          0x00000000        0x0 /home/programs/XC32/v2.30/bin/bin/../../lib/gcc/pic32mx/4.8.3/../../../../pic32mx/lib/fpu64/libc.a(strncmp.o)
 .data          0x00000000        0x0 /home/programs/XC32/v2.30/bin/bin/../../lib/gcc/pic32mx/4.8.3/../../../../pic32mx/lib/fpu64/libc.a(strncmp.o)
 .bss           0x00000000        0x0 /home/programs/XC32/v2.30/bin/bin/../../lib/gcc/pic32mx/4.8.3/../../../../pic32mx/lib/fpu64/libc.a(strncmp.o)
 .reginfo       0x00000000       0x18 /home/programs/XC32/v2.30/bin/bin/../../lib/gcc/pic32mx/4.8.3/../../../../pic32mx/lib/fpu64/libc.a(strncmp.o)
 .text          0x00000000        0x0 /home/programs/XC32/v2.30/bin/bin/../../lib/gcc/pic32mx/4.8.3/../../../../pic32mx/lib/fpu64/libc.a(strncpy.o)
 .data          0x00000000        0x0 /home/programs/XC32/v2.30/bin/bin/../../lib/gcc/pic32mx/4.8.3/../../../../pic32mx/lib/fpu64/libc.a(strncpy.o)
 .bss           0x00000000        0x0 /home/programs/XC32/v2.30/bin/bin/../../lib/gcc/pic32mx/4.8.3/../../../../pic32mx/lib/fpu64/libc.a(strncpy.o)
 .reginfo       0x00000000       0x18 /home/programs/XC32/v2.30/bin/bin/../../lib/gcc/pic32mx/4.8.3/../../../../pic32mx/lib/fpu64/libc.a(strncpy.o)
 .text          0x00000000        0x0 /home/programs/XC32/v2.30/bin/bin/../../lib/gcc/pic32mx/4.8.3/../../../../pic32mx/lib/fpu64/libc.a(strrchr.o)
 .data          0x00000000        0x0 /home/programs/XC32/v2.30/bin/bin/../../lib/gcc/pic32mx/4.8.3/../../../../pic32mx/lib/fpu64/libc.a(strrchr.o)
 .bss           0x00000000        0x0 /home/programs/XC32/v2.30/bin/bin/../../lib/gcc/pic32mx/4.8.3/../../../../pic32mx/lib/fpu64/libc.a(strrchr.o)
 .reginfo       0x00000000       0x18 /home/programs/XC32/v2.30/bin/bin/../../lib/gcc/pic32mx/4.8.3/../../../../pic32mx/lib/fpu64/libc.a(strrchr.o)
 .text          0x00000000        0x0 /home/programs/XC32/v2.30/bin/bin/../../lib/gcc/pic32mx/4.8.3/../../../../pic32mx/lib/fpu64/libc.a(strtok.o)
 .data          0x00000000        0x0 /home/programs/XC32/v2.30/bin/bin/../../lib/gcc/pic32mx/4.8.3/../../../../pic32mx/lib/fpu64/libc.a(strtok.o)
 .reginfo       0x00000000       0x18 /home/programs/XC32/v2.30/bin/bin/../../lib/gcc/pic32mx/4.8.3/../../../../pic32mx/lib/fpu64/libc.a(strtok.o)
 .text          0x00000000        0x0 /home/programs/XC32/v2.30/bin/bin/../../lib/gcc/pic32mx/4.8.3/../../../../pic32mx/lib/fpu64/libc.a(strtol.o)
 .data          0x00000000        0x0 /home/programs/XC32/v2.30/bin/bin/../../lib/gcc/pic32mx/4.8.3/../../../../pic32mx/lib/fpu64/libc.a(strtol.o)
 .bss           0x00000000        0x0 /home/programs/XC32/v2.30/bin/bin/../../lib/gcc/pic32mx/4.8.3/../../../../pic32mx/lib/fpu64/libc.a(strtol.o)
 .reginfo       0x00000000       0x18 /home/programs/XC32/v2.30/bin/bin/../../lib/gcc/pic32mx/4.8.3/../../../../pic32mx/lib/fpu64/libc.a(strtol.o)
 .text.strtol   0x00000000      0x19c /home/programs/XC32/v2.30/bin/bin/../../lib/gcc/pic32mx/4.8.3/../../../../pic32mx/lib/fpu64/libc.a(strtol.o)
 .text          0x00000000        0x0 /home/programs/XC32/v2.30/bin/bin/../../lib/gcc/pic32mx/4.8.3/../../../../pic32mx/lib/fpu64/libc.a(fprintf_cdnopsuxX.eo)
 .data          0x00000000        0x0 /home/programs/XC32/v2.30/bin/bin/../../lib/gcc/pic32mx/4.8.3/../../../../pic32mx/lib/fpu64/libc.a(fprintf_cdnopsuxX.eo)
 .bss           0x00000000        0x0 /home/programs/XC32/v2.30/bin/bin/../../lib/gcc/pic32mx/4.8.3/../../../../pic32mx/lib/fpu64/libc.a(fprintf_cdnopsuxX.eo)
 .reginfo       0x00000000       0x18 /home/programs/XC32/v2.30/bin/bin/../../lib/gcc/pic32mx/4.8.3/../../../../pic32mx/lib/fpu64/libc.a(fprintf_cdnopsuxX.eo)
 .text          0x00000000        0x0 /home/programs/XC32/v2.30/bin/bin/../../lib/gcc/pic32mx/4.8.3/../../../../pic32mx/lib/fpu64/libc.a(fflush.o)
 .data          0x00000000        0x0 /home/programs/XC32/v2.30/bin/bin/../../lib/gcc/pic32mx/4.8.3/../../../../pic32mx/lib/fpu64/libc.a(fflush.o)
 .bss           0x00000000        0x0 /home/programs/XC32/v2.30/bin/bin/../../lib/gcc/pic32mx/4.8.3/../../../../pic32mx/lib/fpu64/libc.a(fflush.o)
 .reginfo       0x00000000       0x18 /home/programs/XC32/v2.30/bin/bin/../../lib/gcc/pic32mx/4.8.3/../../../../pic32mx/lib/fpu64/libc.a(fflush.o)
 .text          0x00000000        0x0 /home/programs/XC32/v2.30/bin/bin/../../lib/gcc/pic32mx/4.8.3/../../../../pic32mx/lib/fpu64/libc.a(fseek.o)
 .data          0x00000000        0x0 /home/programs/XC32/v2.30/bin/bin/../../lib/gcc/pic32mx/4.8.3/../../../../pic32mx/lib/fpu64/libc.a(fseek.o)
 .bss           0x00000000        0x0 /home/programs/XC32/v2.30/bin/bin/../../lib/gcc/pic32mx/4.8.3/../../../../pic32mx/lib/fpu64/libc.a(fseek.o)
 .reginfo       0x00000000       0x18 /home/programs/XC32/v2.30/bin/bin/../../lib/gcc/pic32mx/4.8.3/../../../../pic32mx/lib/fpu64/libc.a(fseek.o)
 .text          0x00000000        0x0 /home/programs/XC32/v2.30/bin/bin/../../lib/gcc/pic32mx/4.8.3/../../../../pic32mx/lib/fpu64/libc.a(errno.o)
 .data          0x00000000        0x0 /home/programs/XC32/v2.30/bin/bin/../../lib/gcc/pic32mx/4.8.3/../../../../pic32mx/lib/fpu64/libc.a(errno.o)
 .bss           0x00000000        0x0 /home/programs/XC32/v2.30/bin/bin/../../lib/gcc/pic32mx/4.8.3/../../../../pic32mx/lib/fpu64/libc.a(errno.o)
 .reginfo       0x00000000       0x18 /home/programs/XC32/v2.30/bin/bin/../../lib/gcc/pic32mx/4.8.3/../../../../pic32mx/lib/fpu64/libc.a(errno.o)
 .text          0x00000000        0x0 /home/programs/XC32/v2.30/bin/bin/../../lib/gcc/pic32mx/4.8.3/../../../../pic32mx/lib/fpu64/libc.a(strcspn.o)
 .data          0x00000000        0x0 /home/programs/XC32/v2.30/bin/bin/../../lib/gcc/pic32mx/4.8.3/../../../../pic32mx/lib/fpu64/libc.a(strcspn.o)
 .bss           0x00000000        0x0 /home/programs/XC32/v2.30/bin/bin/../../lib/gcc/pic32mx/4.8.3/../../../../pic32mx/lib/fpu64/libc.a(strcspn.o)
 .reginfo       0x00000000       0x18 /home/programs/XC32/v2.30/bin/bin/../../lib/gcc/pic32mx/4.8.3/../../../../pic32mx/lib/fpu64/libc.a(strcspn.o)
 .text          0x00000000        0x0 /home/programs/XC32/v2.30/bin/bin/../../lib/gcc/pic32mx/4.8.3/../../../../pic32mx/lib/fpu64/libc.a(strspn.o)
 .data          0x00000000        0x0 /home/programs/XC32/v2.30/bin/bin/../../lib/gcc/pic32mx/4.8.3/../../../../pic32mx/lib/fpu64/libc.a(strspn.o)
 .bss           0x00000000        0x0 /home/programs/XC32/v2.30/bin/bin/../../lib/gcc/pic32mx/4.8.3/../../../../pic32mx/lib/fpu64/libc.a(strspn.o)
 .reginfo       0x00000000       0x18 /home/programs/XC32/v2.30/bin/bin/../../lib/gcc/pic32mx/4.8.3/../../../../pic32mx/lib/fpu64/libc.a(strspn.o)
 .text          0x00000000        0x0 /home/programs/XC32/v2.30/bin/bin/../../lib/gcc/pic32mx/4.8.3/../../../../pic32mx/lib/fpu64/libc.a(doprnt_cdnopsuxX.eo)
 .data          0x00000000        0x0 /home/programs/XC32/v2.30/bin/bin/../../lib/gcc/pic32mx/4.8.3/../../../../pic32mx/lib/fpu64/libc.a(doprnt_cdnopsuxX.eo)
 .bss           0x00000000        0x0 /home/programs/XC32/v2.30/bin/bin/../../lib/gcc/pic32mx/4.8.3/../../../../pic32mx/lib/fpu64/libc.a(doprnt_cdnopsuxX.eo)
 .reginfo       0x00000000       0x18 /home/programs/XC32/v2.30/bin/bin/../../lib/gcc/pic32mx/4.8.3/../../../../pic32mx/lib/fpu64/libc.a(doprnt_cdnopsuxX.eo)
 .data          0x00000000        0x0 /home/programs/XC32/v2.30/bin/bin/../../lib/gcc/pic32mx/4.8.3/fpu64/libgcc.a(_udivdi3.o)
 .bss           0x00000000        0x0 /home/programs/XC32/v2.30/bin/bin/../../lib/gcc/pic32mx/4.8.3/fpu64/libgcc.a(_udivdi3.o)
 .reginfo       0x00000000       0x18 /home/programs/XC32/v2.30/bin/bin/../../lib/gcc/pic32mx/4.8.3/fpu64/libgcc.a(_udivdi3.o)
 .data          0x00000000        0x0 /home/programs/XC32/v2.30/bin/bin/../../lib/gcc/pic32mx/4.8.3/fpu64/libgcc.a(_umoddi3.o)
 .bss           0x00000000        0x0 /home/programs/XC32/v2.30/bin/bin/../../lib/gcc/pic32mx/4.8.3/fpu64/libgcc.a(_umoddi3.o)
 .reginfo       0x00000000       0x18 /home/programs/XC32/v2.30/bin/bin/../../lib/gcc/pic32mx/4.8.3/fpu64/libgcc.a(_umoddi3.o)
 .text          0x00000000        0x0 /home/programs/XC32/v2.30/bin/bin/../../lib/gcc/pic32mx/4.8.3/../../../../pic32mx/lib/fpu64/libpic32.a(sbrk.o)
 .data          0x00000000        0x0 /home/programs/XC32/v2.30/bin/bin/../../lib/gcc/pic32mx/4.8.3/../../../../pic32mx/lib/fpu64/libpic32.a(sbrk.o)
 .reginfo       0x00000000       0x18 /home/programs/XC32/v2.30/bin/bin/../../lib/gcc/pic32mx/4.8.3/../../../../pic32mx/lib/fpu64/libpic32.a(sbrk.o)
 .text.getpagesize
                0x00000000        0x8 /home/programs/XC32/v2.30/bin/bin/../../lib/gcc/pic32mx/4.8.3/../../../../pic32mx/lib/fpu64/libpic32.a(sbrk.o)
 .text          0x00000000        0x0 /home/programs/XC32/v2.30/bin/bin/../../lib/gcc/pic32mx/4.8.3/../../../../pic32mx/lib/fpu64/libpic32.a(write.o)
 .data          0x00000000        0x0 /home/programs/XC32/v2.30/bin/bin/../../lib/gcc/pic32mx/4.8.3/../../../../pic32mx/lib/fpu64/libpic32.a(write.o)
 .bss           0x00000000        0x0 /home/programs/XC32/v2.30/bin/bin/../../lib/gcc/pic32mx/4.8.3/../../../../pic32mx/lib/fpu64/libpic32.a(write.o)
 .reginfo       0x00000000       0x18 /home/programs/XC32/v2.30/bin/bin/../../lib/gcc/pic32mx/4.8.3/../../../../pic32mx/lib/fpu64/libpic32.a(write.o)
 .text          0x00000000        0x0 /home/programs/XC32/v2.30/bin/bin/../../lib/gcc/pic32mx/4.8.3/../../../../pic32mx/lib/fpu64/libpic32.a(lseek.o)
 .data          0x00000000        0x0 /home/programs/XC32/v2.30/bin/bin/../../lib/gcc/pic32mx/4.8.3/../../../../pic32mx/lib/fpu64/libpic32.a(lseek.o)
 .bss           0x00000000        0x0 /home/programs/XC32/v2.30/bin/bin/../../lib/gcc/pic32mx/4.8.3/../../../../pic32mx/lib/fpu64/libpic32.a(lseek.o)
 .reginfo       0x00000000       0x18 /home/programs/XC32/v2.30/bin/bin/../../lib/gcc/pic32mx/4.8.3/../../../../pic32mx/lib/fpu64/libpic32.a(lseek.o)
 .text          0x00000000        0x0 /home/programs/XC32/v2.30/bin/bin/../../lib/gcc/pic32mx/4.8.3/../../../../pic32mx/lib/fpu64/libpic32.a(_mon_putc.o)
 .data          0x00000000        0x0 /home/programs/XC32/v2.30/bin/bin/../../lib/gcc/pic32mx/4.8.3/../../../../pic32mx/lib/fpu64/libpic32.a(_mon_putc.o)
 .bss           0x00000000        0x0 /home/programs/XC32/v2.30/bin/bin/../../lib/gcc/pic32mx/4.8.3/../../../../pic32mx/lib/fpu64/libpic32.a(_mon_putc.o)
 .reginfo       0x00000000       0x18 /home/programs/XC32/v2.30/bin/bin/../../lib/gcc/pic32mx/4.8.3/../../../../pic32mx/lib/fpu64/libpic32.a(_mon_putc.o)
 .text          0x00000000        0x0 /home/programs/XC32/v2.30/bin/bin/../../lib/gcc/pic32mx/4.8.3/../../../../pic32mx/lib/fpu64/libpic32.a(xc32_uart.o)
 .data          0x00000000        0x0 /home/programs/XC32/v2.30/bin/bin/../../lib/gcc/pic32mx/4.8.3/../../../../pic32mx/lib/fpu64/libpic32.a(xc32_uart.o)
 .bss           0x00000000        0x0 /home/programs/XC32/v2.30/bin/bin/../../lib/gcc/pic32mx/4.8.3/../../../../pic32mx/lib/fpu64/libpic32.a(xc32_uart.o)
 .reginfo       0x00000000       0x18 /home/programs/XC32/v2.30/bin/bin/../../lib/gcc/pic32mx/4.8.3/../../../../pic32mx/lib/fpu64/libpic32.a(xc32_uart.o)

Memory Configuration

Name             Origin             Length             Attributes
kseg0_program_mem 0x9d000000         0x00200000         xr
kseg0_boot_mem   0x9fc004b0         0x00000000
kseg1_boot_mem   0xbfc00000         0x00000480
kseg1_boot_mem_4B0 0xbfc004b0         0x0000fa50
config_BFC0FF40  0xbfc0ff40         0x00000004
config_BFC0FF44  0xbfc0ff44         0x00000004
config_BFC0FF48  0xbfc0ff48         0x00000004
config_BFC0FF4C  0xbfc0ff4c         0x00000004
config_BFC0FF50  0xbfc0ff50         0x00000004
config_BFC0FF54  0xbfc0ff54         0x00000004
config_BFC0FF58  0xbfc0ff58         0x00000004
config_BFC0FF5C  0xbfc0ff5c         0x00000004
config_BFC0FF60  0xbfc0ff60         0x00000004
config_BFC0FF64  0xbfc0ff64         0x00000004
config_BFC0FF68  0xbfc0ff68         0x00000004
config_BFC0FF6C  0xbfc0ff6c         0x00000004
config_BFC0FF70  0xbfc0ff70         0x00000004
config_BFC0FF74  0xbfc0ff74         0x00000004
config_BFC0FF78  0xbfc0ff78         0x00000004
config_BFC0FF7C  0xbfc0ff7c         0x00000004
config_BFC0FFC0  0xbfc0ffc0         0x00000004
config_BFC0FFC4  0xbfc0ffc4         0x00000004
config_BFC0FFC8  0xbfc0ffc8         0x00000004
config_BFC0FFCC  0xbfc0ffcc         0x00000004
config_BFC0FFD0  0xbfc0ffd0         0x00000004
config_BFC0FFD4  0xbfc0ffd4         0x00000004
config_BFC0FFD8  0xbfc0ffd8         0x00000004
config_BFC0FFDC  0xbfc0ffdc         0x00000004
config_BFC0FFE0  0xbfc0ffe0         0x00000004
config_BFC0FFE4  0xbfc0ffe4         0x00000004
config_BFC0FFE8  0xbfc0ffe8         0x00000004
config_BFC0FFEC  0xbfc0ffec         0x00000004
config_BFC0FFF0  0xbfc0fff0         0x00000004
config_BFC0FFF4  0xbfc0fff4         0x00000004
config_BFC0FFF8  0xbfc0fff8         0x00000004
config_BFC0FFFC  0xbfc0fffc         0x00000004
lowerbootaliaslastpage 0xbfc10000         0x00004000
upperbootalias   0xbfc20000         0x0000ff00
config_BFC2FF40  0xbfc2ff40         0x00000004
config_BFC2FF44  0xbfc2ff44         0x00000004
config_BFC2FF48  0xbfc2ff48         0x00000004
config_BFC2FF4C  0xbfc2ff4c         0x00000004
config_BFC2FF50  0xbfc2ff50         0x00000004
config_BFC2FF54  0xbfc2ff54         0x00000004
config_BFC2FF58  0xbfc2ff58         0x00000004
config_BFC2FF5C  0xbfc2ff5c         0x00000004
config_BFC2FF60  0xbfc2ff60         0x00000004
config_BFC2FF64  0xbfc2ff64         0x00000004
config_BFC2FF68  0xbfc2ff68         0x00000004
config_BFC2FF6C  0xbfc2ff6c         0x00000004
config_BFC2FF70  0xbfc2ff70         0x00000004
config_BFC2FF74  0xbfc2ff74         0x00000004
config_BFC2FF78  0xbfc2ff78         0x00000004
config_BFC2FF7C  0xbfc2ff7c         0x00000004
config_BFC2FFC0  0xbfc2ffc0         0x00000004
config_BFC2FFC4  0xbfc2ffc4         0x00000004
config_BFC2FFC8  0xbfc2ffc8         0x00000004
config_BFC2FFCC  0xbfc2ffcc         0x00000004
config_BFC2FFD0  0xbfc2ffd0         0x00000004
config_BFC2FFD4  0xbfc2ffd4         0x00000004
config_BFC2FFD8  0xbfc2ffd8         0x00000004
config_BFC2FFDC  0xbfc2ffdc         0x00000004
config_BFC2FFE0  0xbfc2ffe0         0x00000004
config_BFC2FFE4  0xbfc2ffe4         0x00000004
config_BFC2FFE8  0xbfc2ffe8         0x00000004
config_BFC2FFEC  0xbfc2ffec         0x00000004
config_BFC2FFF0  0xbfc2fff0         0x00000004
config_BFC2FFF4  0xbfc2fff4         0x00000004
config_BFC2FFF8  0xbfc2fff8         0x00000004
config_BFC2FFFC  0xbfc2fffc         0x00000004
upperbootaliaslastpage 0xbfc30000         0x00004000
boot1            0xbfc40000         0x0000ff00
config_BFC4FF40  0xbfc4ff40         0x00000004
config_BFC4FF44  0xbfc4ff44         0x00000004
config_BFC4FF48  0xbfc4ff48         0x00000004
config_BFC4FF4C  0xbfc4ff4c         0x00000004
config_BFC4FF50  0xbfc4ff50         0x00000004
config_BFC4FF54  0xbfc4ff54         0x00000004
config_BFC4FF58  0xbfc4ff58         0x00000004
config_BFC4FF5C  0xbfc4ff5c         0x00000004
config_BFC4FF60  0xbfc4ff60         0x00000004
config_BFC4FF64  0xbfc4ff64         0x00000004
config_BFC4FF68  0xbfc4ff68         0x00000004
config_BFC4FF6C  0xbfc4ff6c         0x00000004
config_BFC4FF70  0xbfc4ff70         0x00000004
config_BFC4FF74  0xbfc4ff74         0x00000004
config_BFC4FF78  0xbfc4ff78         0x00000004
config_BFC4FF7C  0xbfc4ff7c         0x00000004
config_BFC4FFC0  0xbfc4ffc0         0x00000004
config_BFC4FFC4  0xbfc4ffc4         0x00000004
config_BFC4FFC8  0xbfc4ffc8         0x00000004
config_BFC4FFCC  0xbfc4ffcc         0x00000004
config_BFC4FFD0  0xbfc4ffd0         0x00000004
config_BFC4FFD4  0xbfc4ffd4         0x00000004
config_BFC4FFD8  0xbfc4ffd8         0x00000004
config_BFC4FFDC  0xbfc4ffdc         0x00000004
config_BFC4FFE0  0xbfc4ffe0         0x00000004
config_BFC4FFE4  0xbfc4ffe4         0x00000004
config_BFC4FFE8  0xbfc4ffe8         0x00000004
config_BFC4FFEC  0xbfc4ffec         0x00000004
config_BFC4FFF0  0xbfc4fff0         0x00000004
config_BFC4FFF4  0xbfc4fff4         0x00000004
config_BFC4FFF8  0xbfc4fff8         0x00000004
config_BFC4FFFC  0xbfc4fffc         0x00000004
boot1lastpage    0xbfc50000         0x00004000
config_BFC54000  0xbfc54000         0x00000004
config_BFC54004  0xbfc54004         0x00000004
config_BFC54008  0xbfc54008         0x00000004
config_BFC5400C  0xbfc5400c         0x00000004
config_BFC54010  0xbfc54010         0x00000004
config_BFC5401C  0xbfc5401c         0x00000004
config_BFC54020  0xbfc54020         0x00000004
config_BFC54024  0xbfc54024         0x00000004
boot2            0xbfc60000         0x0000ff00
config_BFC6FF40  0xbfc6ff40         0x00000004
config_BFC6FF44  0xbfc6ff44         0x00000004
config_BFC6FF48  0xbfc6ff48         0x00000004
config_BFC6FF4C  0xbfc6ff4c         0x00000004
config_BFC6FF50  0xbfc6ff50         0x00000004
config_BFC6FF54  0xbfc6ff54         0x00000004
config_BFC6FF58  0xbfc6ff58         0x00000004
config_BFC6FF5C  0xbfc6ff5c         0x00000004
config_BFC6FF60  0xbfc6ff60         0x00000004
config_BFC6FF64  0xbfc6ff64         0x00000004
config_BFC6FF68  0xbfc6ff68         0x00000004
config_BFC6FF6C  0xbfc6ff6c         0x00000004
config_BFC6FF70  0xbfc6ff70         0x00000004
config_BFC6FF74  0xbfc6ff74         0x00000004
config_BFC6FF78  0xbfc6ff78         0x00000004
config_BFC6FF7C  0xbfc6ff7c         0x00000004
config_BFC6FFC0  0xbfc6ffc0         0x00000004
config_BFC6FFC4  0xbfc6ffc4         0x00000004
config_BFC6FFC8  0xbfc6ffc8         0x00000004
config_BFC6FFCC  0xbfc6ffcc         0x00000004
config_BFC6FFD0  0xbfc6ffd0         0x00000004
config_BFC6FFD4  0xbfc6ffd4         0x00000004
config_BFC6FFD8  0xbfc6ffd8         0x00000004
config_BFC6FFDC  0xbfc6ffdc         0x00000004
config_BFC6FFE0  0xbfc6ffe0         0x00000004
config_BFC6FFE4  0xbfc6ffe4         0x00000004
config_BFC6FFE8  0xbfc6ffe8         0x00000004
config_BFC6FFEC  0xbfc6ffec         0x00000004
config_BFC6FFF0  0xbfc6fff0         0x00000004
config_BFC6FFF4  0xbfc6fff4         0x00000004
config_BFC6FFF8  0xbfc6fff8         0x00000004
config_BFC6FFFC  0xbfc6fffc         0x00000004
boot2lastpage    0xbfc70000         0x00004000
kseg0_data_mem   0x80000000         0x00080000         w !x
sfrs             0xbf800000         0x00100000
configsfrs_BFC0FF40 0xbfc0ff40         0x00000040
configsfrs_BFC0FFC0 0xbfc0ffc0         0x00000040
configsfrs_BFC2FF40 0xbfc2ff40         0x00000040
configsfrs_BFC2FFC0 0xbfc2ffc0         0x00000040
configsfrs_BFC4FF40 0xbfc4ff40         0x00000040
configsfrs_BFC4FFC0 0xbfc4ffc0         0x00000040
configsfrs_BFC54000 0xbfc54000         0x00000020
configsfrs_BFC6FF40 0xbfc6ff40         0x00000040
configsfrs_BFC6FFC0 0xbfc6ffc0         0x00000040
kseg2_ebi_data_mem 0xc0000000         0x04000000
kseg2_sqi_data_mem 0xd0000000         0x04000000
kseg3_ebi_data_mem 0xe0000000         0x04000000
kseg3_sqi_data_mem 0xf0000000         0x04000000
*default*        0x00000000         0xffffffff

Linker script and memory map

LOAD /home/programs/XC32/v2.30/bin/bin/../../lib/gcc/pic32mx/4.8.3/../../../../pic32mx/lib/fpu64/debug-exception-return.o
LOAD build/default/production/_ext/360186330/cpu_endian.o
LOAD build/default/production/_ext/360186330/os_port_freertos.o
LOAD build/default/production/_ext/360186330/date_time.o
LOAD build/default/production/_ext/360186330/str.o
LOAD build/default/production/_ext/360186330/path.o
LOAD build/default/production/_ext/360186330/resource_manager.o
LOAD build/default/production/_ext/120521611/md5.o
LOAD build/default/production/_ext/120521611/sha1.o
LOAD build/default/production/_ext/120521611/sha224.o
LOAD build/default/production/_ext/120521611/sha256.o
LOAD build/default/production/_ext/120521611/sha384.o
LOAD build/default/production/_ext/120521611/sha512.o
LOAD build/default/production/_ext/273211656/hmac.o
LOAD build/default/production/_ext/7005106/rc4.o
LOAD build/default/production/_ext/7005106/idea.o
LOAD build/default/production/_ext/7005106/des.o
LOAD build/default/production/_ext/7005106/des3.o
LOAD build/default/production/_ext/7005106/aes.o
LOAD build/default/production/_ext/7005106/camellia.o
LOAD build/default/production/_ext/7005106/seed.o
LOAD build/default/production/_ext/7005106/aria.o
LOAD build/default/production/_ext/1125617168/cbc.o
LOAD build/default/production/_ext/120726866/ccm.o
LOAD build/default/production/_ext/120726866/gcm.o
LOAD build/default/production/_ext/7005106/chacha.o
LOAD build/default/production/_ext/273211656/poly1305.o
LOAD build/default/production/_ext/120726866/chacha20_poly1305.o
LOAD build/default/production/_ext/273214849/dh.o
LOAD build/default/production/_ext/273214849/rsa.o
LOAD build/default/production/_ext/273214849/dsa.o
LOAD build/default/production/_ext/273204030/ec.o
LOAD build/default/production/_ext/273204030/ec_curves.o
LOAD build/default/production/_ext/273204030/ecdh.o
LOAD build/default/production/_ext/273204030/ecdsa.o
LOAD build/default/production/_ext/273204030/eddsa.o
LOAD build/default/production/_ext/273204030/curve25519.o
LOAD build/default/production/_ext/273204030/curve448.o
LOAD build/default/production/_ext/273204030/x25519.o
LOAD build/default/production/_ext/273204030/x448.o
LOAD build/default/production/_ext/273204030/ed25519.o
LOAD build/default/production/_ext/273204030/ed448.o
LOAD build/default/production/_ext/273212127/mpi.o
LOAD build/default/production/_ext/1404394810/base64.o
LOAD build/default/production/_ext/1404394810/asn1.o
LOAD build/default/production/_ext/1404394810/oid.o
LOAD build/default/production/_ext/120273967/pem_import.o
LOAD build/default/production/_ext/120273967/pkcs8_key_parse.o
LOAD build/default/production/_ext/120273967/x509_key_parse.o
LOAD build/default/production/_ext/120273967/x509_cert_parse.o
LOAD build/default/production/_ext/120273967/x509_cert_validate.o
LOAD build/default/production/_ext/120273967/x509_crl_parse.o
LOAD build/default/production/_ext/120273967/x509_crl_validate.o
LOAD build/default/production/_ext/120273967/x509_common.o
LOAD build/default/production/_ext/273209830/hkdf.o
LOAD build/default/production/_ext/273216868/yarrow.o
LOAD build/default/production/_ext/476983781/tls.o
LOAD build/default/production/_ext/476983781/tls_cipher_suites.o
LOAD build/default/production/_ext/476983781/tls_handshake.o
LOAD build/default/production/_ext/476983781/tls_client.o
LOAD build/default/production/_ext/476983781/tls_client_fsm.o
LOAD build/default/production/_ext/476983781/tls_client_extensions.o
LOAD build/default/production/_ext/476983781/tls_client_misc.o
LOAD build/default/production/_ext/476983781/tls_server.o
LOAD build/default/production/_ext/476983781/tls_server_fsm.o
LOAD build/default/production/_ext/476983781/tls_server_extensions.o
LOAD build/default/production/_ext/476983781/tls_server_misc.o
LOAD build/default/production/_ext/476983781/tls_common.o
LOAD build/default/production/_ext/476983781/tls_extensions.o
LOAD build/default/production/_ext/476983781/tls_certificate.o
LOAD build/default/production/_ext/476983781/tls_signature.o
LOAD build/default/production/_ext/476983781/tls_key_material.o
LOAD build/default/production/_ext/476983781/tls_transcript_hash.o
LOAD build/default/production/_ext/476983781/tls_cache.o
LOAD build/default/production/_ext/476983781/tls_ticket.o
LOAD build/default/production/_ext/476983781/tls_ffdhe.o
LOAD build/default/production/_ext/476983781/tls_record.o
LOAD build/default/production/_ext/476983781/tls_record_encryption.o
LOAD build/default/production/_ext/476983781/tls_record_decryption.o
LOAD build/default/production/_ext/476983781/tls_misc.o
LOAD build/default/production/_ext/476983781/tls13_client.o
LOAD build/default/production/_ext/476983781/tls13_client_extensions.o
LOAD build/default/production/_ext/476983781/tls13_client_misc.o
LOAD build/default/production/_ext/476983781/tls13_server.o
LOAD build/default/production/_ext/476983781/tls13_server_extensions.o
LOAD build/default/production/_ext/476983781/tls13_server_misc.o
LOAD build/default/production/_ext/476983781/tls13_common.o
LOAD build/default/production/_ext/476983781/tls13_key_material.o
LOAD build/default/production/_ext/476983781/tls13_misc.o
LOAD build/default/production/_ext/476983781/ssl_misc.o
LOAD build/default/production/_ext/1079766828/net.o
LOAD build/default/production/_ext/1079766828/net_mem.o
LOAD build/default/production/_ext/37329846/pic32mz_eth_driver.o
LOAD build/default/production/_ext/37332968/lan8720_driver.o
LOAD build/default/production/_ext/1157531022/wilc1000_driver.o
LOAD build/default/production/_ext/1079766828/nic.o
LOAD build/default/production/_ext/1079766828/ethernet.o
LOAD build/default/production/_ext/1079766828/ethernet_misc.o
LOAD build/default/production/_ext/1079587046/arp.o
LOAD build/default/production/_ext/1079587046/ipv4.o
LOAD build/default/production/_ext/1079587046/ipv4_frag.o
LOAD build/default/production/_ext/1079587046/ipv4_misc.o
LOAD build/default/production/_ext/1079587046/icmp.o
LOAD build/default/production/_ext/1079587046/igmp.o
LOAD build/default/production/_ext/1079587044/ipv6.o
LOAD build/default/production/_ext/1079587044/ipv6_frag.o
LOAD build/default/production/_ext/1079587044/ipv6_misc.o
LOAD build/default/production/_ext/1079587044/ipv6_pmtu.o
LOAD build/default/production/_ext/1079587044/icmpv6.o
LOAD build/default/production/_ext/1079587044/mld.o
LOAD build/default/production/_ext/1079587044/ndp.o
LOAD build/default/production/_ext/1079587044/ndp_cache.o
LOAD build/default/production/_ext/1079587044/ndp_misc.o
LOAD build/default/production/_ext/1079587044/ndp_router_adv.o
LOAD build/default/production/_ext/1079587044/slaac.o
LOAD build/default/production/_ext/1079766828/ip.o
LOAD build/default/production/_ext/1079766828/tcp.o
LOAD build/default/production/_ext/1079766828/tcp_fsm.o
LOAD build/default/production/_ext/1079766828/tcp_misc.o
LOAD build/default/production/_ext/1079766828/tcp_timer.o
LOAD build/default/production/_ext/1079766828/udp.o
LOAD build/default/production/_ext/1079766828/socket.o
LOAD build/default/production/_ext/1079766828/bsd_socket.o
LOAD build/default/production/_ext/1079766828/raw_socket.o
LOAD build/default/production/_ext/242264404/dns_cache.o
LOAD build/default/production/_ext/242264404/dns_client.o
LOAD build/default/production/_ext/242264404/dns_common.o
LOAD build/default/production/_ext/242264404/dns_debug.o
LOAD build/default/production/_ext/1079479599/mdns_client.o
LOAD build/default/production/_ext/1079479599/mdns_responder.o
LOAD build/default/production/_ext/1079479599/mdns_common.o
LOAD build/default/production/_ext/1435316685/nbns_client.o
LOAD build/default/production/_ext/1435316685/nbns_responder.o
LOAD build/default/production/_ext/1435316685/nbns_common.o
LOAD build/default/production/_ext/895184604/llmnr_client.o
LOAD build/default/production/_ext/895184604/llmnr_responder.o
LOAD build/default/production/_ext/895184604/llmnr_common.o
LOAD build/default/production/_ext/1079744218/dhcp_client.o
LOAD build/default/production/_ext/1079744218/dhcp_server.o
LOAD build/default/production/_ext/1079744218/dhcp_common.o
LOAD build/default/production/_ext/1079744218/dhcp_debug.o
LOAD build/default/production/_ext/1079612995/http_server.o
LOAD build/default/production/_ext/1079612995/http_server_auth.o
LOAD build/default/production/_ext/1079612995/http_server_misc.o
LOAD build/default/production/_ext/1079612995/mime.o
LOAD build/default/production/_ext/1079612995/ssi.o
LOAD build/default/production/_ext/1079466919/mqtt_client.o
LOAD build/default/production/_ext/1079466919/mqtt_client_misc.o
LOAD build/default/production/_ext/1079466919/mqtt_client_packet.o
LOAD build/default/production/_ext/1079466919/mqtt_client_transport.o
LOAD build/default/production/_ext/18976819/web_socket.o
LOAD build/default/production/_ext/18976819/web_socket_auth.o
LOAD build/default/production/_ext/18976819/web_socket_frame.o
LOAD build/default/production/_ext/18976819/web_socket_misc.o
LOAD build/default/production/_ext/18976819/web_socket_transport.o
LOAD build/default/production/_ext/1360937237/main.o
LOAD build/default/production/_ext/1360937237/debug.o
LOAD build/default/production/_ext/1360937237/sprintf.o
LOAD build/default/production/_ext/1360937237/strtok_r.o
LOAD build/default/production/_ext/1360937237/eth_irq_wrapper.o
LOAD build/default/production/_ext/1360937237/ext1_irq_wrapper.o
LOAD build/default/production/_ext/1360937237/wilc1000_callbacks.o
LOAD build/default/production/_ext/1360937237/res.o
LOAD build/default/production/_ext/23001898/port.o
LOAD build/default/production/_ext/23001898/port_asm.o
LOAD build/default/production/_ext/986256546/croutine.o
LOAD build/default/production/_ext/986256546/list.o
LOAD build/default/production/_ext/986256546/queue.o
LOAD build/default/production/_ext/986256546/tasks.o
LOAD build/default/production/_ext/986256546/timers.o
LOAD build/default/production/_ext/979089083/heap_3.o
LOAD build/default/production/_ext/457051042/nm_bsp_pic32mz.o
LOAD build/default/production/_ext/1700104339/nm_bus_wrapper_pic32mz.o
LOAD build/default/production/_ext/1185106856/nm_common.o
LOAD build/default/production/_ext/1679150795/m2m_hif.o
LOAD build/default/production/_ext/1679150795/m2m_periph.o
LOAD build/default/production/_ext/1679150795/m2m_wifi.o
LOAD build/default/production/_ext/1679150795/nmasic.o
LOAD build/default/production/_ext/1679150795/nmbus.o
LOAD build/default/production/_ext/1679150795/nmdrv.o
LOAD build/default/production/_ext/1679150795/nmspi.o
LOAD build/default/production/_ext/1679150795/spi_flash.o
LOAD build/default/production/_ext/1022178492/PMK.o
LOAD build/default/production/_ext/1640134129/m2m_wifi_ex.o
                0x00000001                __MPLAB_BUILD = 0x1
                0x00040000                _min_heap_size = 0x40000
LOAD /tmp/ccIr63g9.o
LOAD /tmp/ccp5XRh5.o
LOAD /tmp/ccccCLg5.o
LOAD /home/programs/XC32/v2.30/bin/bin/../../lib/gcc/pic32mx/4.8.3/../../../../pic32mx/lib/./proc/32MZ2048EFM100/default_isr_vectors.o
LOAD /home/programs/XC32/v2.30/bin/bin/../../lib/gcc/pic32mx/4.8.3/../../../../pic32mx/lib/fpu64/pic32_software_reset.o
                0x00000400                PROVIDE (_min_stack_size, 0x400)
START GROUP
LOAD /home/programs/XC32/v2.30/bin/bin/../../lib/gcc/pic32mx/4.8.3/../../../../pic32mx/lib/./proc/32MZ2048EFM100/processor.o
END GROUP
START GROUP
LOAD /home/programs/XC32/v2.30/bin/bin/../../lib/gcc/pic32mx/4.8.3/../../../../pic32mx/lib/./proc/32MZ2048EFM100/vector_offset_init.o
END GROUP
                0x00000001                PROVIDE (_vector_spacing, 0x1)
                0x9d000000                PROVIDE (_ebase_address, 0x9d000000)
                0xbfc00000                _RESET_ADDR = 0xbfc00000
                0xbfc00380                _BEV_EXCPT_ADDR = 0xbfc00380
                0xbfc00480                _DBG_EXCPT_ADDR = 0xbfc00480
                0x9d000000                _SIMPLE_TLB_REFILL_EXCPT_ADDR = (_ebase_address + 0x0)
                0x9d000100                _CACHE_ERR_EXCPT_ADDR = (_ebase_address + 0x100)
                0x9d000180                _GEN_EXCPT_ADDR = (_ebase_address + 0x180)

.config_BFC0FF40
 *(.config_BFC0FF40)

.config_BFC0FF44
 *(.config_BFC0FF44)

.config_BFC0FF48
 *(.config_BFC0FF48)

.config_BFC0FF4C
 *(.config_BFC0FF4C)

.config_BFC0FF50
 *(.config_BFC0FF50)

.config_BFC0FF54
 *(.config_BFC0FF54)

.config_BFC0FF58
 *(.config_BFC0FF58)

.config_BFC0FF5C
 *(.config_BFC0FF5C)

.config_BFC0FF60
 *(.config_BFC0FF60)

.config_BFC0FF64
 *(.config_BFC0FF64)

.config_BFC0FF68
 *(.config_BFC0FF68)

.config_BFC0FF6C
 *(.config_BFC0FF6C)

.config_BFC0FF70
 *(.config_BFC0FF70)

.config_BFC0FF74
 *(.config_BFC0FF74)

.config_BFC0FF78
 *(.config_BFC0FF78)

.config_BFC0FF7C
 *(.config_BFC0FF7C)

.config_BFC0FFC0
                0xbfc0ffc0        0x4
 *(.config_BFC0FFC0)
 .config_BFC0FFC0
                0xbfc0ffc0        0x4 build/default/production/_ext/1360937237/main.o

.config_BFC0FFC4
                0xbfc0ffc4        0x4
 *(.config_BFC0FFC4)
 .config_BFC0FFC4
                0xbfc0ffc4        0x4 build/default/production/_ext/1360937237/main.o

.config_BFC0FFC8
                0xbfc0ffc8        0x4
 *(.config_BFC0FFC8)
 .config_BFC0FFC8
                0xbfc0ffc8        0x4 build/default/production/_ext/1360937237/main.o

.config_BFC0FFCC
                0xbfc0ffcc        0x4
 *(.config_BFC0FFCC)
 .config_BFC0FFCC
                0xbfc0ffcc        0x4 build/default/production/_ext/1360937237/main.o

.config_BFC0FFD0
 *(.config_BFC0FFD0)

.config_BFC0FFD4
 *(.config_BFC0FFD4)

.config_BFC0FFD8
 *(.config_BFC0FFD8)

.config_BFC0FFDC
                0xbfc0ffdc        0x4
 *(.config_BFC0FFDC)
 .config_BFC0FFDC
                0xbfc0ffdc        0x4 build/default/production/_ext/1360937237/main.o

.config_BFC0FFE0
 *(.config_BFC0FFE0)

.config_BFC0FFE4
 *(.config_BFC0FFE4)

.config_BFC0FFE8
 *(.config_BFC0FFE8)

.config_BFC0FFEC
 *(.config_BFC0FFEC)

.config_BFC0FFF0
 *(.config_BFC0FFF0)

.config_BFC0FFF4
 *(.config_BFC0FFF4)

.config_BFC0FFF8
 *(.config_BFC0FFF8)

.config_BFC0FFFC
 *(.config_BFC0FFFC)

.config_BFC2FF40
 *(.config_BFC2FF40)

.config_BFC2FF44
 *(.config_BFC2FF44)

.config_BFC2FF48
 *(.config_BFC2FF48)

.config_BFC2FF4C
 *(.config_BFC2FF4C)

.config_BFC2FF50
 *(.config_BFC2FF50)

.config_BFC2FF54
 *(.config_BFC2FF54)

.config_BFC2FF58
 *(.config_BFC2FF58)

.config_BFC2FF5C
 *(.config_BFC2FF5C)

.config_BFC2FF60
 *(.config_BFC2FF60)

.config_BFC2FF64
 *(.config_BFC2FF64)

.config_BFC2FF68
 *(.config_BFC2FF68)

.config_BFC2FF6C
 *(.config_BFC2FF6C)

.config_BFC2FF70
 *(.config_BFC2FF70)

.config_BFC2FF74
 *(.config_BFC2FF74)

.config_BFC2FF78
 *(.config_BFC2FF78)

.config_BFC2FF7C
 *(.config_BFC2FF7C)

.config_BFC2FFC0
 *(.config_BFC2FFC0)

.config_BFC2FFC4
 *(.config_BFC2FFC4)

.config_BFC2FFC8
 *(.config_BFC2FFC8)

.config_BFC2FFCC
 *(.config_BFC2FFCC)

.config_BFC2FFD0
 *(.config_BFC2FFD0)

.config_BFC2FFD4
 *(.config_BFC2FFD4)

.config_BFC2FFD8
 *(.config_BFC2FFD8)

.config_BFC2FFDC
 *(.config_BFC2FFDC)

.config_BFC2FFE0
 *(.config_BFC2FFE0)

.config_BFC2FFE4
 *(.config_BFC2FFE4)

.config_BFC2FFE8
 *(.config_BFC2FFE8)

.config_BFC2FFEC
 *(.config_BFC2FFEC)

.config_BFC2FFF0
 *(.config_BFC2FFF0)

.config_BFC2FFF4
 *(.config_BFC2FFF4)

.config_BFC2FFF8
 *(.config_BFC2FFF8)

.config_BFC2FFFC
 *(.config_BFC2FFFC)

.config_BFC4FF40
 *(.config_BFC4FF40)

.config_BFC4FF44
 *(.config_BFC4FF44)

.config_BFC4FF48
 *(.config_BFC4FF48)

.config_BFC4FF4C
 *(.config_BFC4FF4C)

.config_BFC4FF50
 *(.config_BFC4FF50)

.config_BFC4FF54
 *(.config_BFC4FF54)

.config_BFC4FF58
 *(.config_BFC4FF58)

.config_BFC4FF5C
 *(.config_BFC4FF5C)

.config_BFC4FF60
 *(.config_BFC4FF60)

.config_BFC4FF64
 *(.config_BFC4FF64)

.config_BFC4FF68
 *(.config_BFC4FF68)

.config_BFC4FF6C
 *(.config_BFC4FF6C)

.config_BFC4FF70
 *(.config_BFC4FF70)

.config_BFC4FF74
 *(.config_BFC4FF74)

.config_BFC4FF78
 *(.config_BFC4FF78)

.config_BFC4FF7C
 *(.config_BFC4FF7C)

.config_BFC4FFC0
 *(.config_BFC4FFC0)

.config_BFC4FFC4
 *(.config_BFC4FFC4)

.config_BFC4FFC8
 *(.config_BFC4FFC8)

.config_BFC4FFCC
 *(.config_BFC4FFCC)

.config_BFC4FFD0
 *(.config_BFC4FFD0)

.config_BFC4FFD4
 *(.config_BFC4FFD4)

.config_BFC4FFD8
 *(.config_BFC4FFD8)

.config_BFC4FFDC
 *(.config_BFC4FFDC)

.config_BFC4FFE0
 *(.config_BFC4FFE0)

.config_BFC4FFE4
 *(.config_BFC4FFE4)

.config_BFC4FFE8
 *(.config_BFC4FFE8)

.config_BFC4FFEC
 *(.config_BFC4FFEC)

.config_BFC4FFF0
 *(.config_BFC4FFF0)

.config_BFC4FFF4
 *(.config_BFC4FFF4)

.config_BFC4FFF8
 *(.config_BFC4FFF8)

.config_BFC4FFFC
 *(.config_BFC4FFFC)

.config_BFC54000
 *(.config_BFC54000)

.config_BFC54004
 *(.config_BFC54004)

.config_BFC54008
 *(.config_BFC54008)

.config_BFC5400C
 *(.config_BFC5400C)

.config_BFC54010
 *(.config_BFC54010)

.config_BFC5401C
 *(.config_BFC5401C)

.config_BFC54020
 *(.config_BFC54020)

.config_BFC54024
 *(.config_BFC54024)

.config_BFC6FF40
 *(.config_BFC6FF40)

.config_BFC6FF44
 *(.config_BFC6FF44)

.config_BFC6FF48
 *(.config_BFC6FF48)

.config_BFC6FF4C
 *(.config_BFC6FF4C)

.config_BFC6FF50
 *(.config_BFC6FF50)

.config_BFC6FF54
 *(.config_BFC6FF54)

.config_BFC6FF58
 *(.config_BFC6FF58)

.config_BFC6FF5C
 *(.config_BFC6FF5C)

.config_BFC6FF60
 *(.config_BFC6FF60)

.config_BFC6FF64
 *(.config_BFC6FF64)

.config_BFC6FF68
 *(.config_BFC6FF68)

.config_BFC6FF6C
 *(.config_BFC6FF6C)

.config_BFC6FF70
 *(.config_BFC6FF70)

.config_BFC6FF74
 *(.config_BFC6FF74)

.config_BFC6FF78
 *(.config_BFC6FF78)

.config_BFC6FF7C
 *(.config_BFC6FF7C)

.config_BFC6FFC0
 *(.config_BFC6FFC0)

.config_BFC6FFC4
 *(.config_BFC6FFC4)

.config_BFC6FFC8
 *(.config_BFC6FFC8)

.config_BFC6FFCC
 *(.config_BFC6FFCC)

.config_BFC6FFD0
 *(.config_BFC6FFD0)

.config_BFC6FFD4
 *(.config_BFC6FFD4)

.config_BFC6FFD8
 *(.config_BFC6FFD8)

.config_BFC6FFDC
 *(.config_BFC6FFDC)

.config_BFC6FFE0
 *(.config_BFC6FFE0)

.config_BFC6FFE4
 *(.config_BFC6FFE4)

.config_BFC6FFE8
 *(.config_BFC6FFE8)

.config_BFC6FFEC
 *(.config_BFC6FFEC)

.config_BFC6FFF0
 *(.config_BFC6FFF0)

.config_BFC6FFF4
 *(.config_BFC6FFF4)

.config_BFC6FFF8
 *(.config_BFC6FFF8)

.config_BFC6FFFC
 *(.config_BFC6FFFC)

.reset          0xbfc00000      0x1b4
 *(.reset)
 .reset         0xbfc00000       0x18 /tmp/ccIr63g9.o
                0xbfc00000                _reset
 *(.reset.startup)
 .reset.startup
                0xbfc00018      0x19c /tmp/ccIr63g9.o
                0xbfc00018                _startup

.bev_excpt      0xbfc00380       0x10
 *(.bev_handler)
 .bev_handler   0xbfc00380       0x10 /tmp/ccIr63g9.o

.cache_init     0xbfc004b0      0x1c0
 *(.cache_init)
 *(.cache_init.*)
 .cache_init.cache
                0xbfc004b0       0xc0 /home/programs/XC32/v2.30/bin/bin/../../lib/gcc/pic32mx/4.8.3/../../../../pic32mx/lib/fpu64/libpic32.a(pic32_init_cache.o)
 .cache_init.pic32_init_cache
                0xbfc00570      0x100 /home/programs/XC32/v2.30/bin/bin/../../lib/gcc/pic32mx/4.8.3/../../../../pic32mx/lib/fpu64/libpic32.a(pic32_init_cache.o)
                0xbfc00570                __pic32_init_cache

.simple_tlb_refill_excpt
                0x9d000000       0x10
 *(.simple_tlb_refill_vector)
 .simple_tlb_refill_vector
                0x9d000000       0x10 /tmp/ccIr63g9.o

.cache_err_excpt
                0x9d000100       0x10
 *(.cache_err_vector)
 .cache_err_vector
                0x9d000100       0x10 /tmp/ccIr63g9.o

.app_excpt      0x9d000180       0x10
 *(.gen_handler)
 .gen_handler   0x9d000180       0x10 /tmp/ccIr63g9.o

.vectors        0x9d000200      0x7f4
                0x9d000200                . = ALIGN (0x4)
                0x000009ac                __vector_offset_0 = DEFINED (__vector_dispatch_0)?(. - _ebase_address):__vector_offset_default
 *(.vector_0)
                0x9d000200                . = ALIGN (0x4)
                0x00000200                __vector_offset_1 = DEFINED (__vector_dispatch_1)?(. - _ebase_address):__vector_offset_default
 *(.vector_1)
 .vector_1      0x9d000200      0x3c4 build/default/production/_ext/23001898/port_asm.o
                0x9d000200                vPortYieldISR
                0x9d000200                __vector_dispatch_1
                0x9d0005c4                . = ALIGN (0x4)
                0x000009ac                __vector_offset_2 = DEFINED (__vector_dispatch_2)?(. - _ebase_address):__vector_offset_default
 *(.vector_2)
                0x9d0005c4                . = ALIGN (0x4)
                0x000009ac                __vector_offset_3 = DEFINED (__vector_dispatch_3)?(. - _ebase_address):__vector_offset_default
 *(.vector_3)
                0x9d0005c4                . = ALIGN (0x4)
                0x000005c4                __vector_offset_4 = DEFINED (__vector_dispatch_4)?(. - _ebase_address):__vector_offset_default
 *(.vector_4)
 .vector_4      0x9d0005c4      0x3d8 build/default/production/_ext/23001898/port_asm.o
                0x9d0005c4                __vector_dispatch_4
                0x9d0005c4                vPortTickInterruptHandler
                0x9d00099c                . = ALIGN (0x4)
                0x000009ac                __vector_offset_5 = DEFINED (__vector_dispatch_5)?(. - _ebase_address):__vector_offset_default
 *(.vector_5)
                0x9d00099c                . = ALIGN (0x4)
                0x000009ac                __vector_offset_6 = DEFINED (__vector_dispatch_6)?(. - _ebase_address):__vector_offset_default
 *(.vector_6)
                0x9d00099c                . = ALIGN (0x4)
                0x000009ac                __vector_offset_7 = DEFINED (__vector_dispatch_7)?(. - _ebase_address):__vector_offset_default
 *(.vector_7)
                0x9d00099c                . = ALIGN (0x4)
                0x0000099c                __vector_offset_8 = DEFINED (__vector_dispatch_8)?(. - _ebase_address):__vector_offset_default
 *(.vector_8)
 .vector_8      0x9d00099c        0x8 build/default/production/_ext/1360937237/main.o
                0x9d00099c                __vector_dispatch_8
                0x9d0009a4                . = ALIGN (0x4)
                0x000009ac                __vector_offset_9 = DEFINED (__vector_dispatch_9)?(. - _ebase_address):__vector_offset_default
 *(.vector_9)
                0x9d0009a4                . = ALIGN (0x4)
                0x000009ac                __vector_offset_10 = DEFINED (__vector_dispatch_10)?(. - _ebase_address):__vector_offset_default
 *(.vector_10)
                0x9d0009a4                . = ALIGN (0x4)
                0x000009ac                __vector_offset_11 = DEFINED (__vector_dispatch_11)?(. - _ebase_address):__vector_offset_default
 *(.vector_11)
                0x9d0009a4                . = ALIGN (0x4)
                0x000009ac                __vector_offset_12 = DEFINED (__vector_dispatch_12)?(. - _ebase_address):__vector_offset_default
 *(.vector_12)
                0x9d0009a4                . = ALIGN (0x4)
                0x000009ac                __vector_offset_13 = DEFINED (__vector_dispatch_13)?(. - _ebase_address):__vector_offset_default
 *(.vector_13)
                0x9d0009a4                . = ALIGN (0x4)
                0x000009ac                __vector_offset_14 = DEFINED (__vector_dispatch_14)?(. - _ebase_address):__vector_offset_default
 *(.vector_14)
                0x9d0009a4                . = ALIGN (0x4)
                0x000009ac                __vector_offset_15 = DEFINED (__vector_dispatch_15)?(. - _ebase_address):__vector_offset_default
 *(.vector_15)
                0x9d0009a4                . = ALIGN (0x4)
                0x000009ac                __vector_offset_16 = DEFINED (__vector_dispatch_16)?(. - _ebase_address):__vector_offset_default
 *(.vector_16)
                0x9d0009a4                . = ALIGN (0x4)
                0x000009ac                __vector_offset_17 = DEFINED (__vector_dispatch_17)?(. - _ebase_address):__vector_offset_default
 *(.vector_17)
                0x9d0009a4                . = ALIGN (0x4)
                0x000009ac                __vector_offset_18 = DEFINED (__vector_dispatch_18)?(. - _ebase_address):__vector_offset_default
 *(.vector_18)
                0x9d0009a4                . = ALIGN (0x4)
                0x000009ac                __vector_offset_19 = DEFINED (__vector_dispatch_19)?(. - _ebase_address):__vector_offset_default
 *(.vector_19)
                0x9d0009a4                . = ALIGN (0x4)
                0x000009ac                __vector_offset_20 = DEFINED (__vector_dispatch_20)?(. - _ebase_address):__vector_offset_default
 *(.vector_20)
                0x9d0009a4                . = ALIGN (0x4)
                0x000009ac                __vector_offset_21 = DEFINED (__vector_dispatch_21)?(. - _ebase_address):__vector_offset_default
 *(.vector_21)
                0x9d0009a4                . = ALIGN (0x4)
                0x000009ac                __vector_offset_22 = DEFINED (__vector_dispatch_22)?(. - _ebase_address):__vector_offset_default
 *(.vector_22)
                0x9d0009a4                . = ALIGN (0x4)
                0x000009ac                __vector_offset_23 = DEFINED (__vector_dispatch_23)?(. - _ebase_address):__vector_offset_default
 *(.vector_23)
                0x9d0009a4                . = ALIGN (0x4)
                0x000009ac                __vector_offset_24 = DEFINED (__vector_dispatch_24)?(. - _ebase_address):__vector_offset_default
 *(.vector_24)
                0x9d0009a4                . = ALIGN (0x4)
                0x000009ac                __vector_offset_25 = DEFINED (__vector_dispatch_25)?(. - _ebase_address):__vector_offset_default
 *(.vector_25)
                0x9d0009a4                . = ALIGN (0x4)
                0x000009ac                __vector_offset_26 = DEFINED (__vector_dispatch_26)?(. - _ebase_address):__vector_offset_default
 *(.vector_26)
                0x9d0009a4                . = ALIGN (0x4)
                0x000009ac                __vector_offset_27 = DEFINED (__vector_dispatch_27)?(. - _ebase_address):__vector_offset_default
 *(.vector_27)
                0x9d0009a4                . = ALIGN (0x4)
                0x000009ac                __vector_offset_28 = DEFINED (__vector_dispatch_28)?(. - _ebase_address):__vector_offset_default
 *(.vector_28)
                0x9d0009a4                . = ALIGN (0x4)
                0x000009ac                __vector_offset_29 = DEFINED (__vector_dispatch_29)?(. - _ebase_address):__vector_offset_default
 *(.vector_29)
                0x9d0009a4                . = ALIGN (0x4)
                0x000009ac                __vector_offset_30 = DEFINED (__vector_dispatch_30)?(. - _ebase_address):__vector_offset_default
 *(.vector_30)
                0x9d0009a4                . = ALIGN (0x4)
                0x000009ac                __vector_offset_31 = DEFINED (__vector_dispatch_31)?(. - _ebase_address):__vector_offset_default
 *(.vector_31)
                0x9d0009a4                . = ALIGN (0x4)
                0x000009ac                __vector_offset_32 = DEFINED (__vector_dispatch_32)?(. - _ebase_address):__vector_offset_default
 *(.vector_32)
                0x9d0009a4                . = ALIGN (0x4)
                0x000009ac                __vector_offset_33 = DEFINED (__vector_dispatch_33)?(. - _ebase_address):__vector_offset_default
 *(.vector_33)
                0x9d0009a4                . = ALIGN (0x4)
                0x000009ac                __vector_offset_34 = DEFINED (__vector_dispatch_34)?(. - _ebase_address):__vector_offset_default
 *(.vector_34)
                0x9d0009a4                . = ALIGN (0x4)
                0x000009ac                __vector_offset_35 = DEFINED (__vector_dispatch_35)?(. - _ebase_address):__vector_offset_default
 *(.vector_35)
                0x9d0009a4                . = ALIGN (0x4)
                0x000009ac                __vector_offset_36 = DEFINED (__vector_dispatch_36)?(. - _ebase_address):__vector_offset_default
 *(.vector_36)
                0x9d0009a4                . = ALIGN (0x4)
                0x000009ac                __vector_offset_37 = DEFINED (__vector_dispatch_37)?(. - _ebase_address):__vector_offset_default
 *(.vector_37)
                0x9d0009a4                . = ALIGN (0x4)
                0x000009ac                __vector_offset_38 = DEFINED (__vector_dispatch_38)?(. - _ebase_address):__vector_offset_default
 *(.vector_38)
                0x9d0009a4                . = ALIGN (0x4)
                0x000009ac                __vector_offset_39 = DEFINED (__vector_dispatch_39)?(. - _ebase_address):__vector_offset_default
 *(.vector_39)
                0x9d0009a4                . = ALIGN (0x4)
                0x000009ac                __vector_offset_40 = DEFINED (__vector_dispatch_40)?(. - _ebase_address):__vector_offset_default
 *(.vector_40)
                0x9d0009a4                . = ALIGN (0x4)
                0x000009ac                __vector_offset_41 = DEFINED (__vector_dispatch_41)?(. - _ebase_address):__vector_offset_default
 *(.vector_41)
                0x9d0009a4                . = ALIGN (0x4)
                0x000009ac                __vector_offset_42 = DEFINED (__vector_dispatch_42)?(. - _ebase_address):__vector_offset_default
 *(.vector_42)
                0x9d0009a4                . = ALIGN (0x4)
                0x000009ac                __vector_offset_43 = DEFINED (__vector_dispatch_43)?(. - _ebase_address):__vector_offset_default
 *(.vector_43)
                0x9d0009a4                . = ALIGN (0x4)
                0x000009ac                __vector_offset_44 = DEFINED (__vector_dispatch_44)?(. - _ebase_address):__vector_offset_default
 *(.vector_44)
                0x9d0009a4                . = ALIGN (0x4)
                0x000009ac                __vector_offset_45 = DEFINED (__vector_dispatch_45)?(. - _ebase_address):__vector_offset_default
 *(.vector_45)
                0x9d0009a4                . = ALIGN (0x4)
                0x000009ac                __vector_offset_46 = DEFINED (__vector_dispatch_46)?(. - _ebase_address):__vector_offset_default
 *(.vector_46)
                0x9d0009a4                . = ALIGN (0x4)
                0x000009ac                __vector_offset_47 = DEFINED (__vector_dispatch_47)?(. - _ebase_address):__vector_offset_default
 *(.vector_47)
                0x9d0009a4                . = ALIGN (0x4)
                0x000009ac                __vector_offset_48 = DEFINED (__vector_dispatch_48)?(. - _ebase_address):__vector_offset_default
 *(.vector_48)
                0x9d0009a4                . = ALIGN (0x4)
                0x000009ac                __vector_offset_49 = DEFINED (__vector_dispatch_49)?(. - _ebase_address):__vector_offset_default
 *(.vector_49)
                0x9d0009a4                . = ALIGN (0x4)
                0x000009ac                __vector_offset_50 = DEFINED (__vector_dispatch_50)?(. - _ebase_address):__vector_offset_default
 *(.vector_50)
                0x9d0009a4                . = ALIGN (0x4)
                0x000009ac                __vector_offset_51 = DEFINED (__vector_dispatch_51)?(. - _ebase_address):__vector_offset_default
 *(.vector_51)
                0x9d0009a4                . = ALIGN (0x4)
                0x000009ac                __vector_offset_52 = DEFINED (__vector_dispatch_52)?(. - _ebase_address):__vector_offset_default
 *(.vector_52)
                0x9d0009a4                . = ALIGN (0x4)
                0x000009ac                __vector_offset_53 = DEFINED (__vector_dispatch_53)?(. - _ebase_address):__vector_offset_default
 *(.vector_53)
                0x9d0009a4                . = ALIGN (0x4)
                0x000009ac                __vector_offset_54 = DEFINED (__vector_dispatch_54)?(. - _ebase_address):__vector_offset_default
 *(.vector_54)
                0x9d0009a4                . = ALIGN (0x4)
                0x000009ac                __vector_offset_55 = DEFINED (__vector_dispatch_55)?(. - _ebase_address):__vector_offset_default
 *(.vector_55)
                0x9d0009a4                . = ALIGN (0x4)
                0x000009ac                __vector_offset_56 = DEFINED (__vector_dispatch_56)?(. - _ebase_address):__vector_offset_default
 *(.vector_56)
                0x9d0009a4                . = ALIGN (0x4)
                0x000009ac                __vector_offset_57 = DEFINED (__vector_dispatch_57)?(. - _ebase_address):__vector_offset_default
 *(.vector_57)
                0x9d0009a4                . = ALIGN (0x4)
                0x000009ac                __vector_offset_58 = DEFINED (__vector_dispatch_58)?(. - _ebase_address):__vector_offset_default
 *(.vector_58)
                0x9d0009a4                . = ALIGN (0x4)
                0x000009ac                __vector_offset_59 = DEFINED (__vector_dispatch_59)?(. - _ebase_address):__vector_offset_default
 *(.vector_59)
                0x9d0009a4                . = ALIGN (0x4)
                0x000009ac                __vector_offset_60 = DEFINED (__vector_dispatch_60)?(. - _ebase_address):__vector_offset_default
 *(.vector_60)
                0x9d0009a4                . = ALIGN (0x4)
                0x000009ac                __vector_offset_61 = DEFINED (__vector_dispatch_61)?(. - _ebase_address):__vector_offset_default
 *(.vector_61)
                0x9d0009a4                . = ALIGN (0x4)
                0x000009ac                __vector_offset_62 = DEFINED (__vector_dispatch_62)?(. - _ebase_address):__vector_offset_default
 *(.vector_62)
                0x9d0009a4                . = ALIGN (0x4)
                0x000009ac                __vector_offset_63 = DEFINED (__vector_dispatch_63)?(. - _ebase_address):__vector_offset_default
 *(.vector_63)
                0x9d0009a4                . = ALIGN (0x4)
                0x000009ac                __vector_offset_64 = DEFINED (__vector_dispatch_64)?(. - _ebase_address):__vector_offset_default
 *(.vector_64)
                0x9d0009a4                . = ALIGN (0x4)
                0x000009ac                __vector_offset_65 = DEFINED (__vector_dispatch_65)?(. - _ebase_address):__vector_offset_default
 *(.vector_65)
                0x9d0009a4                . = ALIGN (0x4)
                0x000009ac                __vector_offset_66 = DEFINED (__vector_dispatch_66)?(. - _ebase_address):__vector_offset_default
 *(.vector_66)
                0x9d0009a4                . = ALIGN (0x4)
                0x000009ac                __vector_offset_67 = DEFINED (__vector_dispatch_67)?(. - _ebase_address):__vector_offset_default
 *(.vector_67)
                0x9d0009a4                . = ALIGN (0x4)
                0x000009ac                __vector_offset_68 = DEFINED (__vector_dispatch_68)?(. - _ebase_address):__vector_offset_default
 *(.vector_68)
                0x9d0009a4                . = ALIGN (0x4)
                0x000009ac                __vector_offset_69 = DEFINED (__vector_dispatch_69)?(. - _ebase_address):__vector_offset_default
 *(.vector_69)
                0x9d0009a4                . = ALIGN (0x4)
                0x000009ac                __vector_offset_70 = DEFINED (__vector_dispatch_70)?(. - _ebase_address):__vector_offset_default
 *(.vector_70)
                0x9d0009a4                . = ALIGN (0x4)
                0x000009ac                __vector_offset_71 = DEFINED (__vector_dispatch_71)?(. - _ebase_address):__vector_offset_default
 *(.vector_71)
                0x9d0009a4                . = ALIGN (0x4)
                0x000009ac                __vector_offset_72 = DEFINED (__vector_dispatch_72)?(. - _ebase_address):__vector_offset_default
 *(.vector_72)
                0x9d0009a4                . = ALIGN (0x4)
                0x000009ac                __vector_offset_73 = DEFINED (__vector_dispatch_73)?(. - _ebase_address):__vector_offset_default
 *(.vector_73)
                0x9d0009a4                . = ALIGN (0x4)
                0x000009ac                __vector_offset_74 = DEFINED (__vector_dispatch_74)?(. - _ebase_address):__vector_offset_default
 *(.vector_74)
                0x9d0009a4                . = ALIGN (0x4)
                0x000009ac                __vector_offset_75 = DEFINED (__vector_dispatch_75)?(. - _ebase_address):__vector_offset_default
 *(.vector_75)
                0x9d0009a4                . = ALIGN (0x4)
                0x000009ac                __vector_offset_76 = DEFINED (__vector_dispatch_76)?(. - _ebase_address):__vector_offset_default
 *(.vector_76)
                0x9d0009a4                . = ALIGN (0x4)
                0x000009ac                __vector_offset_77 = DEFINED (__vector_dispatch_77)?(. - _ebase_address):__vector_offset_default
 *(.vector_77)
                0x9d0009a4                . = ALIGN (0x4)
                0x000009ac                __vector_offset_78 = DEFINED (__vector_dispatch_78)?(. - _ebase_address):__vector_offset_default
 *(.vector_78)
                0x9d0009a4                . = ALIGN (0x4)
                0x000009ac                __vector_offset_79 = DEFINED (__vector_dispatch_79)?(. - _ebase_address):__vector_offset_default
 *(.vector_79)
                0x9d0009a4                . = ALIGN (0x4)
                0x000009ac                __vector_offset_80 = DEFINED (__vector_dispatch_80)?(. - _ebase_address):__vector_offset_default
 *(.vector_80)
                0x9d0009a4                . = ALIGN (0x4)
                0x000009ac                __vector_offset_81 = DEFINED (__vector_dispatch_81)?(. - _ebase_address):__vector_offset_default
 *(.vector_81)
                0x9d0009a4                . = ALIGN (0x4)
                0x000009ac                __vector_offset_82 = DEFINED (__vector_dispatch_82)?(. - _ebase_address):__vector_offset_default
 *(.vector_82)
                0x9d0009a4                . = ALIGN (0x4)
                0x000009ac                __vector_offset_83 = DEFINED (__vector_dispatch_83)?(. - _ebase_address):__vector_offset_default
 *(.vector_83)
                0x9d0009a4                . = ALIGN (0x4)
                0x000009ac                __vector_offset_84 = DEFINED (__vector_dispatch_84)?(. - _ebase_address):__vector_offset_default
 *(.vector_84)
                0x9d0009a4                . = ALIGN (0x4)
                0x000009ac                __vector_offset_85 = DEFINED (__vector_dispatch_85)?(. - _ebase_address):__vector_offset_default
 *(.vector_85)
                0x9d0009a4                . = ALIGN (0x4)
                0x000009ac                __vector_offset_86 = DEFINED (__vector_dispatch_86)?(. - _ebase_address):__vector_offset_default
 *(.vector_86)
                0x9d0009a4                . = ALIGN (0x4)
                0x000009ac                __vector_offset_87 = DEFINED (__vector_dispatch_87)?(. - _ebase_address):__vector_offset_default
 *(.vector_87)
                0x9d0009a4                . = ALIGN (0x4)
                0x000009ac                __vector_offset_88 = DEFINED (__vector_dispatch_88)?(. - _ebase_address):__vector_offset_default
 *(.vector_88)
                0x9d0009a4                . = ALIGN (0x4)
                0x000009ac                __vector_offset_89 = DEFINED (__vector_dispatch_89)?(. - _ebase_address):__vector_offset_default
 *(.vector_89)
                0x9d0009a4                . = ALIGN (0x4)
                0x000009ac                __vector_offset_90 = DEFINED (__vector_dispatch_90)?(. - _ebase_address):__vector_offset_default
 *(.vector_90)
                0x9d0009a4                . = ALIGN (0x4)
                0x000009ac                __vector_offset_91 = DEFINED (__vector_dispatch_91)?(. - _ebase_address):__vector_offset_default
 *(.vector_91)
                0x9d0009a4                . = ALIGN (0x4)
                0x000009ac                __vector_offset_92 = DEFINED (__vector_dispatch_92)?(. - _ebase_address):__vector_offset_default
 *(.vector_92)
                0x9d0009a4                . = ALIGN (0x4)
                0x000009ac                __vector_offset_93 = DEFINED (__vector_dispatch_93)?(. - _ebase_address):__vector_offset_default
 *(.vector_93)
                0x9d0009a4                . = ALIGN (0x4)
                0x000009ac                __vector_offset_94 = DEFINED (__vector_dispatch_94)?(. - _ebase_address):__vector_offset_default
 *(.vector_94)
                0x9d0009a4                . = ALIGN (0x4)
                0x000009ac                __vector_offset_95 = DEFINED (__vector_dispatch_95)?(. - _ebase_address):__vector_offset_default
 *(.vector_95)
                0x9d0009a4                . = ALIGN (0x4)
                0x000009ac                __vector_offset_96 = DEFINED (__vector_dispatch_96)?(. - _ebase_address):__vector_offset_default
 *(.vector_96)
                0x9d0009a4                . = ALIGN (0x4)
                0x000009ac                __vector_offset_97 = DEFINED (__vector_dispatch_97)?(. - _ebase_address):__vector_offset_default
 *(.vector_97)
                0x9d0009a4                . = ALIGN (0x4)
                0x000009ac                __vector_offset_98 = DEFINED (__vector_dispatch_98)?(. - _ebase_address):__vector_offset_default
 *(.vector_98)
                0x9d0009a4                . = ALIGN (0x4)
                0x000009ac                __vector_offset_99 = DEFINED (__vector_dispatch_99)?(. - _ebase_address):__vector_offset_default
 *(.vector_99)
                0x9d0009a4                . = ALIGN (0x4)
                0x000009ac                __vector_offset_100 = DEFINED (__vector_dispatch_100)?(. - _ebase_address):__vector_offset_default
 *(.vector_100)
                0x9d0009a4                . = ALIGN (0x4)
                0x000009ac                __vector_offset_101 = DEFINED (__vector_dispatch_101)?(. - _ebase_address):__vector_offset_default
 *(.vector_101)
                0x9d0009a4                . = ALIGN (0x4)
                0x000009ac                __vector_offset_102 = DEFINED (__vector_dispatch_102)?(. - _ebase_address):__vector_offset_default
 *(.vector_102)
                0x9d0009a4                . = ALIGN (0x4)
                0x000009ac                __vector_offset_103 = DEFINED (__vector_dispatch_103)?(. - _ebase_address):__vector_offset_default
 *(.vector_103)
                0x9d0009a4                . = ALIGN (0x4)
                0x000009ac                __vector_offset_104 = DEFINED (__vector_dispatch_104)?(. - _ebase_address):__vector_offset_default
 *(.vector_104)
                0x9d0009a4                . = ALIGN (0x4)
                0x000009ac                __vector_offset_105 = DEFINED (__vector_dispatch_105)?(. - _ebase_address):__vector_offset_default
 *(.vector_105)
                0x9d0009a4                . = ALIGN (0x4)
                0x000009ac                __vector_offset_106 = DEFINED (__vector_dispatch_106)?(. - _ebase_address):__vector_offset_default
 *(.vector_106)
                0x9d0009a4                . = ALIGN (0x4)
                0x000009ac                __vector_offset_107 = DEFINED (__vector_dispatch_107)?(. - _ebase_address):__vector_offset_default
 *(.vector_107)
                0x9d0009a4                . = ALIGN (0x4)
                0x000009ac                __vector_offset_108 = DEFINED (__vector_dispatch_108)?(. - _ebase_address):__vector_offset_default
 *(.vector_108)
                0x9d0009a4                . = ALIGN (0x4)
                0x000009ac                __vector_offset_109 = DEFINED (__vector_dispatch_109)?(. - _ebase_address):__vector_offset_default
 *(.vector_109)
                0x9d0009a4                . = ALIGN (0x4)
                0x000009ac                __vector_offset_110 = DEFINED (__vector_dispatch_110)?(. - _ebase_address):__vector_offset_default
 *(.vector_110)
                0x9d0009a4                . = ALIGN (0x4)
                0x000009ac                __vector_offset_111 = DEFINED (__vector_dispatch_111)?(. - _ebase_address):__vector_offset_default
 *(.vector_111)
                0x9d0009a4                . = ALIGN (0x4)
                0x000009ac                __vector_offset_112 = DEFINED (__vector_dispatch_112)?(. - _ebase_address):__vector_offset_default
 *(.vector_112)
                0x9d0009a4                . = ALIGN (0x4)
                0x000009ac                __vector_offset_113 = DEFINED (__vector_dispatch_113)?(. - _ebase_address):__vector_offset_default
 *(.vector_113)
                0x9d0009a4                . = ALIGN (0x4)
                0x000009ac                __vector_offset_114 = DEFINED (__vector_dispatch_114)?(. - _ebase_address):__vector_offset_default
 *(.vector_114)
                0x9d0009a4                . = ALIGN (0x4)
                0x000009ac                __vector_offset_115 = DEFINED (__vector_dispatch_115)?(. - _ebase_address):__vector_offset_default
 *(.vector_115)
                0x9d0009a4                . = ALIGN (0x4)
                0x000009ac                __vector_offset_116 = DEFINED (__vector_dispatch_116)?(. - _ebase_address):__vector_offset_default
 *(.vector_116)
                0x9d0009a4                . = ALIGN (0x4)
                0x000009ac                __vector_offset_117 = DEFINED (__vector_dispatch_117)?(. - _ebase_address):__vector_offset_default
 *(.vector_117)
                0x9d0009a4                . = ALIGN (0x4)
                0x000009ac                __vector_offset_118 = DEFINED (__vector_dispatch_118)?(. - _ebase_address):__vector_offset_default
 *(.vector_118)
                0x9d0009a4                . = ALIGN (0x4)
                0x000009ac                __vector_offset_119 = DEFINED (__vector_dispatch_119)?(. - _ebase_address):__vector_offset_default
 *(.vector_119)
                0x9d0009a4                . = ALIGN (0x4)
                0x000009ac                __vector_offset_120 = DEFINED (__vector_dispatch_120)?(. - _ebase_address):__vector_offset_default
 *(.vector_120)
                0x9d0009a4                . = ALIGN (0x4)
                0x000009ac                __vector_offset_121 = DEFINED (__vector_dispatch_121)?(. - _ebase_address):__vector_offset_default
 *(.vector_121)
                0x9d0009a4                . = ALIGN (0x4)
                0x000009ac                __vector_offset_122 = DEFINED (__vector_dispatch_122)?(. - _ebase_address):__vector_offset_default
 *(.vector_122)
                0x9d0009a4                . = ALIGN (0x4)
                0x000009ac                __vector_offset_123 = DEFINED (__vector_dispatch_123)?(. - _ebase_address):__vector_offset_default
 *(.vector_123)
                0x9d0009a4                . = ALIGN (0x4)
                0x000009ac                __vector_offset_124 = DEFINED (__vector_dispatch_124)?(. - _ebase_address):__vector_offset_default
 *(.vector_124)
                0x9d0009a4                . = ALIGN (0x4)
                0x000009ac                __vector_offset_125 = DEFINED (__vector_dispatch_125)?(. - _ebase_address):__vector_offset_default
 *(.vector_125)
                0x9d0009a4                . = ALIGN (0x4)
                0x000009ac                __vector_offset_126 = DEFINED (__vector_dispatch_126)?(. - _ebase_address):__vector_offset_default
 *(.vector_126)
                0x9d0009a4                . = ALIGN (0x4)
                0x000009ac                __vector_offset_127 = DEFINED (__vector_dispatch_127)?(. - _ebase_address):__vector_offset_default
 *(.vector_127)
                0x9d0009a4                . = ALIGN (0x4)
                0x000009ac                __vector_offset_128 = DEFINED (__vector_dispatch_128)?(. - _ebase_address):__vector_offset_default
 *(.vector_128)
                0x9d0009a4                . = ALIGN (0x4)
                0x000009ac                __vector_offset_129 = DEFINED (__vector_dispatch_129)?(. - _ebase_address):__vector_offset_default
 *(.vector_129)
                0x9d0009a4                . = ALIGN (0x4)
                0x000009ac                __vector_offset_130 = DEFINED (__vector_dispatch_130)?(. - _ebase_address):__vector_offset_default
 *(.vector_130)
                0x9d0009a4                . = ALIGN (0x4)
                0x000009ac                __vector_offset_131 = DEFINED (__vector_dispatch_131)?(. - _ebase_address):__vector_offset_default
 *(.vector_131)
                0x9d0009a4                . = ALIGN (0x4)
                0x000009ac                __vector_offset_132 = DEFINED (__vector_dispatch_132)?(. - _ebase_address):__vector_offset_default
 *(.vector_132)
                0x9d0009a4                . = ALIGN (0x4)
                0x000009ac                __vector_offset_133 = DEFINED (__vector_dispatch_133)?(. - _ebase_address):__vector_offset_default
 *(.vector_133)
                0x9d0009a4                . = ALIGN (0x4)
                0x000009ac                __vector_offset_134 = DEFINED (__vector_dispatch_134)?(. - _ebase_address):__vector_offset_default
 *(.vector_134)
                0x9d0009a4                . = ALIGN (0x4)
                0x000009ac                __vector_offset_135 = DEFINED (__vector_dispatch_135)?(. - _ebase_address):__vector_offset_default
 *(.vector_135)
                0x9d0009a4                . = ALIGN (0x4)
                0x000009ac                __vector_offset_136 = DEFINED (__vector_dispatch_136)?(. - _ebase_address):__vector_offset_default
 *(.vector_136)
                0x9d0009a4                . = ALIGN (0x4)
                0x000009ac                __vector_offset_137 = DEFINED (__vector_dispatch_137)?(. - _ebase_address):__vector_offset_default
 *(.vector_137)
                0x9d0009a4                . = ALIGN (0x4)
                0x000009ac                __vector_offset_138 = DEFINED (__vector_dispatch_138)?(. - _ebase_address):__vector_offset_default
 *(.vector_138)
                0x9d0009a4                . = ALIGN (0x4)
                0x000009ac                __vector_offset_139 = DEFINED (__vector_dispatch_139)?(. - _ebase_address):__vector_offset_default
 *(.vector_139)
                0x9d0009a4                . = ALIGN (0x4)
                0x000009ac                __vector_offset_140 = DEFINED (__vector_dispatch_140)?(. - _ebase_address):__vector_offset_default
 *(.vector_140)
                0x9d0009a4                . = ALIGN (0x4)
                0x000009ac                __vector_offset_141 = DEFINED (__vector_dispatch_141)?(. - _ebase_address):__vector_offset_default
 *(.vector_141)
                0x9d0009a4                . = ALIGN (0x4)
                0x000009ac                __vector_offset_142 = DEFINED (__vector_dispatch_142)?(. - _ebase_address):__vector_offset_default
 *(.vector_142)
                0x9d0009a4                . = ALIGN (0x4)
                0x000009ac                __vector_offset_143 = DEFINED (__vector_dispatch_143)?(. - _ebase_address):__vector_offset_default
 *(.vector_143)
                0x9d0009a4                . = ALIGN (0x4)
                0x000009ac                __vector_offset_144 = DEFINED (__vector_dispatch_144)?(. - _ebase_address):__vector_offset_default
 *(.vector_144)
                0x9d0009a4                . = ALIGN (0x4)
                0x000009ac                __vector_offset_145 = DEFINED (__vector_dispatch_145)?(. - _ebase_address):__vector_offset_default
 *(.vector_145)
                0x9d0009a4                . = ALIGN (0x4)
                0x000009ac                __vector_offset_146 = DEFINED (__vector_dispatch_146)?(. - _ebase_address):__vector_offset_default
 *(.vector_146)
                0x9d0009a4                . = ALIGN (0x4)
                0x000009ac                __vector_offset_147 = DEFINED (__vector_dispatch_147)?(. - _ebase_address):__vector_offset_default
 *(.vector_147)
                0x9d0009a4                . = ALIGN (0x4)
                0x000009ac                __vector_offset_148 = DEFINED (__vector_dispatch_148)?(. - _ebase_address):__vector_offset_default
 *(.vector_148)
                0x9d0009a4                . = ALIGN (0x4)
                0x000009ac                __vector_offset_149 = DEFINED (__vector_dispatch_149)?(. - _ebase_address):__vector_offset_default
 *(.vector_149)
                0x9d0009a4                . = ALIGN (0x4)
                0x000009ac                __vector_offset_150 = DEFINED (__vector_dispatch_150)?(. - _ebase_address):__vector_offset_default
 *(.vector_150)
                0x9d0009a4                . = ALIGN (0x4)
                0x000009ac                __vector_offset_151 = DEFINED (__vector_dispatch_151)?(. - _ebase_address):__vector_offset_default
 *(.vector_151)
                0x9d0009a4                . = ALIGN (0x4)
                0x000009ac                __vector_offset_152 = DEFINED (__vector_dispatch_152)?(. - _ebase_address):__vector_offset_default
 *(.vector_152)
                0x9d0009a4                . = ALIGN (0x4)
                0x000009a4                __vector_offset_153 = DEFINED (__vector_dispatch_153)?(. - _ebase_address):__vector_offset_default
 *(.vector_153)
 .vector_153    0x9d0009a4        0x8 build/default/production/_ext/1360937237/main.o
                0x9d0009a4                __vector_dispatch_153
                0x9d0009ac                . = ALIGN (0x4)
                0x000009ac                __vector_offset_154 = DEFINED (__vector_dispatch_154)?(. - _ebase_address):__vector_offset_default
 *(.vector_154)
                0x9d0009ac                . = ALIGN (0x4)
                0x000009ac                __vector_offset_155 = DEFINED (__vector_dispatch_155)?(. - _ebase_address):__vector_offset_default
 *(.vector_155)
                0x9d0009ac                . = ALIGN (0x4)
                0x000009ac                __vector_offset_156 = DEFINED (__vector_dispatch_156)?(. - _ebase_address):__vector_offset_default
 *(.vector_156)
                0x9d0009ac                . = ALIGN (0x4)
                0x000009ac                __vector_offset_157 = DEFINED (__vector_dispatch_157)?(. - _ebase_address):__vector_offset_default
 *(.vector_157)
                0x9d0009ac                . = ALIGN (0x4)
                0x000009ac                __vector_offset_158 = DEFINED (__vector_dispatch_158)?(. - _ebase_address):__vector_offset_default
 *(.vector_158)
                0x9d0009ac                . = ALIGN (0x4)
                0x000009ac                __vector_offset_159 = DEFINED (__vector_dispatch_159)?(. - _ebase_address):__vector_offset_default
 *(.vector_159)
                0x9d0009ac                . = ALIGN (0x4)
                0x000009ac                __vector_offset_160 = DEFINED (__vector_dispatch_160)?(. - _ebase_address):__vector_offset_default
 *(.vector_160)
                0x9d0009ac                . = ALIGN (0x4)
                0x000009ac                __vector_offset_161 = DEFINED (__vector_dispatch_161)?(. - _ebase_address):__vector_offset_default
 *(.vector_161)
                0x9d0009ac                . = ALIGN (0x4)
                0x000009ac                __vector_offset_162 = DEFINED (__vector_dispatch_162)?(. - _ebase_address):__vector_offset_default
 *(.vector_162)
                0x9d0009ac                . = ALIGN (0x4)
                0x000009ac                __vector_offset_163 = DEFINED (__vector_dispatch_163)?(. - _ebase_address):__vector_offset_default
 *(.vector_163)
                0x9d0009ac                . = ALIGN (0x4)
                0x000009ac                __vector_offset_164 = DEFINED (__vector_dispatch_164)?(. - _ebase_address):__vector_offset_default
 *(.vector_164)
                0x9d0009ac                . = ALIGN (0x4)
                0x000009ac                __vector_offset_165 = DEFINED (__vector_dispatch_165)?(. - _ebase_address):__vector_offset_default
 *(.vector_165)
                0x9d0009ac                . = ALIGN (0x4)
                0x000009ac                __vector_offset_166 = DEFINED (__vector_dispatch_166)?(. - _ebase_address):__vector_offset_default
 *(.vector_166)
                0x9d0009ac                . = ALIGN (0x4)
                0x000009ac                __vector_offset_167 = DEFINED (__vector_dispatch_167)?(. - _ebase_address):__vector_offset_default
 *(.vector_167)
                0x9d0009ac                . = ALIGN (0x4)
                0x000009ac                __vector_offset_168 = DEFINED (__vector_dispatch_168)?(. - _ebase_address):__vector_offset_default
 *(.vector_168)
                0x9d0009ac                . = ALIGN (0x4)
                0x000009ac                __vector_offset_169 = DEFINED (__vector_dispatch_169)?(. - _ebase_address):__vector_offset_default
 *(.vector_169)
                0x9d0009ac                . = ALIGN (0x4)
                0x000009ac                __vector_offset_170 = DEFINED (__vector_dispatch_170)?(. - _ebase_address):__vector_offset_default
 *(.vector_170)
                0x9d0009ac                . = ALIGN (0x4)
                0x000009ac                __vector_offset_171 = DEFINED (__vector_dispatch_171)?(. - _ebase_address):__vector_offset_default
 *(.vector_171)
                0x9d0009ac                . = ALIGN (0x4)
                0x000009ac                __vector_offset_172 = DEFINED (__vector_dispatch_172)?(. - _ebase_address):__vector_offset_default
 *(.vector_172)
                0x9d0009ac                . = ALIGN (0x4)
                0x000009ac                __vector_offset_173 = DEFINED (__vector_dispatch_173)?(. - _ebase_address):__vector_offset_default
 *(.vector_173)
                0x9d0009ac                . = ALIGN (0x4)
                0x000009ac                __vector_offset_174 = DEFINED (__vector_dispatch_174)?(. - _ebase_address):__vector_offset_default
 *(.vector_174)
                0x9d0009ac                . = ALIGN (0x4)
                0x000009ac                __vector_offset_175 = DEFINED (__vector_dispatch_175)?(. - _ebase_address):__vector_offset_default
 *(.vector_175)
                0x9d0009ac                . = ALIGN (0x4)
                0x000009ac                __vector_offset_176 = DEFINED (__vector_dispatch_176)?(. - _ebase_address):__vector_offset_default
 *(.vector_176)
                0x9d0009ac                . = ALIGN (0x4)
                0x000009ac                __vector_offset_177 = DEFINED (__vector_dispatch_177)?(. - _ebase_address):__vector_offset_default
 *(.vector_177)
                0x9d0009ac                . = ALIGN (0x4)
                0x000009ac                __vector_offset_178 = DEFINED (__vector_dispatch_178)?(. - _ebase_address):__vector_offset_default
 *(.vector_178)
                0x9d0009ac                . = ALIGN (0x4)
                0x000009ac                __vector_offset_179 = DEFINED (__vector_dispatch_179)?(. - _ebase_address):__vector_offset_default
 *(.vector_179)
                0x9d0009ac                . = ALIGN (0x4)
                0x000009ac                __vector_offset_180 = DEFINED (__vector_dispatch_180)?(. - _ebase_address):__vector_offset_default
 *(.vector_180)
                0x9d0009ac                . = ALIGN (0x4)
                0x000009ac                __vector_offset_181 = DEFINED (__vector_dispatch_181)?(. - _ebase_address):__vector_offset_default
 *(.vector_181)
                0x9d0009ac                . = ALIGN (0x4)
                0x000009ac                __vector_offset_182 = DEFINED (__vector_dispatch_182)?(. - _ebase_address):__vector_offset_default
 *(.vector_182)
                0x9d0009ac                . = ALIGN (0x4)
                0x000009ac                __vector_offset_183 = DEFINED (__vector_dispatch_183)?(. - _ebase_address):__vector_offset_default
 *(.vector_183)
                0x9d0009ac                . = ALIGN (0x4)
                0x000009ac                __vector_offset_184 = DEFINED (__vector_dispatch_184)?(. - _ebase_address):__vector_offset_default
 *(.vector_184)
                0x9d0009ac                . = ALIGN (0x4)
                0x000009ac                __vector_offset_185 = DEFINED (__vector_dispatch_185)?(. - _ebase_address):__vector_offset_default
 *(.vector_185)
                0x9d0009ac                . = ALIGN (0x4)
                0x000009ac                __vector_offset_186 = DEFINED (__vector_dispatch_186)?(. - _ebase_address):__vector_offset_default
 *(.vector_186)
                0x9d0009ac                . = ALIGN (0x4)
                0x000009ac                __vector_offset_187 = DEFINED (__vector_dispatch_187)?(. - _ebase_address):__vector_offset_default
 *(.vector_187)
                0x9d0009ac                . = ALIGN (0x4)
                0x000009ac                __vector_offset_188 = DEFINED (__vector_dispatch_188)?(. - _ebase_address):__vector_offset_default
 *(.vector_188)
                0x9d0009ac                . = ALIGN (0x4)
                0x000009ac                __vector_offset_189 = DEFINED (__vector_dispatch_189)?(. - _ebase_address):__vector_offset_default
 *(.vector_189)
                0x9d0009ac                . = ALIGN (0x4)
                0x000009ac                __vector_offset_190 = DEFINED (__vector_dispatch_190)?(. - _ebase_address):__vector_offset_default
 *(.vector_190)
                0x9d0009ac                . = ALIGN (0x4)
                0x000009ac                __vector_offset_191 = DEFINED (__vector_dispatch_191)?(. - _ebase_address):__vector_offset_default
 *(.vector_191)
                0x9d0009ac                . = ALIGN (0x4)
                0x000009ac                __vector_offset_192 = DEFINED (__vector_dispatch_192)?(. - _ebase_address):__vector_offset_default
 *(.vector_192)
                0x9d0009ac                . = ALIGN (0x4)
                0x000009ac                __vector_offset_193 = DEFINED (__vector_dispatch_193)?(. - _ebase_address):__vector_offset_default
 *(.vector_193)
                0x9d0009ac                . = ALIGN (0x4)
                0x000009ac                __vector_offset_194 = DEFINED (__vector_dispatch_194)?(. - _ebase_address):__vector_offset_default
 *(.vector_194)
                0x9d0009ac                . = ALIGN (0x4)
                0x000009ac                __vector_offset_195 = DEFINED (__vector_dispatch_195)?(. - _ebase_address):__vector_offset_default
 *(.vector_195)
                0x9d0009ac                . = ALIGN (0x4)
                0x000009ac                __vector_offset_196 = DEFINED (__vector_dispatch_196)?(. - _ebase_address):__vector_offset_default
 *(.vector_196)
                0x9d0009ac                . = ALIGN (0x4)
                0x000009ac                __vector_offset_197 = DEFINED (__vector_dispatch_197)?(. - _ebase_address):__vector_offset_default
 *(.vector_197)
                0x9d0009ac                . = ALIGN (0x4)
                0x000009ac                __vector_offset_198 = DEFINED (__vector_dispatch_198)?(. - _ebase_address):__vector_offset_default
 *(.vector_198)
                0x9d0009ac                . = ALIGN (0x4)
                0x000009ac                __vector_offset_199 = DEFINED (__vector_dispatch_199)?(. - _ebase_address):__vector_offset_default
 *(.vector_199)
                0x9d0009ac                . = ALIGN (0x4)
                0x000009ac                __vector_offset_200 = DEFINED (__vector_dispatch_200)?(. - _ebase_address):__vector_offset_default
 *(.vector_200)
                0x9d0009ac                . = ALIGN (0x4)
                0x000009ac                __vector_offset_201 = DEFINED (__vector_dispatch_201)?(. - _ebase_address):__vector_offset_default
 *(.vector_201)
                0x9d0009ac                . = ALIGN (0x4)
                0x000009ac                __vector_offset_202 = DEFINED (__vector_dispatch_202)?(. - _ebase_address):__vector_offset_default
 *(.vector_202)
                0x9d0009ac                . = ALIGN (0x4)
                0x000009ac                __vector_offset_203 = DEFINED (__vector_dispatch_203)?(. - _ebase_address):__vector_offset_default
 *(.vector_203)
                0x9d0009ac                . = ALIGN (0x4)
                0x000009ac                __vector_offset_204 = DEFINED (__vector_dispatch_204)?(. - _ebase_address):__vector_offset_default
 *(.vector_204)
                0x9d0009ac                . = ALIGN (0x4)
                0x000009ac                __vector_offset_205 = DEFINED (__vector_dispatch_205)?(. - _ebase_address):__vector_offset_default
 *(.vector_205)
                0x9d0009ac                . = ALIGN (0x4)
                0x000009ac                __vector_offset_206 = DEFINED (__vector_dispatch_206)?(. - _ebase_address):__vector_offset_default
 *(.vector_206)
                0x9d0009ac                . = ALIGN (0x4)
                0x000009ac                __vector_offset_207 = DEFINED (__vector_dispatch_207)?(. - _ebase_address):__vector_offset_default
 *(.vector_207)
                0x9d0009ac                . = ALIGN (0x4)
                0x000009ac                __vector_offset_208 = DEFINED (__vector_dispatch_208)?(. - _ebase_address):__vector_offset_default
 *(.vector_208)
                0x9d0009ac                . = ALIGN (0x4)
                0x000009ac                __vector_offset_209 = DEFINED (__vector_dispatch_209)?(. - _ebase_address):__vector_offset_default
 *(.vector_209)
                0x9d0009ac                . = ALIGN (0x4)
                0x000009ac                __vector_offset_210 = DEFINED (__vector_dispatch_210)?(. - _ebase_address):__vector_offset_default
 *(.vector_210)
                0x9d0009ac                . = ALIGN (0x4)
                0x000009ac                __vector_offset_211 = DEFINED (__vector_dispatch_211)?(. - _ebase_address):__vector_offset_default
 *(.vector_211)
                0x9d0009ac                . = ALIGN (0x4)
                0x000009ac                __vector_offset_212 = DEFINED (__vector_dispatch_212)?(. - _ebase_address):__vector_offset_default
 *(.vector_212)
                0x9d0009ac                . = ALIGN (0x4)
                0x000009ac                __vector_offset_213 = DEFINED (__vector_dispatch_213)?(. - _ebase_address):__vector_offset_default
 *(.vector_213)
                0x9d0009ac                . = ALIGN (0x4)
                0x000009ac                __vector_offset_214 = DEFINED (__vector_dispatch_214)?(. - _ebase_address):__vector_offset_default
 *(.vector_214)
                0x9d0009ac                . = ALIGN (0x4)
                0x000009ac                __vector_offset_215 = DEFINED (__vector_dispatch_215)?(. - _ebase_address):__vector_offset_default
 *(.vector_215)
                0x9d0009ac                . = ALIGN (0x4)
                0x000009ac                __vector_offset_216 = DEFINED (__vector_dispatch_216)?(. - _ebase_address):__vector_offset_default
 *(.vector_216)
                0x9d0009ac                . = ALIGN (0x4)
                0x000009ac                __vector_offset_217 = DEFINED (__vector_dispatch_217)?(. - _ebase_address):__vector_offset_default
 *(.vector_217)
                0x9d0009ac                . = ALIGN (0x4)
                0x000009ac                __vector_offset_218 = DEFINED (__vector_dispatch_218)?(. - _ebase_address):__vector_offset_default
 *(.vector_218)
                0x9d0009ac                . = ALIGN (0x4)
                0x000009ac                __vector_offset_219 = DEFINED (__vector_dispatch_219)?(. - _ebase_address):__vector_offset_default
 *(.vector_219)
                0x9d0009ac                . = ALIGN (0x4)
                0x000009ac                __vector_offset_220 = DEFINED (__vector_dispatch_220)?(. - _ebase_address):__vector_offset_default
 *(.vector_220)
                0x9d0009ac                . = ALIGN (0x4)
                0x000009ac                __vector_offset_221 = DEFINED (__vector_dispatch_221)?(. - _ebase_address):__vector_offset_default
 *(.vector_221)
                0x9d0009ac                . = ALIGN (0x4)
                0x000009ac                __vector_offset_222 = DEFINED (__vector_dispatch_222)?(. - _ebase_address):__vector_offset_default
 *(.vector_222)
                0x9d0009ac                . = ALIGN (0x4)
                0x000009ac                __vector_offset_223 = DEFINED (__vector_dispatch_223)?(. - _ebase_address):__vector_offset_default
 *(.vector_223)
                0x9d0009ac                . = ALIGN (0x4)
                0x000009ac                __vector_offset_224 = DEFINED (__vector_dispatch_224)?(. - _ebase_address):__vector_offset_default
 *(.vector_224)
                0x9d0009ac                . = ALIGN (0x4)
                0x000009ac                __vector_offset_225 = DEFINED (__vector_dispatch_225)?(. - _ebase_address):__vector_offset_default
 *(.vector_225)
                0x9d0009ac                . = ALIGN (0x4)
                0x000009ac                __vector_offset_226 = DEFINED (__vector_dispatch_226)?(. - _ebase_address):__vector_offset_default
 *(.vector_226)
                0x9d0009ac                . = ALIGN (0x4)
                0x000009ac                __vector_offset_227 = DEFINED (__vector_dispatch_227)?(. - _ebase_address):__vector_offset_default
 *(.vector_227)
                0x9d0009ac                . = ALIGN (0x4)
                0x000009ac                __vector_offset_228 = DEFINED (__vector_dispatch_228)?(. - _ebase_address):__vector_offset_default
 *(.vector_228)
                0x9d0009ac                . = ALIGN (0x4)
                0x000009ac                __vector_offset_229 = DEFINED (__vector_dispatch_229)?(. - _ebase_address):__vector_offset_default
 *(.vector_229)
                0x9d0009ac                . = ALIGN (0x4)
                0x000009ac                __vector_offset_230 = DEFINED (__vector_dispatch_230)?(. - _ebase_address):__vector_offset_default
 *(.vector_230)
                0x9d0009ac                . = ALIGN (0x4)
                0x000009ac                __vector_offset_231 = DEFINED (__vector_dispatch_231)?(. - _ebase_address):__vector_offset_default
 *(.vector_231)
                0x9d0009ac                . = ALIGN (0x4)
                0x000009ac                __vector_offset_232 = DEFINED (__vector_dispatch_232)?(. - _ebase_address):__vector_offset_default
 *(.vector_232)
                0x9d0009ac                . = ALIGN (0x4)
                0x000009ac                __vector_offset_233 = DEFINED (__vector_dispatch_233)?(. - _ebase_address):__vector_offset_default
 *(.vector_233)
                0x9d0009ac                . = ALIGN (0x4)
                0x000009ac                __vector_offset_234 = DEFINED (__vector_dispatch_234)?(. - _ebase_address):__vector_offset_default
 *(.vector_234)
                0x9d0009ac                . = ALIGN (0x4)
                0x000009ac                __vector_offset_235 = DEFINED (__vector_dispatch_235)?(. - _ebase_address):__vector_offset_default
 *(.vector_235)
                0x9d0009ac                . = ALIGN (0x4)
                0x000009ac                __vector_offset_236 = DEFINED (__vector_dispatch_236)?(. - _ebase_address):__vector_offset_default
 *(.vector_236)
                0x9d0009ac                . = ALIGN (0x4)
                0x000009ac                __vector_offset_237 = DEFINED (__vector_dispatch_237)?(. - _ebase_address):__vector_offset_default
 *(.vector_237)
                0x9d0009ac                . = ALIGN (0x4)
                0x000009ac                __vector_offset_238 = DEFINED (__vector_dispatch_238)?(. - _ebase_address):__vector_offset_default
 *(.vector_238)
                0x9d0009ac                . = ALIGN (0x4)
                0x000009ac                __vector_offset_239 = DEFINED (__vector_dispatch_239)?(. - _ebase_address):__vector_offset_default
 *(.vector_239)
                0x9d0009ac                . = ALIGN (0x4)
                0x000009ac                __vector_offset_240 = DEFINED (__vector_dispatch_240)?(. - _ebase_address):__vector_offset_default
 *(.vector_240)
                0x9d0009ac                . = ALIGN (0x4)
                0x000009ac                __vector_offset_241 = DEFINED (__vector_dispatch_241)?(. - _ebase_address):__vector_offset_default
 *(.vector_241)
                0x9d0009ac                . = ALIGN (0x4)
                0x000009ac                __vector_offset_242 = DEFINED (__vector_dispatch_242)?(. - _ebase_address):__vector_offset_default
 *(.vector_242)
                0x9d0009ac                . = ALIGN (0x4)
                0x000009ac                __vector_offset_243 = DEFINED (__vector_dispatch_243)?(. - _ebase_address):__vector_offset_default
 *(.vector_243)
                0x9d0009ac                . = ALIGN (0x4)
                0x000009ac                __vector_offset_244 = DEFINED (__vector_dispatch_244)?(. - _ebase_address):__vector_offset_default
 *(.vector_244)
                0x9d0009ac                . = ALIGN (0x4)
                0x000009ac                __vector_offset_245 = DEFINED (__vector_dispatch_245)?(. - _ebase_address):__vector_offset_default
 *(.vector_245)
                0x9d0009ac                . = ALIGN (0x4)
                0x000009ac                __vector_offset_246 = DEFINED (__vector_dispatch_246)?(. - _ebase_address):__vector_offset_default
 *(.vector_246)
                0x9d0009ac                . = ALIGN (0x4)
                0x000009ac                __vector_offset_247 = DEFINED (__vector_dispatch_247)?(. - _ebase_address):__vector_offset_default
 *(.vector_247)
                0x9d0009ac                . = ALIGN (0x4)
                0x000009ac                __vector_offset_248 = DEFINED (__vector_dispatch_248)?(. - _ebase_address):__vector_offset_default
 *(.vector_248)
                0x9d0009ac                . = ALIGN (0x4)
                0x000009ac                __vector_offset_249 = DEFINED (__vector_dispatch_249)?(. - _ebase_address):__vector_offset_default
 *(.vector_249)
                0x9d0009ac                . = ALIGN (0x4)
                0x000009ac                __vector_offset_250 = DEFINED (__vector_dispatch_250)?(. - _ebase_address):__vector_offset_default
 *(.vector_250)
                0x9d0009ac                . = ALIGN (0x4)
                0x000009ac                __vector_offset_251 = DEFINED (__vector_dispatch_251)?(. - _ebase_address):__vector_offset_default
 *(.vector_251)
                0x9d0009ac                . = ALIGN (0x4)
                0x000009ac                __vector_offset_252 = DEFINED (__vector_dispatch_252)?(. - _ebase_address):__vector_offset_default
 *(.vector_252)
                0x9d0009ac                . = ALIGN (0x4)
                0x000009ac                __vector_offset_253 = DEFINED (__vector_dispatch_253)?(. - _ebase_address):__vector_offset_default
 *(.vector_253)
                0x9d0009ac                . = ALIGN (0x4)
                0x000009ac                __vector_offset_254 = DEFINED (__vector_dispatch_254)?(. - _ebase_address):__vector_offset_default
 *(.vector_254)
                0x9d0009ac                . = ALIGN (0x4)
                0x000009ac                __vector_offset_255 = DEFINED (__vector_dispatch_255)?(. - _ebase_address):__vector_offset_default
 *(.vector_255)
                0x9d0009ac                . = ALIGN (0x4)
                0x000009ac                __vector_offset_default = (. - _ebase_address)
 *(.vector_default)
 .vector_default
                0x9d0009ac       0x48 /home/programs/XC32/v2.30/bin/bin/../../lib/gcc/pic32mx/4.8.3/../../../../pic32mx/lib/fpu64/libpic32.a(defaultinterrupt.o)
                0x9d0009ac                _DefaultInterrupt

.startup
 *(.startup)

.text           0x9d0009f4        0x0
 *(.stub .gnu.linkonce.t.*)
 *(.text.*personality*)
 *(.mips16.fn.*)
 *(.mips16.call.*)
 *(.gnu.warning)
                0x9d0009f4                . = ALIGN (0x4)

.init           0x9d0009f4        0x0
 *crti.o(.init)
 *crtbegin.o(.init)
 *(EXCLUDE_FILE(*crtn.o *crtend?.o *crtend.o) .init)
 *crtend.o(.init)
 *crtn.o(.init)
                0x9d0009f4                . = ALIGN (0x4)

.fini           0x9d0009f4        0x0
 *(.fini)
                0x9d0009f4                . = ALIGN (0x4)

.preinit_array  0x9d0009f4        0x0
                0x9d0009f4                PROVIDE (__preinit_array_start, .)
 *(.preinit_array)
                0x9d0009f4                PROVIDE (__preinit_array_end, .)
                0x9d0009f4                . = ALIGN (0x4)

.init_array     0x9d0009f4        0x0
                0x9d0009f4                PROVIDE (__init_array_start, .)
 *(SORT(.init_array.*))
 *(.init_array)
                0x9d0009f4                PROVIDE (__init_array_end, .)
                0x9d0009f4                . = ALIGN (0x4)

.fini_array     0x9d0009f4        0x0
                0x9d0009f4                PROVIDE (__fini_array_start, .)
 *(SORT(.fini_array.*))
 *(.fini_array)
                0x9d0009f4                PROVIDE (__fini_array_end, .)
                0x9d0009f4                . = ALIGN (0x4)

.ctors          0x9d0009f4        0x0
 *crtbegin.o(.ctors)
 *crtbegin?.o(.ctors)
 *(EXCLUDE_FILE(*crtend?.o *crtend.o) .ctors)
 *(SORT(.ctors.*))
 *(.ctors)
                0x9d0009f4                . = ALIGN (0x4)

.dtors          0x9d0009f4        0x0
 *crtbegin.o(.dtors)
 *crtbegin?.o(.dtors)
 *(EXCLUDE_FILE(*crtend?.o *crtend.o) .dtors)
 *(SORT(.dtors.*))
 *(.dtors)
                0x9d0009f4                . = ALIGN (0x4)

.rodata         0x9d0009f4        0x0
 *(.gnu.linkonce.r.*)
 *(.rodata1)
                0x9d0009f4                . = ALIGN (0x4)

.sdata2         0x9fc004b0        0x0
 *(.sdata2 .sdata2.* .gnu.linkonce.s2.*)
                0x9fc004b0                . = ALIGN (0x4)

.sbss2          0x9fc004b0        0x0
 *(.sbss2 .sbss2.* .gnu.linkonce.sb2.*)
                0x9fc004b0                . = ALIGN (0x4)

.eh_frame_hdr
 *(.eh_frame_hdr)
                0x9fc004b0                . = ALIGN (0x4)

.eh_frame
 *(.eh_frame)
                0x9fc004b0                . = ALIGN (0x4)

.gcc_except_table
 *(.gcc_except_table .gcc_except_table.*)
                0x9fc004b0                . = ALIGN (0x4)

.dbg_data       0x80000000        0x0
                0x80000000                . = (. + DEFINED (_DEBUGGER)?0x200:0x0)
                0x80000000                . = (. + DEFINED (_DEBUGGER)?0x80:0x0)
                0x80000000                . = (. + DEFINED (_DEBUGGER)?0x100:0x0)

.jcr            0x80000000        0x0
 *(.jcr)
                0x80000000                . = ALIGN (0x4)

.eh_frame
 *(.eh_frame)
                0x80000000                . = ALIGN (0x4)

.gcc_except_table
 *(.gcc_except_table .gcc_except_table.*)
                0x80000000                . = ALIGN (0x4)

.persist        0x80000000        0x0
                0x80000000                _persist_begin = .
 *(.persist .persist.*)
                0x80000000                . = ALIGN (0x4)
                0x80000000                _persist_end = .

.data           0x80000000        0x0
 *(.gnu.linkonce.d.*)
 *(.data1)
                0x80000000                . = ALIGN (0x4)
                0x80000000                . = .
                0x80007ff0                _gp = (ALIGN (0x10) + 0x7ff0)

.got            0x80000000        0x0
 *(.got.plt)
 *(.got)
                0x80000000                . = ALIGN (0x4)

.sdata          0x80000000       0x30
                0x80000000                _sdata_begin = .
 *(.sdata .sdata.* .gnu.linkonce.s.*)
 .sdata         0x80000000        0x4 build/default/production/_ext/23001898/port.o
                0x80000000                uxInterruptNesting
 .sdata         0x80000004        0x4 build/default/production/_ext/1700104339/nm_bus_wrapper_pic32mz.o
                0x80000004                egstrNmBusCapabilities
 .sdata         0x80000008       0x24 /home/programs/XC32/v2.30/bin/bin/../../lib/gcc/pic32mx/4.8.3/../../../../pic32mx/lib/fpu64/libpic32.a(pic32_init_cache.o)
                0x80000008                __pic32_icache_size
                0x8000000c                __pic32_icache_linesize
                0x80000010                __pic32_icache_ways
                0x80000014                __pic32_dcache_size
                0x80000018                __pic32_dcache_linesize
                0x8000001c                __pic32_dcache_ways
                0x80000020                __pic32_scache_size
                0x80000024                __pic32_scache_linesize
                0x80000028                __pic32_scache_ways
 .sdata         0x8000002c        0x4 /home/programs/XC32/v2.30/bin/bin/../../lib/gcc/pic32mx/4.8.3/../../../../pic32mx/lib/fpu64/libpic32.a(xc32_uart.o)
                0x8000002c                __XC_UART
                0x80000030                . = ALIGN (0x4)
                0x80000030                _sdata_end = .

.lit8
 *(.lit8)

.lit4
 *(.lit4)
                0x80000030                . = ALIGN (0x4)
                0x80000030                _data_end = .
                0x80000030                _bss_begin = .

.sbss           0x80000030      0x130
                0x80000030                _sbss_begin = .
 *(.dynsbss)
 *(.sbss .sbss.* .gnu.linkonce.sb.*)
 .sbss          0x80000030       0x10 build/default/production/_ext/1079766828/net.o
 .sbss          0x80000040        0xc build/default/production/_ext/37329846/pic32mz_eth_driver.o
 .sbss          0x8000004c        0x8 build/default/production/_ext/1157531022/wilc1000_driver.o
 .sbss          0x80000054        0x1 build/default/production/_ext/1079766828/ip.o
 *fill*         0x80000055        0x1 
 .sbss          0x80000056        0x2 build/default/production/_ext/1079766828/tcp.o
 .sbss          0x80000058        0x2 build/default/production/_ext/1079766828/udp.o
 *fill*         0x8000005a        0x2 
 .sbss          0x8000005c        0x8 build/default/production/_ext/1360937237/main.o
                0x80000060                initializedValues
 .sbss          0x80000064        0x8 build/default/production/_ext/1360937237/wilc1000_callbacks.o
                0x80000064                numTimesAttempted
                0x80000068                APConnected
 .sbss          0x8000006c        0x8 build/default/production/_ext/23001898/port.o
                0x8000006c                ulTaskHasFPUContext
                0x80000070                uxSavedTaskStackPointer
 .sbss          0x80000074       0x3c build/default/production/_ext/986256546/tasks.o
                0x800000ac                pxCurrentTCB
 .sbss          0x800000b0       0x14 build/default/production/_ext/986256546/timers.o
 .sbss          0x800000c4        0x4 build/default/production/_ext/457051042/nm_bsp_pic32mz.o
 .sbss          0x800000c8       0x10 build/default/production/_ext/1679150795/m2m_hif.o
                0x800000c8                pfHifCb
                0x800000cc                pfWifiCb
 .sbss          0x800000d8       0x1c build/default/production/_ext/1679150795/m2m_wifi.o
                0x800000ec                gpfAppWifiCb
 .sbss          0x800000f4        0x4 build/default/production/_ext/1679150795/nmasic.o
 .sbss          0x800000f8        0x1 build/default/production/_ext/1679150795/nmspi.o
 *fill*         0x800000f9        0x3 
 .sbss          0x800000fc        0x4 build/default/production/_ext/1679150795/spi_flash.o
 *(.scommon)
 .scommon       0x80000100        0xc build/default/production/_ext/1079766828/net.o
                0x80000100                netTaskHandle
                0x80000104                netEvent
                0x80000108                netMutex
 .scommon       0x8000010c        0x4 build/default/production/_ext/1157531022/wilc1000_driver.o
                0x8000010c                currentAP
 .scommon       0x80000110        0x4 build/default/production/_ext/1079766828/nic.o
                0x80000110                nicTickCounter
 .scommon       0x80000114        0x4 build/default/production/_ext/1079587046/arp.o
                0x80000114                arpTickCounter
 .scommon       0x80000118        0x4 build/default/production/_ext/1079587046/ipv4_frag.o
                0x80000118                ipv4FragTickCounter
 .scommon       0x8000011c        0x4 build/default/production/_ext/1079587044/ipv6_frag.o
                0x8000011c                ipv6FragTickCounter
 .scommon       0x80000120        0x4 build/default/production/_ext/1079587044/mld.o
                0x80000120                mldTickCounter
 .scommon       0x80000124        0x4 build/default/production/_ext/1079587044/ndp.o
                0x80000124                ndpTickCounter
 .scommon       0x80000128        0x4 build/default/production/_ext/1079587044/ndp_router_adv.o
                0x80000128                ndpRouterAdvTickCounter
 .scommon       0x8000012c        0x4 build/default/production/_ext/1079766828/tcp.o
                0x8000012c                tcpTickCounter
 .scommon       0x80000130        0x4 build/default/production/_ext/1079766828/udp.o
                0x80000130                udpCallbackMutex
 .scommon       0x80000134        0x4 build/default/production/_ext/242264404/dns_cache.o
                0x80000134                dnsTickCounter
 .scommon       0x80000138        0x4 build/default/production/_ext/1079744218/dhcp_client.o
                0x80000138                dhcpClientTickCounter
 .scommon       0x8000013c        0x4 build/default/production/_ext/1079744218/dhcp_server.o
                0x8000013c                dhcpServerTickCounter
 .scommon       0x80000140        0x4 build/default/production/_ext/18976819/web_socket.o
                0x80000140                webSockRandCallback
 .scommon       0x80000144       0x12 build/default/production/_ext/1360937237/main.o
                0x80000144                currentDevice
                0x80000148                ethMac
                0x8000014e                httpInitialized
                0x8000014f                nodeFailed
                0x80000150                neverReturn
                0x80000151                gatewayFinished
                0x80000152                initConfig
                0x80000153                startWindow
                0x80000154                failedDevice
                0x80000155                gatewayID
 .scommon       0x80000156        0x0 build/default/production/_ext/1360937237/wilc1000_callbacks.o
 .scommon       0x80000156        0x0 build/default/production/_ext/457051042/nm_bsp_pic32mz.o
 .scommon       0x80000156        0x0 build/default/production/_ext/1700104339/nm_bus_wrapper_pic32mz.o
 .scommon       0x80000156        0x0 build/default/production/_ext/1185106856/nm_common.o
 *fill*         0x80000156        0x2 
 .scommon       0x80000158        0x8 build/default/production/_ext/1679150795/m2m_hif.o
                0x80000158                strHifInitParam
 .scommon       0x80000160        0x0 build/default/production/_ext/1679150795/m2m_periph.o
 .scommon       0x80000160        0x0 build/default/production/_ext/1679150795/m2m_wifi.o
 .scommon       0x80000160        0x0 build/default/production/_ext/1679150795/nmasic.o
 .scommon       0x80000160        0x0 build/default/production/_ext/1679150795/nmbus.o
 .scommon       0x80000160        0x0 build/default/production/_ext/1679150795/nmdrv.o
 .scommon       0x80000160        0x0 build/default/production/_ext/1679150795/nmspi.o
 .scommon       0x80000160        0x0 build/default/production/_ext/1679150795/spi_flash.o
 .scommon       0x80000160        0x0 build/default/production/_ext/1022178492/PMK.o
 .scommon       0x80000160        0x0 build/default/production/_ext/1640134129/m2m_wifi_ex.o
                0x80000160                _sbss_end = .
                0x80000160                . = ALIGN (0x4)

.bss            0x80000160     0x928c
 *(.dynbss)
 *(COMMON)
 COMMON         0x80000160     0x24a8 build/default/production/_ext/1079766828/net.o
                0x80000160                netInterface
 COMMON         0x80002608       0xa0 build/default/production/_ext/1079766828/udp.o
                0x80002608                udpCallbackTable
 COMMON         0x800026a8     0x16f8 build/default/production/_ext/1079766828/socket.o
                0x800026a8                socketTable
 COMMON         0x80003da0      0x3e0 build/default/production/_ext/242264404/dns_cache.o
                0x80003da0                dnsCache
 COMMON         0x80004180     0x2780 build/default/production/_ext/18976819/web_socket.o
                0x80004180                webSocketTable
 COMMON         0x80006900     0x2a80 build/default/production/_ext/1360937237/main.o
                0x80006900                dhcpClientContext1
                0x80006978                ndpRouterAdvContext
                0x800069d4                slaacContext1
                0x800069ec                slaacSettings
                0x800069fc                mqttClientContext
                0x80006f88                devList
                0x80007108                httpServerContext
                0x80007178                seed
                0x80007198                dhcpServerContext
                0x80007308                ndpRouterAdvPrefixInfo
                0x8000732c                gatewaytxNum
                0x8000734c                gatewayNodes
                0x8000736c                gatewayRequest
                0x8000738c                gatewayChannel
                0x8000739c                dhcpServerSettings
                0x800073c4                dhcpClientContext0
                0x8000743c                ethMacString
                0x80007450                dhcpClientSettings
                0x8000748c                slaacContext0
                0x800074a4                ndpRouterAdvSettings
                0x800074f0                httpServerSettings
                0x80007550                yarrowContext
                0x80007880                gatewayFinish
                0x800078a0                gatewayTimer
                0x800078c0                httpConnections
 COMMON         0x80009380       0x6c build/default/production/_ext/1679150795/m2m_wifi.o
                0x80009380                guCtrlStruct
                0x800093ec                . = ALIGN ((. != 0x0)?0x4:0x1)
                0x800093ec                . = ALIGN (0x4)
                0x800093ec                _end = .
                0x800093ec                _bss_end = .
                0x00080000                _bmxdudba_address = 0x80000
                0x00080000                _bmxdupba_address = 0x80000

/DISCARD/
 *(.pdr)
 *(.rel.dyn)
 *(.note.GNU-stack)
 *(.note.GNU-stack)
 *(.gnu_debuglink)
 *(.gnu.lto_*)
 *(.discard)

.gptab.sdata
 *(.gptab.data)
 *(.gptab.sdata)

.gptab.sbss
 *(.gptab.bss)
 *(.gptab.sbss)

.mdebug.abi32   0x00000000        0x0
 *(.mdebug.abi32)
 .mdebug.abi32  0x00000000        0x0 build/default/production/_ext/360186330/cpu_endian.o
 .mdebug.abi32  0x00000000        0x0 build/default/production/_ext/360186330/os_port_freertos.o
 .mdebug.abi32  0x00000000        0x0 build/default/production/_ext/360186330/date_time.o
 .mdebug.abi32  0x00000000        0x0 build/default/production/_ext/360186330/str.o
 .mdebug.abi32  0x00000000        0x0 build/default/production/_ext/360186330/path.o
 .mdebug.abi32  0x00000000        0x0 build/default/production/_ext/360186330/resource_manager.o
 .mdebug.abi32  0x00000000        0x0 build/default/production/_ext/120521611/md5.o
 .mdebug.abi32  0x00000000        0x0 build/default/production/_ext/120521611/sha1.o
 .mdebug.abi32  0x00000000        0x0 build/default/production/_ext/120521611/sha224.o
 .mdebug.abi32  0x00000000        0x0 build/default/production/_ext/120521611/sha256.o
 .mdebug.abi32  0x00000000        0x0 build/default/production/_ext/120521611/sha384.o
 .mdebug.abi32  0x00000000        0x0 build/default/production/_ext/120521611/sha512.o
 .mdebug.abi32  0x00000000        0x0 build/default/production/_ext/273211656/hmac.o
 .mdebug.abi32  0x00000000        0x0 build/default/production/_ext/7005106/rc4.o
 .mdebug.abi32  0x00000000        0x0 build/default/production/_ext/7005106/idea.o
 .mdebug.abi32  0x00000000        0x0 build/default/production/_ext/7005106/des.o
 .mdebug.abi32  0x00000000        0x0 build/default/production/_ext/7005106/des3.o
 .mdebug.abi32  0x00000000        0x0 build/default/production/_ext/7005106/aes.o
 .mdebug.abi32  0x00000000        0x0 build/default/production/_ext/7005106/camellia.o
 .mdebug.abi32  0x00000000        0x0 build/default/production/_ext/7005106/seed.o
 .mdebug.abi32  0x00000000        0x0 build/default/production/_ext/7005106/aria.o
 .mdebug.abi32  0x00000000        0x0 build/default/production/_ext/1125617168/cbc.o
 .mdebug.abi32  0x00000000        0x0 build/default/production/_ext/120726866/ccm.o
 .mdebug.abi32  0x00000000        0x0 build/default/production/_ext/120726866/gcm.o
 .mdebug.abi32  0x00000000        0x0 build/default/production/_ext/7005106/chacha.o
 .mdebug.abi32  0x00000000        0x0 build/default/production/_ext/273211656/poly1305.o
 .mdebug.abi32  0x00000000        0x0 build/default/production/_ext/120726866/chacha20_poly1305.o
 .mdebug.abi32  0x00000000        0x0 build/default/production/_ext/273214849/dh.o
 .mdebug.abi32  0x00000000        0x0 build/default/production/_ext/273214849/rsa.o
 .mdebug.abi32  0x00000000        0x0 build/default/production/_ext/273214849/dsa.o
 .mdebug.abi32  0x00000000        0x0 build/default/production/_ext/273204030/ec.o
 .mdebug.abi32  0x00000000        0x0 build/default/production/_ext/273204030/ec_curves.o
 .mdebug.abi32  0x00000000        0x0 build/default/production/_ext/273204030/ecdh.o
 .mdebug.abi32  0x00000000        0x0 build/default/production/_ext/273204030/ecdsa.o
 .mdebug.abi32  0x00000000        0x0 build/default/production/_ext/273204030/eddsa.o
 .mdebug.abi32  0x00000000        0x0 build/default/production/_ext/273204030/curve25519.o
 .mdebug.abi32  0x00000000        0x0 build/default/production/_ext/273204030/curve448.o
 .mdebug.abi32  0x00000000        0x0 build/default/production/_ext/273204030/x25519.o
 .mdebug.abi32  0x00000000        0x0 build/default/production/_ext/273204030/x448.o
 .mdebug.abi32  0x00000000        0x0 build/default/production/_ext/273204030/ed25519.o
 .mdebug.abi32  0x00000000        0x0 build/default/production/_ext/273204030/ed448.o
 .mdebug.abi32  0x00000000        0x0 build/default/production/_ext/273212127/mpi.o
 .mdebug.abi32  0x00000000        0x0 build/default/production/_ext/1404394810/base64.o
 .mdebug.abi32  0x00000000        0x0 build/default/production/_ext/1404394810/asn1.o
 .mdebug.abi32  0x00000000        0x0 build/default/production/_ext/1404394810/oid.o
 .mdebug.abi32  0x00000000        0x0 build/default/production/_ext/120273967/pem_import.o
 .mdebug.abi32  0x00000000        0x0 build/default/production/_ext/120273967/pkcs8_key_parse.o
 .mdebug.abi32  0x00000000        0x0 build/default/production/_ext/120273967/x509_key_parse.o
 .mdebug.abi32  0x00000000        0x0 build/default/production/_ext/120273967/x509_cert_parse.o
 .mdebug.abi32  0x00000000        0x0 build/default/production/_ext/120273967/x509_cert_validate.o
 .mdebug.abi32  0x00000000        0x0 build/default/production/_ext/120273967/x509_crl_parse.o
 .mdebug.abi32  0x00000000        0x0 build/default/production/_ext/120273967/x509_crl_validate.o
 .mdebug.abi32  0x00000000        0x0 build/default/production/_ext/120273967/x509_common.o
 .mdebug.abi32  0x00000000        0x0 build/default/production/_ext/273209830/hkdf.o
 .mdebug.abi32  0x00000000        0x0 build/default/production/_ext/273216868/yarrow.o
 .mdebug.abi32  0x00000000        0x0 build/default/production/_ext/476983781/tls.o
 .mdebug.abi32  0x00000000        0x0 build/default/production/_ext/476983781/tls_cipher_suites.o
 .mdebug.abi32  0x00000000        0x0 build/default/production/_ext/476983781/tls_handshake.o
 .mdebug.abi32  0x00000000        0x0 build/default/production/_ext/476983781/tls_client.o
 .mdebug.abi32  0x00000000        0x0 build/default/production/_ext/476983781/tls_client_fsm.o
 .mdebug.abi32  0x00000000        0x0 build/default/production/_ext/476983781/tls_client_extensions.o
 .mdebug.abi32  0x00000000        0x0 build/default/production/_ext/476983781/tls_client_misc.o
 .mdebug.abi32  0x00000000        0x0 build/default/production/_ext/476983781/tls_server.o
 .mdebug.abi32  0x00000000        0x0 build/default/production/_ext/476983781/tls_server_fsm.o
 .mdebug.abi32  0x00000000        0x0 build/default/production/_ext/476983781/tls_server_extensions.o
 .mdebug.abi32  0x00000000        0x0 build/default/production/_ext/476983781/tls_server_misc.o
 .mdebug.abi32  0x00000000        0x0 build/default/production/_ext/476983781/tls_common.o
 .mdebug.abi32  0x00000000        0x0 build/default/production/_ext/476983781/tls_extensions.o
 .mdebug.abi32  0x00000000        0x0 build/default/production/_ext/476983781/tls_certificate.o
 .mdebug.abi32  0x00000000        0x0 build/default/production/_ext/476983781/tls_signature.o
 .mdebug.abi32  0x00000000        0x0 build/default/production/_ext/476983781/tls_key_material.o
 .mdebug.abi32  0x00000000        0x0 build/default/production/_ext/476983781/tls_transcript_hash.o
 .mdebug.abi32  0x00000000        0x0 build/default/production/_ext/476983781/tls_cache.o
 .mdebug.abi32  0x00000000        0x0 build/default/production/_ext/476983781/tls_ticket.o
 .mdebug.abi32  0x00000000        0x0 build/default/production/_ext/476983781/tls_ffdhe.o
 .mdebug.abi32  0x00000000        0x0 build/default/production/_ext/476983781/tls_record.o
 .mdebug.abi32  0x00000000        0x0 build/default/production/_ext/476983781/tls_record_encryption.o
 .mdebug.abi32  0x00000000        0x0 build/default/production/_ext/476983781/tls_record_decryption.o
 .mdebug.abi32  0x00000000        0x0 build/default/production/_ext/476983781/tls_misc.o
 .mdebug.abi32  0x00000000        0x0 build/default/production/_ext/476983781/tls13_client.o
 .mdebug.abi32  0x00000000        0x0 build/default/production/_ext/476983781/tls13_client_extensions.o
 .mdebug.abi32  0x00000000        0x0 build/default/production/_ext/476983781/tls13_client_misc.o
 .mdebug.abi32  0x00000000        0x0 build/default/production/_ext/476983781/tls13_server.o
 .mdebug.abi32  0x00000000        0x0 build/default/production/_ext/476983781/tls13_server_extensions.o
 .mdebug.abi32  0x00000000        0x0 build/default/production/_ext/476983781/tls13_server_misc.o
 .mdebug.abi32  0x00000000        0x0 build/default/production/_ext/476983781/tls13_common.o
 .mdebug.abi32  0x00000000        0x0 build/default/production/_ext/476983781/tls13_key_material.o
 .mdebug.abi32  0x00000000        0x0 build/default/production/_ext/476983781/tls13_misc.o
 .mdebug.abi32  0x00000000        0x0 build/default/production/_ext/476983781/ssl_misc.o
 .mdebug.abi32  0x00000000        0x0 build/default/production/_ext/1079766828/net.o
 .mdebug.abi32  0x00000000        0x0 build/default/production/_ext/1079766828/net_mem.o
 .mdebug.abi32  0x00000000        0x0 build/default/production/_ext/37329846/pic32mz_eth_driver.o
 .mdebug.abi32  0x00000000        0x0 build/default/production/_ext/37332968/lan8720_driver.o
 .mdebug.abi32  0x00000000        0x0 build/default/production/_ext/1157531022/wilc1000_driver.o
 .mdebug.abi32  0x00000000        0x0 build/default/production/_ext/1079766828/nic.o
 .mdebug.abi32  0x00000000        0x0 build/default/production/_ext/1079766828/ethernet.o
 .mdebug.abi32  0x00000000        0x0 build/default/production/_ext/1079766828/ethernet_misc.o
 .mdebug.abi32  0x00000000        0x0 build/default/production/_ext/1079587046/arp.o
 .mdebug.abi32  0x00000000        0x0 build/default/production/_ext/1079587046/ipv4.o
 .mdebug.abi32  0x00000000        0x0 build/default/production/_ext/1079587046/ipv4_frag.o
 .mdebug.abi32  0x00000000        0x0 build/default/production/_ext/1079587046/ipv4_misc.o
 .mdebug.abi32  0x00000000        0x0 build/default/production/_ext/1079587046/icmp.o
 .mdebug.abi32  0x00000000        0x0 build/default/production/_ext/1079587046/igmp.o
 .mdebug.abi32  0x00000000        0x0 build/default/production/_ext/1079587044/ipv6.o
 .mdebug.abi32  0x00000000        0x0 build/default/production/_ext/1079587044/ipv6_frag.o
 .mdebug.abi32  0x00000000        0x0 build/default/production/_ext/1079587044/ipv6_misc.o
 .mdebug.abi32  0x00000000        0x0 build/default/production/_ext/1079587044/ipv6_pmtu.o
 .mdebug.abi32  0x00000000        0x0 build/default/production/_ext/1079587044/icmpv6.o
 .mdebug.abi32  0x00000000        0x0 build/default/production/_ext/1079587044/mld.o
 .mdebug.abi32  0x00000000        0x0 build/default/production/_ext/1079587044/ndp.o
 .mdebug.abi32  0x00000000        0x0 build/default/production/_ext/1079587044/ndp_cache.o
 .mdebug.abi32  0x00000000        0x0 build/default/production/_ext/1079587044/ndp_misc.o
 .mdebug.abi32  0x00000000        0x0 build/default/production/_ext/1079587044/ndp_router_adv.o
 .mdebug.abi32  0x00000000        0x0 build/default/production/_ext/1079587044/slaac.o
 .mdebug.abi32  0x00000000        0x0 build/default/production/_ext/1079766828/ip.o
 .mdebug.abi32  0x00000000        0x0 build/default/production/_ext/1079766828/tcp.o
 .mdebug.abi32  0x00000000        0x0 build/default/production/_ext/1079766828/tcp_fsm.o
 .mdebug.abi32  0x00000000        0x0 build/default/production/_ext/1079766828/tcp_misc.o
 .mdebug.abi32  0x00000000        0x0 build/default/production/_ext/1079766828/tcp_timer.o
 .mdebug.abi32  0x00000000        0x0 build/default/production/_ext/1079766828/udp.o
 .mdebug.abi32  0x00000000        0x0 build/default/production/_ext/1079766828/socket.o
 .mdebug.abi32  0x00000000        0x0 build/default/production/_ext/1079766828/bsd_socket.o
 .mdebug.abi32  0x00000000        0x0 build/default/production/_ext/1079766828/raw_socket.o
 .mdebug.abi32  0x00000000        0x0 build/default/production/_ext/242264404/dns_cache.o
 .mdebug.abi32  0x00000000        0x0 build/default/production/_ext/242264404/dns_client.o
 .mdebug.abi32  0x00000000        0x0 build/default/production/_ext/242264404/dns_common.o
 .mdebug.abi32  0x00000000        0x0 build/default/production/_ext/242264404/dns_debug.o
 .mdebug.abi32  0x00000000        0x0 build/default/production/_ext/1079479599/mdns_client.o
 .mdebug.abi32  0x00000000        0x0 build/default/production/_ext/1079479599/mdns_responder.o
 .mdebug.abi32  0x00000000        0x0 build/default/production/_ext/1079479599/mdns_common.o
 .mdebug.abi32  0x00000000        0x0 build/default/production/_ext/1435316685/nbns_client.o
 .mdebug.abi32  0x00000000        0x0 build/default/production/_ext/1435316685/nbns_responder.o
 .mdebug.abi32  0x00000000        0x0 build/default/production/_ext/1435316685/nbns_common.o
 .mdebug.abi32  0x00000000        0x0 build/default/production/_ext/895184604/llmnr_client.o
 .mdebug.abi32  0x00000000        0x0 build/default/production/_ext/895184604/llmnr_responder.o
 .mdebug.abi32  0x00000000        0x0 build/default/production/_ext/895184604/llmnr_common.o
 .mdebug.abi32  0x00000000        0x0 build/default/production/_ext/1079744218/dhcp_client.o
 .mdebug.abi32  0x00000000        0x0 build/default/production/_ext/1079744218/dhcp_server.o
 .mdebug.abi32  0x00000000        0x0 build/default/production/_ext/1079744218/dhcp_common.o
 .mdebug.abi32  0x00000000        0x0 build/default/production/_ext/1079744218/dhcp_debug.o
 .mdebug.abi32  0x00000000        0x0 build/default/production/_ext/1079612995/http_server.o
 .mdebug.abi32  0x00000000        0x0 build/default/production/_ext/1079612995/http_server_auth.o
 .mdebug.abi32  0x00000000        0x0 build/default/production/_ext/1079612995/http_server_misc.o
 .mdebug.abi32  0x00000000        0x0 build/default/production/_ext/1079612995/mime.o
 .mdebug.abi32  0x00000000        0x0 build/default/production/_ext/1079612995/ssi.o
 .mdebug.abi32  0x00000000        0x0 build/default/production/_ext/1079466919/mqtt_client.o
 .mdebug.abi32  0x00000000        0x0 build/default/production/_ext/1079466919/mqtt_client_misc.o
 .mdebug.abi32  0x00000000        0x0 build/default/production/_ext/1079466919/mqtt_client_packet.o
 .mdebug.abi32  0x00000000        0x0 build/default/production/_ext/1079466919/mqtt_client_transport.o
 .mdebug.abi32  0x00000000        0x0 build/default/production/_ext/18976819/web_socket.o
 .mdebug.abi32  0x00000000        0x0 build/default/production/_ext/18976819/web_socket_auth.o
 .mdebug.abi32  0x00000000        0x0 build/default/production/_ext/18976819/web_socket_frame.o
 .mdebug.abi32  0x00000000        0x0 build/default/production/_ext/18976819/web_socket_misc.o
 .mdebug.abi32  0x00000000        0x0 build/default/production/_ext/18976819/web_socket_transport.o
 .mdebug.abi32  0x00000000        0x0 build/default/production/_ext/1360937237/main.o
 .mdebug.abi32  0x00000000        0x0 build/default/production/_ext/1360937237/debug.o
 .mdebug.abi32  0x00000000        0x0 build/default/production/_ext/1360937237/sprintf.o
 .mdebug.abi32  0x00000000        0x0 build/default/production/_ext/1360937237/strtok_r.o
 .mdebug.abi32  0x00000000        0x0 build/default/production/_ext/1360937237/wilc1000_callbacks.o
 .mdebug.abi32  0x00000000        0x0 build/default/production/_ext/1360937237/res.o
 .mdebug.abi32  0x00000000        0x0 build/default/production/_ext/23001898/port.o
 .mdebug.abi32  0x00000000        0x0 build/default/production/_ext/986256546/croutine.o
 .mdebug.abi32  0x00000000        0x0 build/default/production/_ext/986256546/list.o
 .mdebug.abi32  0x00000000        0x0 build/default/production/_ext/986256546/queue.o
 .mdebug.abi32  0x00000000        0x0 build/default/production/_ext/986256546/tasks.o
 .mdebug.abi32  0x00000000        0x0 build/default/production/_ext/986256546/timers.o
 .mdebug.abi32  0x00000000        0x0 build/default/production/_ext/979089083/heap_3.o
 .mdebug.abi32  0x00000000        0x0 build/default/production/_ext/457051042/nm_bsp_pic32mz.o
 .mdebug.abi32  0x00000000        0x0 build/default/production/_ext/1700104339/nm_bus_wrapper_pic32mz.o
 .mdebug.abi32  0x00000000        0x0 build/default/production/_ext/1185106856/nm_common.o
 .mdebug.abi32  0x00000000        0x0 build/default/production/_ext/1679150795/m2m_hif.o
 .mdebug.abi32  0x00000000        0x0 build/default/production/_ext/1679150795/m2m_periph.o
 .mdebug.abi32  0x00000000        0x0 build/default/production/_ext/1679150795/m2m_wifi.o
 .mdebug.abi32  0x00000000        0x0 build/default/production/_ext/1679150795/nmasic.o
 .mdebug.abi32  0x00000000        0x0 build/default/production/_ext/1679150795/nmbus.o
 .mdebug.abi32  0x00000000        0x0 build/default/production/_ext/1679150795/nmdrv.o
 .mdebug.abi32  0x00000000        0x0 build/default/production/_ext/1679150795/nmspi.o
 .mdebug.abi32  0x00000000        0x0 build/default/production/_ext/1679150795/spi_flash.o
 .mdebug.abi32  0x00000000        0x0 build/default/production/_ext/1022178492/PMK.o
 .mdebug.abi32  0x00000000        0x0 build/default/production/_ext/1640134129/m2m_wifi_ex.o
 .mdebug.abi32  0x00000000        0x0 /home/programs/XC32/v2.30/bin/bin/../../lib/gcc/pic32mx/4.8.3/../../../../pic32mx/lib/fpu64/libpic32.a(default-bootstrap-exception-handler.o)
 .mdebug.abi32  0x00000000        0x0 /home/programs/XC32/v2.30/bin/bin/../../lib/gcc/pic32mx/4.8.3/../../../../pic32mx/lib/fpu64/libpic32.a(default-on-reset.o)
 .mdebug.abi32  0x00000000        0x0 /home/programs/XC32/v2.30/bin/bin/../../lib/gcc/pic32mx/4.8.3/../../../../pic32mx/lib/fpu64/libpic32.a(default-on-bootstrap.o)
 .mdebug.abi32  0x00000000        0x0 /home/programs/XC32/v2.30/bin/bin/../../lib/gcc/pic32mx/4.8.3/../../../../pic32mx/lib/fpu64/libpic32.a(defaultinterrupt.o)
 .mdebug.abi32  0x00000000        0x0 /home/programs/XC32/v2.30/bin/bin/../../lib/gcc/pic32mx/4.8.3/../../../../pic32mx/lib/fpu64/libpic32.a(default-general-exception-handler.o)
 .mdebug.abi32  0x00000000        0x0 /home/programs/XC32/v2.30/bin/bin/../../lib/gcc/pic32mx/4.8.3/../../../../pic32mx/lib/fpu64/libpic32.a(default-cache-err-exception-handler.o)
 .mdebug.abi32  0x00000000        0x0 /home/programs/XC32/v2.30/bin/bin/../../lib/gcc/pic32mx/4.8.3/../../../../pic32mx/lib/fpu64/libpic32.a(default-simple-tlb-refill-exception-handler.o)
 .mdebug.abi32  0x00000000        0x0 /home/programs/XC32/v2.30/bin/bin/../../lib/gcc/pic32mx/4.8.3/../../../../pic32mx/lib/fpu64/libc.a(_iob.o)
 .mdebug.abi32  0x00000000        0x0 /home/programs/XC32/v2.30/bin/bin/../../lib/gcc/pic32mx/4.8.3/../../../../pic32mx/lib/fpu64/libc.a(fwrite.o)
 .mdebug.abi32  0x00000000        0x0 /home/programs/XC32/v2.30/bin/bin/../../lib/gcc/pic32mx/4.8.3/../../../../pic32mx/lib/fpu64/libc.a(atoi.o)
 .mdebug.abi32  0x00000000        0x0 /home/programs/XC32/v2.30/bin/bin/../../lib/gcc/pic32mx/4.8.3/../../../../pic32mx/lib/fpu64/libc.a(ctype.o)
 .mdebug.abi32  0x00000000        0x0 /home/programs/XC32/v2.30/bin/bin/../../lib/gcc/pic32mx/4.8.3/../../../../pic32mx/lib/fpu64/libc.a(ctypef.o)
 .mdebug.abi32  0x00000000        0x0 /home/programs/XC32/v2.30/bin/bin/../../lib/gcc/pic32mx/4.8.3/../../../../pic32mx/lib/fpu64/libc.a(malloc.o)
 .mdebug.abi32  0x00000000        0x0 /home/programs/XC32/v2.30/bin/bin/../../lib/gcc/pic32mx/4.8.3/../../../../pic32mx/lib/fpu64/libc.a(memmove.o)
 .mdebug.abi32  0x00000000        0x0 /home/programs/XC32/v2.30/bin/bin/../../lib/gcc/pic32mx/4.8.3/../../../../pic32mx/lib/fpu64/libc.a(puts.o)
 .mdebug.abi32  0x00000000        0x0 /home/programs/XC32/v2.30/bin/bin/../../lib/gcc/pic32mx/4.8.3/../../../../pic32mx/lib/fpu64/libc.a(strchr.o)
 .mdebug.abi32  0x00000000        0x0 /home/programs/XC32/v2.30/bin/bin/../../lib/gcc/pic32mx/4.8.3/../../../../pic32mx/lib/fpu64/libc.a(strcasecmp.o)
 .mdebug.abi32  0x00000000        0x0 /home/programs/XC32/v2.30/bin/bin/../../lib/gcc/pic32mx/4.8.3/../../../../pic32mx/lib/fpu64/libc.a(strncasecmp.o)
 .mdebug.abi32  0x00000000        0x0 /home/programs/XC32/v2.30/bin/bin/../../lib/gcc/pic32mx/4.8.3/../../../../pic32mx/lib/fpu64/libc.a(strncat.o)
 .mdebug.abi32  0x00000000        0x0 /home/programs/XC32/v2.30/bin/bin/../../lib/gcc/pic32mx/4.8.3/../../../../pic32mx/lib/fpu64/libc.a(strncmp.o)
 .mdebug.abi32  0x00000000        0x0 /home/programs/XC32/v2.30/bin/bin/../../lib/gcc/pic32mx/4.8.3/../../../../pic32mx/lib/fpu64/libc.a(strncpy.o)
 .mdebug.abi32  0x00000000        0x0 /home/programs/XC32/v2.30/bin/bin/../../lib/gcc/pic32mx/4.8.3/../../../../pic32mx/lib/fpu64/libc.a(strrchr.o)
 .mdebug.abi32  0x00000000        0x0 /home/programs/XC32/v2.30/bin/bin/../../lib/gcc/pic32mx/4.8.3/../../../../pic32mx/lib/fpu64/libc.a(strtok.o)
 .mdebug.abi32  0x00000000        0x0 /home/programs/XC32/v2.30/bin/bin/../../lib/gcc/pic32mx/4.8.3/../../../../pic32mx/lib/fpu64/libc.a(strtol.o)
 .mdebug.abi32  0x00000000        0x0 /home/programs/XC32/v2.30/bin/bin/../../lib/gcc/pic32mx/4.8.3/../../../../pic32mx/lib/fpu64/libc.a(fprintf_cdnopsuxX.eo)
 .mdebug.abi32  0x00000000        0x0 /home/programs/XC32/v2.30/bin/bin/../../lib/gcc/pic32mx/4.8.3/../../../../pic32mx/lib/fpu64/libc.a(fflush.o)
 .mdebug.abi32  0x00000000        0x0 /home/programs/XC32/v2.30/bin/bin/../../lib/gcc/pic32mx/4.8.3/../../../../pic32mx/lib/fpu64/libc.a(fseek.o)
 .mdebug.abi32  0x00000000        0x0 /home/programs/XC32/v2.30/bin/bin/../../lib/gcc/pic32mx/4.8.3/../../../../pic32mx/lib/fpu64/libc.a(errno.o)
 .mdebug.abi32  0x00000000        0x0 /home/programs/XC32/v2.30/bin/bin/../../lib/gcc/pic32mx/4.8.3/../../../../pic32mx/lib/fpu64/libc.a(strcspn.o)
 .mdebug.abi32  0x00000000        0x0 /home/programs/XC32/v2.30/bin/bin/../../lib/gcc/pic32mx/4.8.3/../../../../pic32mx/lib/fpu64/libc.a(strspn.o)
 .mdebug.abi32  0x00000000        0x0 /home/programs/XC32/v2.30/bin/bin/../../lib/gcc/pic32mx/4.8.3/../../../../pic32mx/lib/fpu64/libc.a(doprnt_cdnopsuxX.eo)
 .mdebug.abi32  0x00000000        0x0 /home/programs/XC32/v2.30/bin/bin/../../lib/gcc/pic32mx/4.8.3/fpu64/libgcc.a(_udivdi3.o)
 .mdebug.abi32  0x00000000        0x0 /home/programs/XC32/v2.30/bin/bin/../../lib/gcc/pic32mx/4.8.3/fpu64/libgcc.a(_umoddi3.o)
 .mdebug.abi32  0x00000000        0x0 /home/programs/XC32/v2.30/bin/bin/../../lib/gcc/pic32mx/4.8.3/../../../../pic32mx/lib/fpu64/libpic32.a(sbrk.o)
 .mdebug.abi32  0x00000000        0x0 /home/programs/XC32/v2.30/bin/bin/../../lib/gcc/pic32mx/4.8.3/../../../../pic32mx/lib/fpu64/libpic32.a(write.o)
 .mdebug.abi32  0x00000000        0x0 /home/programs/XC32/v2.30/bin/bin/../../lib/gcc/pic32mx/4.8.3/../../../../pic32mx/lib/fpu64/libpic32.a(lseek.o)
 .mdebug.abi32  0x00000000        0x0 /home/programs/XC32/v2.30/bin/bin/../../lib/gcc/pic32mx/4.8.3/../../../../pic32mx/lib/fpu64/libpic32.a(_mon_putc.o)
 .mdebug.abi32  0x00000000        0x0 /home/programs/XC32/v2.30/bin/bin/../../lib/gcc/pic32mx/4.8.3/../../../../pic32mx/lib/fpu64/libpic32.a(xc32_uart.o)

.mdebug.abiN32
 *(.mdebug.abiN32)

.mdebug.abi64
 *(.mdebug.abi64)

.mdebug.abiO64
 *(.mdebug.abiO64)

.mdebug.eabi32
 *(.mdebug.eabi32)

.mdebug.eabi64
 *(.mdebug.eabi64)

.gcc_compiled_long32
 *(.gcc_compiled_long32)

.gcc_compiled_long64
 *(.gcc_compiled_long64)

.stab
 *(.stab)

.stabstr
 *(.stabstr)

.stab.excl
 *(.stab.excl)

.stab.exclstr
 *(.stab.exclstr)

.stab.index
 *(.stab.index)

.stab.indexstr
 *(.stab.indexstr)

.comment        0x00000000      0x19f
 *(.comment)
 .comment       0x00000000       0x3c build/default/production/_ext/360186330/cpu_endian.o
                                 0x3d (size before relaxing)
 .comment       0x00000000       0x3d build/default/production/_ext/360186330/os_port_freertos.o
 .comment       0x00000000       0x3d build/default/production/_ext/360186330/date_time.o
 .comment       0x00000000       0x3d build/default/production/_ext/360186330/str.o
 .comment       0x00000000       0x3d build/default/production/_ext/360186330/path.o
 .comment       0x00000000       0x3d build/default/production/_ext/360186330/resource_manager.o
 .comment       0x00000000       0x3d build/default/production/_ext/120521611/md5.o
 .comment       0x00000000       0x3d build/default/production/_ext/120521611/sha1.o
 .comment       0x00000000       0x3d build/default/production/_ext/120521611/sha224.o
 .comment       0x00000000       0x3d build/default/production/_ext/120521611/sha256.o
 .comment       0x00000000       0x3d build/default/production/_ext/120521611/sha384.o
 .comment       0x00000000       0x3d build/default/production/_ext/120521611/sha512.o
 .comment       0x00000000       0x3d build/default/production/_ext/273211656/hmac.o
 .comment       0x00000000       0x3d build/default/production/_ext/7005106/rc4.o
 .comment       0x00000000       0x3d build/default/production/_ext/7005106/idea.o
 .comment       0x00000000       0x3d build/default/production/_ext/7005106/des.o
 .comment       0x00000000       0x3d build/default/production/_ext/7005106/des3.o
 .comment       0x00000000       0x3d build/default/production/_ext/7005106/aes.o
 .comment       0x00000000       0x3d build/default/production/_ext/7005106/camellia.o
 .comment       0x00000000       0x3d build/default/production/_ext/7005106/seed.o
 .comment       0x00000000       0x3d build/default/production/_ext/7005106/aria.o
 .comment       0x00000000       0x3d build/default/production/_ext/1125617168/cbc.o
 .comment       0x00000000       0x3d build/default/production/_ext/120726866/ccm.o
 .comment       0x00000000       0x3d build/default/production/_ext/120726866/gcm.o
 .comment       0x00000000       0x3d build/default/production/_ext/7005106/chacha.o
 .comment       0x00000000       0x3d build/default/production/_ext/273211656/poly1305.o
 .comment       0x00000000       0x3d build/default/production/_ext/120726866/chacha20_poly1305.o
 .comment       0x00000000       0x3d build/default/production/_ext/273214849/dh.o
 .comment       0x00000000       0x3d build/default/production/_ext/273214849/rsa.o
 .comment       0x00000000       0x3d build/default/production/_ext/273214849/dsa.o
 .comment       0x00000000       0x3d build/default/production/_ext/273204030/ec.o
 .comment       0x00000000       0x3d build/default/production/_ext/273204030/ec_curves.o
 .comment       0x00000000       0x3d build/default/production/_ext/273204030/ecdh.o
 .comment       0x00000000       0x3d build/default/production/_ext/273204030/ecdsa.o
 .comment       0x00000000       0x3d build/default/production/_ext/273204030/eddsa.o
 .comment       0x00000000       0x3d build/default/production/_ext/273204030/curve25519.o
 .comment       0x00000000       0x3d build/default/production/_ext/273204030/curve448.o
 .comment       0x00000000       0x3d build/default/production/_ext/273204030/x25519.o
 .comment       0x00000000       0x3d build/default/production/_ext/273204030/x448.o
 .comment       0x00000000       0x3d build/default/production/_ext/273204030/ed25519.o
 .comment       0x00000000       0x3d build/default/production/_ext/273204030/ed448.o
 .comment       0x00000000       0x3d build/default/production/_ext/273212127/mpi.o
 .comment       0x00000000       0x3d build/default/production/_ext/1404394810/base64.o
 .comment       0x00000000       0x3d build/default/production/_ext/1404394810/asn1.o
 .comment       0x00000000       0x3d build/default/production/_ext/1404394810/oid.o
 .comment       0x00000000       0x3d build/default/production/_ext/120273967/pem_import.o
 .comment       0x00000000       0x3d build/default/production/_ext/120273967/pkcs8_key_parse.o
 .comment       0x00000000       0x3d build/default/production/_ext/120273967/x509_key_parse.o
 .comment       0x00000000       0x3d build/default/production/_ext/120273967/x509_cert_parse.o
 .comment       0x00000000       0x3d build/default/production/_ext/120273967/x509_cert_validate.o
 .comment       0x00000000       0x3d build/default/production/_ext/120273967/x509_crl_parse.o
 .comment       0x00000000       0x3d build/default/production/_ext/120273967/x509_crl_validate.o
 .comment       0x00000000       0x3d build/default/production/_ext/120273967/x509_common.o
 .comment       0x00000000       0x3d build/default/production/_ext/273209830/hkdf.o
 .comment       0x00000000       0x3d build/default/production/_ext/273216868/yarrow.o
 .comment       0x00000000       0x3d build/default/production/_ext/476983781/tls.o
 .comment       0x00000000       0x3d build/default/production/_ext/476983781/tls_cipher_suites.o
 .comment       0x00000000       0x3d build/default/production/_ext/476983781/tls_handshake.o
 .comment       0x00000000       0x3d build/default/production/_ext/476983781/tls_client.o
 .comment       0x00000000       0x3d build/default/production/_ext/476983781/tls_client_fsm.o
 .comment       0x00000000       0x3d build/default/production/_ext/476983781/tls_client_extensions.o
 .comment       0x00000000       0x3d build/default/production/_ext/476983781/tls_client_misc.o
 .comment       0x00000000       0x3d build/default/production/_ext/476983781/tls_server.o
 .comment       0x00000000       0x3d build/default/production/_ext/476983781/tls_server_fsm.o
 .comment       0x00000000       0x3d build/default/production/_ext/476983781/tls_server_extensions.o
 .comment       0x00000000       0x3d build/default/production/_ext/476983781/tls_server_misc.o
 .comment       0x00000000       0x3d build/default/production/_ext/476983781/tls_common.o
 .comment       0x00000000       0x3d build/default/production/_ext/476983781/tls_extensions.o
 .comment       0x00000000       0x3d build/default/production/_ext/476983781/tls_certificate.o
 .comment       0x00000000       0x3d build/default/production/_ext/476983781/tls_signature.o
 .comment       0x00000000       0x3d build/default/production/_ext/476983781/tls_key_material.o
 .comment       0x00000000       0x3d build/default/production/_ext/476983781/tls_transcript_hash.o
 .comment       0x00000000       0x3d build/default/production/_ext/476983781/tls_cache.o
 .comment       0x00000000       0x3d build/default/production/_ext/476983781/tls_ticket.o
 .comment       0x00000000       0x3d build/default/production/_ext/476983781/tls_ffdhe.o
 .comment       0x00000000       0x3d build/default/production/_ext/476983781/tls_record.o
 .comment       0x00000000       0x3d build/default/production/_ext/476983781/tls_record_encryption.o
 .comment       0x00000000       0x3d build/default/production/_ext/476983781/tls_record_decryption.o
 .comment       0x00000000       0x3d build/default/production/_ext/476983781/tls_misc.o
 .comment       0x00000000       0x3d build/default/production/_ext/476983781/tls13_client.o
 .comment       0x00000000       0x3d build/default/production/_ext/476983781/tls13_client_extensions.o
 .comment       0x00000000       0x3d build/default/production/_ext/476983781/tls13_client_misc.o
 .comment       0x00000000       0x3d build/default/production/_ext/476983781/tls13_server.o
 .comment       0x00000000       0x3d build/default/production/_ext/476983781/tls13_server_extensions.o
 .comment       0x00000000       0x3d build/default/production/_ext/476983781/tls13_server_misc.o
 .comment       0x00000000       0x3d build/default/production/_ext/476983781/tls13_common.o
 .comment       0x00000000       0x3d build/default/production/_ext/476983781/tls13_key_material.o
 .comment       0x00000000       0x3d build/default/production/_ext/476983781/tls13_misc.o
 .comment       0x00000000       0x3d build/default/production/_ext/476983781/ssl_misc.o
 .comment       0x00000000       0x3d build/default/production/_ext/1079766828/net.o
 .comment       0x00000000       0x3d build/default/production/_ext/1079766828/net_mem.o
 .comment       0x00000000       0x3d build/default/production/_ext/37329846/pic32mz_eth_driver.o
 .comment       0x00000000       0x3d build/default/production/_ext/37332968/lan8720_driver.o
 .comment       0x00000000       0x3d build/default/production/_ext/1157531022/wilc1000_driver.o
 .comment       0x00000000       0x3d build/default/production/_ext/1079766828/nic.o
 .comment       0x00000000       0x3d build/default/production/_ext/1079766828/ethernet.o
 .comment       0x00000000       0x3d build/default/production/_ext/1079766828/ethernet_misc.o
 .comment       0x00000000       0x3d build/default/production/_ext/1079587046/arp.o
 .comment       0x00000000       0x3d build/default/production/_ext/1079587046/ipv4.o
 .comment       0x00000000       0x3d build/default/production/_ext/1079587046/ipv4_frag.o
 .comment       0x00000000       0x3d build/default/production/_ext/1079587046/ipv4_misc.o
 .comment       0x00000000       0x3d build/default/production/_ext/1079587046/icmp.o
 .comment       0x00000000       0x3d build/default/production/_ext/1079587046/igmp.o
 .comment       0x00000000       0x3d build/default/production/_ext/1079587044/ipv6.o
 .comment       0x00000000       0x3d build/default/production/_ext/1079587044/ipv6_frag.o
 .comment       0x00000000       0x3d build/default/production/_ext/1079587044/ipv6_misc.o
 .comment       0x00000000       0x3d build/default/production/_ext/1079587044/ipv6_pmtu.o
 .comment       0x00000000       0x3d build/default/production/_ext/1079587044/icmpv6.o
 .comment       0x00000000       0x3d build/default/production/_ext/1079587044/mld.o
 .comment       0x00000000       0x3d build/default/production/_ext/1079587044/ndp.o
 .comment       0x00000000       0x3d build/default/production/_ext/1079587044/ndp_cache.o
 .comment       0x00000000       0x3d build/default/production/_ext/1079587044/ndp_misc.o
 .comment       0x00000000       0x3d build/default/production/_ext/1079587044/ndp_router_adv.o
 .comment       0x00000000       0x3d build/default/production/_ext/1079587044/slaac.o
 .comment       0x00000000       0x3d build/default/production/_ext/1079766828/ip.o
 .comment       0x00000000       0x3d build/default/production/_ext/1079766828/tcp.o
 .comment       0x00000000       0x3d build/default/production/_ext/1079766828/tcp_fsm.o
 .comment       0x00000000       0x3d build/default/production/_ext/1079766828/tcp_misc.o
 .comment       0x00000000       0x3d build/default/production/_ext/1079766828/tcp_timer.o
 .comment       0x00000000       0x3d build/default/production/_ext/1079766828/udp.o
 .comment       0x00000000       0x3d build/default/production/_ext/1079766828/socket.o
 .comment       0x00000000       0x3d build/default/production/_ext/1079766828/bsd_socket.o
 .comment       0x00000000       0x3d build/default/production/_ext/1079766828/raw_socket.o
 .comment       0x00000000       0x3d build/default/production/_ext/242264404/dns_cache.o
 .comment       0x00000000       0x3d build/default/production/_ext/242264404/dns_client.o
 .comment       0x00000000       0x3d build/default/production/_ext/242264404/dns_common.o
 .comment       0x00000000       0x3d build/default/production/_ext/242264404/dns_debug.o
 .comment       0x00000000       0x3d build/default/production/_ext/1079479599/mdns_client.o
 .comment       0x00000000       0x3d build/default/production/_ext/1079479599/mdns_responder.o
 .comment       0x00000000       0x3d build/default/production/_ext/1079479599/mdns_common.o
 .comment       0x00000000       0x3d build/default/production/_ext/1435316685/nbns_client.o
 .comment       0x00000000       0x3d build/default/production/_ext/1435316685/nbns_responder.o
 .comment       0x00000000       0x3d build/default/production/_ext/1435316685/nbns_common.o
 .comment       0x00000000       0x3d build/default/production/_ext/895184604/llmnr_client.o
 .comment       0x00000000       0x3d build/default/production/_ext/895184604/llmnr_responder.o
 .comment       0x00000000       0x3d build/default/production/_ext/895184604/llmnr_common.o
 .comment       0x00000000       0x3d build/default/production/_ext/1079744218/dhcp_client.o
 .comment       0x00000000       0x3d build/default/production/_ext/1079744218/dhcp_server.o
 .comment       0x00000000       0x3d build/default/production/_ext/1079744218/dhcp_common.o
 .comment       0x00000000       0x3d build/default/production/_ext/1079744218/dhcp_debug.o
 .comment       0x00000000       0x3d build/default/production/_ext/1079612995/http_server.o
 .comment       0x00000000       0x3d build/default/production/_ext/1079612995/http_server_auth.o
 .comment       0x00000000       0x3d build/default/production/_ext/1079612995/http_server_misc.o
 .comment       0x00000000       0x3d build/default/production/_ext/1079612995/mime.o
 .comment       0x00000000       0x3d build/default/production/_ext/1079612995/ssi.o
 .comment       0x00000000       0x3d build/default/production/_ext/1079466919/mqtt_client.o
 .comment       0x00000000       0x3d build/default/production/_ext/1079466919/mqtt_client_misc.o
 .comment       0x00000000       0x3d build/default/production/_ext/1079466919/mqtt_client_packet.o
 .comment       0x00000000       0x3d build/default/production/_ext/1079466919/mqtt_client_transport.o
 .comment       0x00000000       0x3d build/default/production/_ext/18976819/web_socket.o
 .comment       0x00000000       0x3d build/default/production/_ext/18976819/web_socket_auth.o
 .comment       0x00000000       0x3d build/default/production/_ext/18976819/web_socket_frame.o
 .comment       0x00000000       0x3d build/default/production/_ext/18976819/web_socket_misc.o
 .comment       0x00000000       0x3d build/default/production/_ext/18976819/web_socket_transport.o
 .comment       0x00000000       0x3d build/default/production/_ext/1360937237/main.o
 .comment       0x00000000       0x3d build/default/production/_ext/1360937237/debug.o
 .comment       0x00000000       0x3d build/default/production/_ext/1360937237/sprintf.o
 .comment       0x00000000       0x3d build/default/production/_ext/1360937237/strtok_r.o
 .comment       0x00000000       0x3d build/default/production/_ext/1360937237/wilc1000_callbacks.o
 .comment       0x00000000       0x3d build/default/production/_ext/1360937237/res.o
 .comment       0x00000000       0x3d build/default/production/_ext/23001898/port.o
 .comment       0x00000000       0x3d build/default/production/_ext/986256546/croutine.o
 .comment       0x00000000       0x3d build/default/production/_ext/986256546/list.o
 .comment       0x00000000       0x3d build/default/production/_ext/986256546/queue.o
 .comment       0x00000000       0x3d build/default/production/_ext/986256546/tasks.o
 .comment       0x00000000       0x3d build/default/production/_ext/986256546/timers.o
 .comment       0x00000000       0x3d build/default/production/_ext/979089083/heap_3.o
 .comment       0x00000000       0x3d build/default/production/_ext/457051042/nm_bsp_pic32mz.o
 .comment       0x00000000       0x3d build/default/production/_ext/1700104339/nm_bus_wrapper_pic32mz.o
 .comment       0x00000000       0x3d build/default/production/_ext/1185106856/nm_common.o
 .comment       0x00000000       0x3d build/default/production/_ext/1679150795/m2m_hif.o
 .comment       0x00000000       0x3d build/default/production/_ext/1679150795/m2m_periph.o
 .comment       0x00000000       0x3d build/default/production/_ext/1679150795/m2m_wifi.o
 .comment       0x00000000       0x3d build/default/production/_ext/1679150795/nmasic.o
 .comment       0x00000000       0x3d build/default/production/_ext/1679150795/nmbus.o
 .comment       0x00000000       0x3d build/default/production/_ext/1679150795/nmdrv.o
 .comment       0x00000000       0x3d build/default/production/_ext/1679150795/nmspi.o
 .comment       0x00000000       0x3d build/default/production/_ext/1679150795/spi_flash.o
 .comment       0x00000000       0x3d build/default/production/_ext/1022178492/PMK.o
 .comment       0x00000000       0x3d build/default/production/_ext/1640134129/m2m_wifi_ex.o
 .comment       0x0000003c       0x18 /home/programs/XC32/v2.30/bin/bin/../../lib/gcc/pic32mx/4.8.3/../../../../pic32mx/lib/fpu64/libpic32.a(memcmp.o)
                                 0x19 (size before relaxing)
 .comment       0x00000054       0x18 /home/programs/XC32/v2.30/bin/bin/../../lib/gcc/pic32mx/4.8.3/../../../../pic32mx/lib/fpu64/libpic32.a(memset.o)
                                 0x19 (size before relaxing)
 .comment       0x0000006c       0x19 /home/programs/XC32/v2.30/bin/bin/../../lib/gcc/pic32mx/4.8.3/../../../../pic32mx/lib/fpu64/libpic32.a(strcmp.o)
                                 0x1a (size before relaxing)
 .comment       0x00000085       0x19 /home/programs/XC32/v2.30/bin/bin/../../lib/gcc/pic32mx/4.8.3/../../../../pic32mx/lib/fpu64/libpic32.a(strcpy.o)
                                 0x1a (size before relaxing)
 .comment       0x0000009e       0x19 /home/programs/XC32/v2.30/bin/bin/../../lib/gcc/pic32mx/4.8.3/../../../../pic32mx/lib/fpu64/libpic32.a(strlen.o)
                                 0x1a (size before relaxing)
 .comment       0x00000000       0x3d /home/programs/XC32/v2.30/bin/bin/../../lib/gcc/pic32mx/4.8.3/../../../../pic32mx/lib/fpu64/libpic32.a(default-bootstrap-exception-handler.o)
 .comment       0x00000000       0x3d /home/programs/XC32/v2.30/bin/bin/../../lib/gcc/pic32mx/4.8.3/../../../../pic32mx/lib/fpu64/libpic32.a(default-on-reset.o)
 .comment       0x00000000       0x3d /home/programs/XC32/v2.30/bin/bin/../../lib/gcc/pic32mx/4.8.3/../../../../pic32mx/lib/fpu64/libpic32.a(default-on-bootstrap.o)
 .comment       0x00000000       0x3d /home/programs/XC32/v2.30/bin/bin/../../lib/gcc/pic32mx/4.8.3/../../../../pic32mx/lib/fpu64/libpic32.a(defaultinterrupt.o)
 .comment       0x00000000       0x3d /home/programs/XC32/v2.30/bin/bin/../../lib/gcc/pic32mx/4.8.3/../../../../pic32mx/lib/fpu64/libpic32.a(default-general-exception-handler.o)
 .comment       0x00000000       0x3d /home/programs/XC32/v2.30/bin/bin/../../lib/gcc/pic32mx/4.8.3/../../../../pic32mx/lib/fpu64/libpic32.a(default-cache-err-exception-handler.o)
 .comment       0x00000000       0x3d /home/programs/XC32/v2.30/bin/bin/../../lib/gcc/pic32mx/4.8.3/../../../../pic32mx/lib/fpu64/libpic32.a(default-simple-tlb-refill-exception-handler.o)
 .comment       0x00000000       0x3d /home/programs/XC32/v2.30/bin/bin/../../lib/gcc/pic32mx/4.8.3/../../../../pic32mx/lib/fpu64/libc.a(_iob.o)
 .comment       0x00000000       0x3d /home/programs/XC32/v2.30/bin/bin/../../lib/gcc/pic32mx/4.8.3/../../../../pic32mx/lib/fpu64/libc.a(fwrite.o)
 .comment       0x00000000       0x3d /home/programs/XC32/v2.30/bin/bin/../../lib/gcc/pic32mx/4.8.3/../../../../pic32mx/lib/fpu64/libc.a(atoi.o)
 .comment       0x000000b7       0x4e /home/programs/XC32/v2.30/bin/bin/../../lib/gcc/pic32mx/4.8.3/../../../../pic32mx/lib/fpu64/libc.a(ctype.o)
                                 0x8b (size before relaxing)
 .comment       0x00000105       0x4f /home/programs/XC32/v2.30/bin/bin/../../lib/gcc/pic32mx/4.8.3/../../../../pic32mx/lib/fpu64/libc.a(ctypef.o)
                                 0x8c (size before relaxing)
 .comment       0x00000000       0x3d /home/programs/XC32/v2.30/bin/bin/../../lib/gcc/pic32mx/4.8.3/../../../../pic32mx/lib/fpu64/libc.a(malloc.o)
 .comment       0x00000000       0x3d /home/programs/XC32/v2.30/bin/bin/../../lib/gcc/pic32mx/4.8.3/../../../../pic32mx/lib/fpu64/libc.a(memmove.o)
 .comment       0x00000000       0x3d /home/programs/XC32/v2.30/bin/bin/../../lib/gcc/pic32mx/4.8.3/../../../../pic32mx/lib/fpu64/libc.a(puts.o)
 .comment       0x00000000       0x3d /home/programs/XC32/v2.30/bin/bin/../../lib/gcc/pic32mx/4.8.3/../../../../pic32mx/lib/fpu64/libc.a(strchr.o)
 .comment       0x00000000       0x3d /home/programs/XC32/v2.30/bin/bin/../../lib/gcc/pic32mx/4.8.3/../../../../pic32mx/lib/fpu64/libc.a(strcasecmp.o)
 .comment       0x00000000       0x3d /home/programs/XC32/v2.30/bin/bin/../../lib/gcc/pic32mx/4.8.3/../../../../pic32mx/lib/fpu64/libc.a(strncasecmp.o)
 .comment       0x00000000       0x3d /home/programs/XC32/v2.30/bin/bin/../../lib/gcc/pic32mx/4.8.3/../../../../pic32mx/lib/fpu64/libc.a(strncat.o)
 .comment       0x00000000       0x3d /home/programs/XC32/v2.30/bin/bin/../../lib/gcc/pic32mx/4.8.3/../../../../pic32mx/lib/fpu64/libc.a(strncmp.o)
 .comment       0x00000000       0x3d /home/programs/XC32/v2.30/bin/bin/../../lib/gcc/pic32mx/4.8.3/../../../../pic32mx/lib/fpu64/libc.a(strncpy.o)
 .comment       0x00000000       0x3d /home/programs/XC32/v2.30/bin/bin/../../lib/gcc/pic32mx/4.8.3/../../../../pic32mx/lib/fpu64/libc.a(strrchr.o)
 .comment       0x00000000       0x3d /home/programs/XC32/v2.30/bin/bin/../../lib/gcc/pic32mx/4.8.3/../../../../pic32mx/lib/fpu64/libc.a(strtok.o)
 .comment       0x00000000       0x3d /home/programs/XC32/v2.30/bin/bin/../../lib/gcc/pic32mx/4.8.3/../../../../pic32mx/lib/fpu64/libc.a(strtol.o)
 .comment       0x00000000       0x3d /home/programs/XC32/v2.30/bin/bin/../../lib/gcc/pic32mx/4.8.3/../../../../pic32mx/lib/fpu64/libc.a(fprintf_cdnopsuxX.eo)
 .comment       0x00000000       0x3d /home/programs/XC32/v2.30/bin/bin/../../lib/gcc/pic32mx/4.8.3/../../../../pic32mx/lib/fpu64/libc.a(fflush.o)
 .comment       0x00000000       0x3d /home/programs/XC32/v2.30/bin/bin/../../lib/gcc/pic32mx/4.8.3/../../../../pic32mx/lib/fpu64/libc.a(fseek.o)
 .comment       0x00000000       0x3d /home/programs/XC32/v2.30/bin/bin/../../lib/gcc/pic32mx/4.8.3/../../../../pic32mx/lib/fpu64/libc.a(errno.o)
 .comment       0x00000000       0x3d /home/programs/XC32/v2.30/bin/bin/../../lib/gcc/pic32mx/4.8.3/../../../../pic32mx/lib/fpu64/libc.a(strcspn.o)
 .comment       0x00000000       0x3d /home/programs/XC32/v2.30/bin/bin/../../lib/gcc/pic32mx/4.8.3/../../../../pic32mx/lib/fpu64/libc.a(strspn.o)
 .comment       0x00000000       0x3d /home/programs/XC32/v2.30/bin/bin/../../lib/gcc/pic32mx/4.8.3/../../../../pic32mx/lib/fpu64/libc.a(doprnt_cdnopsuxX.eo)
 .comment       0x00000000       0x3d /home/programs/XC32/v2.30/bin/bin/../../lib/gcc/pic32mx/4.8.3/fpu64/libgcc.a(_udivdi3.o)
 .comment       0x00000000       0x3d /home/programs/XC32/v2.30/bin/bin/../../lib/gcc/pic32mx/4.8.3/fpu64/libgcc.a(_umoddi3.o)
 .comment       0x00000154       0x4b /home/programs/XC32/v2.30/bin/bin/../../lib/gcc/pic32mx/4.8.3/../../../../pic32mx/lib/fpu64/libpic32.a(sbrk.o)
                                 0x88 (size before relaxing)
 .comment       0x00000000       0x3d /home/programs/XC32/v2.30/bin/bin/../../lib/gcc/pic32mx/4.8.3/../../../../pic32mx/lib/fpu64/libpic32.a(write.o)
 .comment       0x00000000       0x3d /home/programs/XC32/v2.30/bin/bin/../../lib/gcc/pic32mx/4.8.3/../../../../pic32mx/lib/fpu64/libpic32.a(lseek.o)
 .comment       0x00000000       0x3d /home/programs/XC32/v2.30/bin/bin/../../lib/gcc/pic32mx/4.8.3/../../../../pic32mx/lib/fpu64/libpic32.a(_mon_putc.o)
 .comment       0x00000000       0x3d /home/programs/XC32/v2.30/bin/bin/../../lib/gcc/pic32mx/4.8.3/../../../../pic32mx/lib/fpu64/libpic32.a(xc32_uart.o)

.debug
 *.elf(.debug)
 *(.debug)

.line
 *.elf(.line)
 *(.line)

.debug_srcinfo
 *.elf(.debug_srcinfo)
 *(.debug_srcinfo)

.debug_sfnames
 *.elf(.debug_sfnames)
 *(.debug_sfnames)

.debug_aranges  0x00000000     0x1b28
 *.elf(.debug_aranges)
 *(.debug_aranges)
 .debug_aranges
                0x00000000       0x20 build/default/production/_ext/360186330/cpu_endian.o
 .debug_aranges
                0x00000020       0x20 build/default/production/_ext/360186330/os_port_freertos.o
 .debug_aranges
                0x00000040       0x20 build/default/production/_ext/360186330/date_time.o
 .debug_aranges
                0x00000060       0x20 build/default/production/_ext/360186330/str.o
 .debug_aranges
                0x00000080       0x20 build/default/production/_ext/360186330/path.o
 .debug_aranges
                0x000000a0       0x20 build/default/production/_ext/360186330/resource_manager.o
 .debug_aranges
                0x000000c0       0x20 build/default/production/_ext/120521611/md5.o
 .debug_aranges
                0x000000e0       0x20 build/default/production/_ext/120521611/sha1.o
 .debug_aranges
                0x00000100       0x20 build/default/production/_ext/120521611/sha224.o
 .debug_aranges
                0x00000120       0x20 build/default/production/_ext/120521611/sha256.o
 .debug_aranges
                0x00000140       0x20 build/default/production/_ext/120521611/sha384.o
 .debug_aranges
                0x00000160       0x20 build/default/production/_ext/120521611/sha512.o
 .debug_aranges
                0x00000180       0x20 build/default/production/_ext/273211656/hmac.o
 .debug_aranges
                0x000001a0       0x20 build/default/production/_ext/7005106/rc4.o
 .debug_aranges
                0x000001c0       0x20 build/default/production/_ext/7005106/idea.o
 .debug_aranges
                0x000001e0       0x20 build/default/production/_ext/7005106/des.o
 .debug_aranges
                0x00000200       0x20 build/default/production/_ext/7005106/des3.o
 .debug_aranges
                0x00000220       0x20 build/default/production/_ext/7005106/aes.o
 .debug_aranges
                0x00000240       0x20 build/default/production/_ext/7005106/camellia.o
 .debug_aranges
                0x00000260       0x20 build/default/production/_ext/7005106/seed.o
 .debug_aranges
                0x00000280       0x20 build/default/production/_ext/7005106/aria.o
 .debug_aranges
                0x000002a0       0x20 build/default/production/_ext/1125617168/cbc.o
 .debug_aranges
                0x000002c0       0x20 build/default/production/_ext/120726866/ccm.o
 .debug_aranges
                0x000002e0       0x20 build/default/production/_ext/120726866/gcm.o
 .debug_aranges
                0x00000300       0x20 build/default/production/_ext/7005106/chacha.o
 .debug_aranges
                0x00000320       0x20 build/default/production/_ext/273211656/poly1305.o
 .debug_aranges
                0x00000340       0x20 build/default/production/_ext/120726866/chacha20_poly1305.o
 .debug_aranges
                0x00000360       0x20 build/default/production/_ext/273214849/dh.o
 .debug_aranges
                0x00000380       0x20 build/default/production/_ext/273214849/rsa.o
 .debug_aranges
                0x000003a0       0x20 build/default/production/_ext/273214849/dsa.o
 .debug_aranges
                0x000003c0       0x20 build/default/production/_ext/273204030/ec.o
 .debug_aranges
                0x000003e0       0x20 build/default/production/_ext/273204030/ec_curves.o
 .debug_aranges
                0x00000400       0x20 build/default/production/_ext/273204030/ecdh.o
 .debug_aranges
                0x00000420       0x20 build/default/production/_ext/273204030/ecdsa.o
 .debug_aranges
                0x00000440       0x18 build/default/production/_ext/273204030/eddsa.o
 .debug_aranges
                0x00000458       0x20 build/default/production/_ext/273204030/curve25519.o
 .debug_aranges
                0x00000478       0x18 build/default/production/_ext/273204030/curve448.o
 .debug_aranges
                0x00000490       0x20 build/default/production/_ext/273204030/x25519.o
 .debug_aranges
                0x000004b0       0x18 build/default/production/_ext/273204030/x448.o
 .debug_aranges
                0x000004c8       0x18 build/default/production/_ext/273204030/ed25519.o
 .debug_aranges
                0x000004e0       0x18 build/default/production/_ext/273204030/ed448.o
 .debug_aranges
                0x000004f8       0x20 build/default/production/_ext/273212127/mpi.o
 .debug_aranges
                0x00000518       0x20 build/default/production/_ext/1404394810/base64.o
 .debug_aranges
                0x00000538       0x20 build/default/production/_ext/1404394810/asn1.o
 .debug_aranges
                0x00000558       0x20 build/default/production/_ext/1404394810/oid.o
 .debug_aranges
                0x00000578       0x20 build/default/production/_ext/120273967/pem_import.o
 .debug_aranges
                0x00000598       0x20 build/default/production/_ext/120273967/pkcs8_key_parse.o
 .debug_aranges
                0x000005b8       0x20 build/default/production/_ext/120273967/x509_key_parse.o
 .debug_aranges
                0x000005d8       0x20 build/default/production/_ext/120273967/x509_cert_parse.o
 .debug_aranges
                0x000005f8       0x20 build/default/production/_ext/120273967/x509_cert_validate.o
 .debug_aranges
                0x00000618       0x20 build/default/production/_ext/120273967/x509_crl_parse.o
 .debug_aranges
                0x00000638       0x20 build/default/production/_ext/120273967/x509_crl_validate.o
 .debug_aranges
                0x00000658       0x20 build/default/production/_ext/120273967/x509_common.o
 .debug_aranges
                0x00000678       0x20 build/default/production/_ext/273209830/hkdf.o
 .debug_aranges
                0x00000698       0x20 build/default/production/_ext/273216868/yarrow.o
 .debug_aranges
                0x000006b8       0x20 build/default/production/_ext/476983781/tls.o
 .debug_aranges
                0x000006d8       0x20 build/default/production/_ext/476983781/tls_cipher_suites.o
 .debug_aranges
                0x000006f8       0x20 build/default/production/_ext/476983781/tls_handshake.o
 .debug_aranges
                0x00000718       0x20 build/default/production/_ext/476983781/tls_client.o
 .debug_aranges
                0x00000738       0x20 build/default/production/_ext/476983781/tls_client_fsm.o
 .debug_aranges
                0x00000758       0x20 build/default/production/_ext/476983781/tls_client_extensions.o
 .debug_aranges
                0x00000778       0x20 build/default/production/_ext/476983781/tls_client_misc.o
 .debug_aranges
                0x00000798       0x18 build/default/production/_ext/476983781/tls_server.o
 .debug_aranges
                0x000007b0       0x18 build/default/production/_ext/476983781/tls_server_fsm.o
 .debug_aranges
                0x000007c8       0x18 build/default/production/_ext/476983781/tls_server_extensions.o
 .debug_aranges
                0x000007e0       0x18 build/default/production/_ext/476983781/tls_server_misc.o
 .debug_aranges
                0x000007f8       0x20 build/default/production/_ext/476983781/tls_common.o
 .debug_aranges
                0x00000818       0x20 build/default/production/_ext/476983781/tls_extensions.o
 .debug_aranges
                0x00000838       0x20 build/default/production/_ext/476983781/tls_certificate.o
 .debug_aranges
                0x00000858       0x20 build/default/production/_ext/476983781/tls_signature.o
 .debug_aranges
                0x00000878       0x20 build/default/production/_ext/476983781/tls_key_material.o
 .debug_aranges
                0x00000898       0x20 build/default/production/_ext/476983781/tls_transcript_hash.o
 .debug_aranges
                0x000008b8       0x20 build/default/production/_ext/476983781/tls_cache.o
 .debug_aranges
                0x000008d8       0x18 build/default/production/_ext/476983781/tls_ticket.o
 .debug_aranges
                0x000008f0       0x18 build/default/production/_ext/476983781/tls_ffdhe.o
 .debug_aranges
                0x00000908       0x20 build/default/production/_ext/476983781/tls_record.o
 .debug_aranges
                0x00000928       0x20 build/default/production/_ext/476983781/tls_record_encryption.o
 .debug_aranges
                0x00000948       0x20 build/default/production/_ext/476983781/tls_record_decryption.o
 .debug_aranges
                0x00000968       0x20 build/default/production/_ext/476983781/tls_misc.o
 .debug_aranges
                0x00000988       0x20 build/default/production/_ext/476983781/tls13_client.o
 .debug_aranges
                0x000009a8       0x20 build/default/production/_ext/476983781/tls13_client_extensions.o
 .debug_aranges
                0x000009c8       0x20 build/default/production/_ext/476983781/tls13_client_misc.o
 .debug_aranges
                0x000009e8       0x18 build/default/production/_ext/476983781/tls13_server.o
 .debug_aranges
                0x00000a00       0x18 build/default/production/_ext/476983781/tls13_server_extensions.o
 .debug_aranges
                0x00000a18       0x18 build/default/production/_ext/476983781/tls13_server_misc.o
 .debug_aranges
                0x00000a30       0x20 build/default/production/_ext/476983781/tls13_common.o
 .debug_aranges
                0x00000a50       0x20 build/default/production/_ext/476983781/tls13_key_material.o
 .debug_aranges
                0x00000a70       0x20 build/default/production/_ext/476983781/tls13_misc.o
 .debug_aranges
                0x00000a90       0x18 build/default/production/_ext/476983781/ssl_misc.o
 .debug_aranges
                0x00000aa8       0x20 build/default/production/_ext/1079766828/net.o
 .debug_aranges
                0x00000ac8       0x20 build/default/production/_ext/1079766828/net_mem.o
 .debug_aranges
                0x00000ae8       0x20 build/default/production/_ext/37329846/pic32mz_eth_driver.o
 .debug_aranges
                0x00000b08       0x20 build/default/production/_ext/37332968/lan8720_driver.o
 .debug_aranges
                0x00000b28       0x20 build/default/production/_ext/1157531022/wilc1000_driver.o
 .debug_aranges
                0x00000b48       0x20 build/default/production/_ext/1079766828/nic.o
 .debug_aranges
                0x00000b68       0x20 build/default/production/_ext/1079766828/ethernet.o
 .debug_aranges
                0x00000b88       0x20 build/default/production/_ext/1079766828/ethernet_misc.o
 .debug_aranges
                0x00000ba8       0x20 build/default/production/_ext/1079587046/arp.o
 .debug_aranges
                0x00000bc8       0x20 build/default/production/_ext/1079587046/ipv4.o
 .debug_aranges
                0x00000be8       0x20 build/default/production/_ext/1079587046/ipv4_frag.o
 .debug_aranges
                0x00000c08       0x20 build/default/production/_ext/1079587046/ipv4_misc.o
 .debug_aranges
                0x00000c28       0x20 build/default/production/_ext/1079587046/icmp.o
 .debug_aranges
                0x00000c48       0x18 build/default/production/_ext/1079587046/igmp.o
 .debug_aranges
                0x00000c60       0x20 build/default/production/_ext/1079587044/ipv6.o
 .debug_aranges
                0x00000c80       0x20 build/default/production/_ext/1079587044/ipv6_frag.o
 .debug_aranges
                0x00000ca0       0x20 build/default/production/_ext/1079587044/ipv6_misc.o
 .debug_aranges
                0x00000cc0       0x20 build/default/production/_ext/1079587044/ipv6_pmtu.o
 .debug_aranges
                0x00000ce0       0x20 build/default/production/_ext/1079587044/icmpv6.o
 .debug_aranges
                0x00000d00       0x20 build/default/production/_ext/1079587044/mld.o
 .debug_aranges
                0x00000d20       0x20 build/default/production/_ext/1079587044/ndp.o
 .debug_aranges
                0x00000d40       0x20 build/default/production/_ext/1079587044/ndp_cache.o
 .debug_aranges
                0x00000d60       0x20 build/default/production/_ext/1079587044/ndp_misc.o
 .debug_aranges
                0x00000d80       0x20 build/default/production/_ext/1079587044/ndp_router_adv.o
 .debug_aranges
                0x00000da0       0x20 build/default/production/_ext/1079587044/slaac.o
 .debug_aranges
                0x00000dc0       0x20 build/default/production/_ext/1079766828/ip.o
 .debug_aranges
                0x00000de0       0x20 build/default/production/_ext/1079766828/tcp.o
 .debug_aranges
                0x00000e00       0x20 build/default/production/_ext/1079766828/tcp_fsm.o
 .debug_aranges
                0x00000e20       0x20 build/default/production/_ext/1079766828/tcp_misc.o
 .debug_aranges
                0x00000e40       0x20 build/default/production/_ext/1079766828/tcp_timer.o
 .debug_aranges
                0x00000e60       0x20 build/default/production/_ext/1079766828/udp.o
 .debug_aranges
                0x00000e80       0x20 build/default/production/_ext/1079766828/socket.o
 .debug_aranges
                0x00000ea0       0x20 build/default/production/_ext/1079766828/bsd_socket.o
 .debug_aranges
                0x00000ec0       0x18 build/default/production/_ext/1079766828/raw_socket.o
 .debug_aranges
                0x00000ed8       0x20 build/default/production/_ext/242264404/dns_cache.o
 .debug_aranges
                0x00000ef8       0x20 build/default/production/_ext/242264404/dns_client.o
 .debug_aranges
                0x00000f18       0x20 build/default/production/_ext/242264404/dns_common.o
 .debug_aranges
                0x00000f38       0x18 build/default/production/_ext/242264404/dns_debug.o
 .debug_aranges
                0x00000f50       0x18 build/default/production/_ext/1079479599/mdns_client.o
 .debug_aranges
                0x00000f68       0x18 build/default/production/_ext/1079479599/mdns_responder.o
 .debug_aranges
                0x00000f80       0x18 build/default/production/_ext/1079479599/mdns_common.o
 .debug_aranges
                0x00000f98       0x20 build/default/production/_ext/1435316685/nbns_client.o
 .debug_aranges
                0x00000fb8       0x20 build/default/production/_ext/1435316685/nbns_responder.o
 .debug_aranges
                0x00000fd8       0x20 build/default/production/_ext/1435316685/nbns_common.o
 .debug_aranges
                0x00000ff8       0x18 build/default/production/_ext/895184604/llmnr_client.o
 .debug_aranges
                0x00001010       0x20 build/default/production/_ext/895184604/llmnr_responder.o
 .debug_aranges
                0x00001030       0x18 build/default/production/_ext/895184604/llmnr_common.o
 .debug_aranges
                0x00001048       0x20 build/default/production/_ext/1079744218/dhcp_client.o
 .debug_aranges
                0x00001068       0x20 build/default/production/_ext/1079744218/dhcp_server.o
 .debug_aranges
                0x00001088       0x20 build/default/production/_ext/1079744218/dhcp_common.o
 .debug_aranges
                0x000010a8       0x18 build/default/production/_ext/1079744218/dhcp_debug.o
 .debug_aranges
                0x000010c0       0x20 build/default/production/_ext/1079612995/http_server.o
 .debug_aranges
                0x000010e0       0x20 build/default/production/_ext/1079612995/http_server_auth.o
 .debug_aranges
                0x00001100       0x20 build/default/production/_ext/1079612995/http_server_misc.o
 .debug_aranges
                0x00001120       0x20 build/default/production/_ext/1079612995/mime.o
 .debug_aranges
                0x00001140       0x20 build/default/production/_ext/1079612995/ssi.o
 .debug_aranges
                0x00001160       0x20 build/default/production/_ext/1079466919/mqtt_client.o
 .debug_aranges
                0x00001180       0x20 build/default/production/_ext/1079466919/mqtt_client_misc.o
 .debug_aranges
                0x000011a0       0x20 build/default/production/_ext/1079466919/mqtt_client_packet.o
 .debug_aranges
                0x000011c0       0x20 build/default/production/_ext/1079466919/mqtt_client_transport.o
 .debug_aranges
                0x000011e0       0x20 build/default/production/_ext/18976819/web_socket.o
 .debug_aranges
                0x00001200       0x20 build/default/production/_ext/18976819/web_socket_auth.o
 .debug_aranges
                0x00001220       0x20 build/default/production/_ext/18976819/web_socket_frame.o
 .debug_aranges
                0x00001240       0x20 build/default/production/_ext/18976819/web_socket_misc.o
 .debug_aranges
                0x00001260       0x20 build/default/production/_ext/18976819/web_socket_transport.o
 .debug_aranges
                0x00001280       0x20 build/default/production/_ext/1360937237/main.o
 .debug_aranges
                0x000012a0       0x20 build/default/production/_ext/1360937237/debug.o
 .debug_aranges
                0x000012c0       0x20 build/default/production/_ext/1360937237/sprintf.o
 .debug_aranges
                0x000012e0       0x20 build/default/production/_ext/1360937237/strtok_r.o
 .debug_aranges
                0x00001300       0x20 build/default/production/_ext/1360937237/eth_irq_wrapper.o
 .debug_aranges
                0x00001320       0x20 build/default/production/_ext/1360937237/ext1_irq_wrapper.o
 .debug_aranges
                0x00001340       0x20 build/default/production/_ext/1360937237/wilc1000_callbacks.o
 .debug_aranges
                0x00001360       0x18 build/default/production/_ext/1360937237/res.o
 .debug_aranges
                0x00001378       0x20 build/default/production/_ext/23001898/port.o
 .debug_aranges
                0x00001398       0x30 build/default/production/_ext/23001898/port_asm.o
 .debug_aranges
                0x000013c8       0x18 build/default/production/_ext/986256546/croutine.o
 .debug_aranges
                0x000013e0       0x20 build/default/production/_ext/986256546/list.o
 .debug_aranges
                0x00001400       0x20 build/default/production/_ext/986256546/queue.o
 .debug_aranges
                0x00001420       0x20 build/default/production/_ext/986256546/tasks.o
 .debug_aranges
                0x00001440       0x20 build/default/production/_ext/986256546/timers.o
 .debug_aranges
                0x00001460       0x20 build/default/production/_ext/979089083/heap_3.o
 .debug_aranges
                0x00001480       0x20 build/default/production/_ext/457051042/nm_bsp_pic32mz.o
 .debug_aranges
                0x000014a0       0x20 build/default/production/_ext/1700104339/nm_bus_wrapper_pic32mz.o
 .debug_aranges
                0x000014c0       0x20 build/default/production/_ext/1185106856/nm_common.o
 .debug_aranges
                0x000014e0       0x20 build/default/production/_ext/1679150795/m2m_hif.o
 .debug_aranges
                0x00001500       0x20 build/default/production/_ext/1679150795/m2m_periph.o
 .debug_aranges
                0x00001520       0x20 build/default/production/_ext/1679150795/m2m_wifi.o
 .debug_aranges
                0x00001540       0x20 build/default/production/_ext/1679150795/nmasic.o
 .debug_aranges
                0x00001560       0x20 build/default/production/_ext/1679150795/nmbus.o
 .debug_aranges
                0x00001580       0x20 build/default/production/_ext/1679150795/nmdrv.o
 .debug_aranges
                0x000015a0       0x20 build/default/production/_ext/1679150795/nmspi.o
 .debug_aranges
                0x000015c0       0x20 build/default/production/_ext/1679150795/spi_flash.o
 .debug_aranges
                0x000015e0       0x20 build/default/production/_ext/1022178492/PMK.o
 .debug_aranges
                0x00001600       0x20 build/default/production/_ext/1640134129/m2m_wifi_ex.o
 .debug_aranges
                0x00001620       0x20 /home/programs/XC32/v2.30/bin/bin/../../lib/gcc/pic32mx/4.8.3/../../../../pic32mx/lib/fpu64/libpic32.a(default-bootstrap-exception-handler.o)
 .debug_aranges
                0x00001640       0x20 /home/programs/XC32/v2.30/bin/bin/../../lib/gcc/pic32mx/4.8.3/../../../../pic32mx/lib/fpu64/libpic32.a(default-on-reset.o)
 .debug_aranges
                0x00001660       0x20 /home/programs/XC32/v2.30/bin/bin/../../lib/gcc/pic32mx/4.8.3/../../../../pic32mx/lib/fpu64/libpic32.a(default-on-bootstrap.o)
 .debug_aranges
                0x00001680       0x20 /home/programs/XC32/v2.30/bin/bin/../../lib/gcc/pic32mx/4.8.3/../../../../pic32mx/lib/fpu64/libpic32.a(defaultinterrupt.o)
 .debug_aranges
                0x000016a0       0x20 /home/programs/XC32/v2.30/bin/bin/../../lib/gcc/pic32mx/4.8.3/../../../../pic32mx/lib/fpu64/libpic32.a(default-general-exception-handler.o)
 .debug_aranges
                0x000016c0       0x20 /home/programs/XC32/v2.30/bin/bin/../../lib/gcc/pic32mx/4.8.3/../../../../pic32mx/lib/fpu64/libpic32.a(default-cache-err-exception-handler.o)
 .debug_aranges
                0x000016e0       0x20 /home/programs/XC32/v2.30/bin/bin/../../lib/gcc/pic32mx/4.8.3/../../../../pic32mx/lib/fpu64/libpic32.a(default-simple-tlb-refill-exception-handler.o)
 .debug_aranges
                0x00001700       0x20 /home/programs/XC32/v2.30/bin/bin/../../lib/gcc/pic32mx/4.8.3/../../../../pic32mx/lib/fpu64/libc.a(fwrite.o)
 .debug_aranges
                0x00001720       0x20 /home/programs/XC32/v2.30/bin/bin/../../lib/gcc/pic32mx/4.8.3/../../../../pic32mx/lib/fpu64/libc.a(atoi.o)
 .debug_aranges
                0x00001740       0xa0 /home/programs/XC32/v2.30/bin/bin/../../lib/gcc/pic32mx/4.8.3/../../../../pic32mx/lib/fpu64/libc.a(ctypef.o)
 .debug_aranges
                0x000017e0       0x30 /home/programs/XC32/v2.30/bin/bin/../../lib/gcc/pic32mx/4.8.3/../../../../pic32mx/lib/fpu64/libc.a(malloc.o)
 .debug_aranges
                0x00001810       0x20 /home/programs/XC32/v2.30/bin/bin/../../lib/gcc/pic32mx/4.8.3/../../../../pic32mx/lib/fpu64/libc.a(memmove.o)
 .debug_aranges
                0x00001830       0x28 /home/programs/XC32/v2.30/bin/bin/../../lib/gcc/pic32mx/4.8.3/../../../../pic32mx/lib/fpu64/libc.a(puts.o)
 .debug_aranges
                0x00001858       0x20 /home/programs/XC32/v2.30/bin/bin/../../lib/gcc/pic32mx/4.8.3/../../../../pic32mx/lib/fpu64/libc.a(strchr.o)
 .debug_aranges
                0x00001878       0x20 /home/programs/XC32/v2.30/bin/bin/../../lib/gcc/pic32mx/4.8.3/../../../../pic32mx/lib/fpu64/libc.a(strcasecmp.o)
 .debug_aranges
                0x00001898       0x20 /home/programs/XC32/v2.30/bin/bin/../../lib/gcc/pic32mx/4.8.3/../../../../pic32mx/lib/fpu64/libc.a(strncasecmp.o)
 .debug_aranges
                0x000018b8       0x20 /home/programs/XC32/v2.30/bin/bin/../../lib/gcc/pic32mx/4.8.3/../../../../pic32mx/lib/fpu64/libc.a(strncat.o)
 .debug_aranges
                0x000018d8       0x20 /home/programs/XC32/v2.30/bin/bin/../../lib/gcc/pic32mx/4.8.3/../../../../pic32mx/lib/fpu64/libc.a(strncmp.o)
 .debug_aranges
                0x000018f8       0x20 /home/programs/XC32/v2.30/bin/bin/../../lib/gcc/pic32mx/4.8.3/../../../../pic32mx/lib/fpu64/libc.a(strncpy.o)
 .debug_aranges
                0x00001918       0x20 /home/programs/XC32/v2.30/bin/bin/../../lib/gcc/pic32mx/4.8.3/../../../../pic32mx/lib/fpu64/libc.a(strrchr.o)
 .debug_aranges
                0x00001938       0x20 /home/programs/XC32/v2.30/bin/bin/../../lib/gcc/pic32mx/4.8.3/../../../../pic32mx/lib/fpu64/libc.a(strtok.o)
 .debug_aranges
                0x00001958       0x28 /home/programs/XC32/v2.30/bin/bin/../../lib/gcc/pic32mx/4.8.3/../../../../pic32mx/lib/fpu64/libc.a(strtol.o)
 .debug_aranges
                0x00001980       0x20 /home/programs/XC32/v2.30/bin/bin/../../lib/gcc/pic32mx/4.8.3/../../../../pic32mx/lib/fpu64/libc.a(fprintf_cdnopsuxX.eo)
 .debug_aranges
                0x000019a0       0x20 /home/programs/XC32/v2.30/bin/bin/../../lib/gcc/pic32mx/4.8.3/../../../../pic32mx/lib/fpu64/libc.a(fflush.o)
 .debug_aranges
                0x000019c0       0x28 /home/programs/XC32/v2.30/bin/bin/../../lib/gcc/pic32mx/4.8.3/../../../../pic32mx/lib/fpu64/libc.a(fseek.o)
 .debug_aranges
                0x000019e8       0x20 /home/programs/XC32/v2.30/bin/bin/../../lib/gcc/pic32mx/4.8.3/../../../../pic32mx/lib/fpu64/libc.a(strcspn.o)
 .debug_aranges
                0x00001a08       0x20 /home/programs/XC32/v2.30/bin/bin/../../lib/gcc/pic32mx/4.8.3/../../../../pic32mx/lib/fpu64/libc.a(strspn.o)
 .debug_aranges
                0x00001a28       0x20 /home/programs/XC32/v2.30/bin/bin/../../lib/gcc/pic32mx/4.8.3/../../../../pic32mx/lib/fpu64/libc.a(doprnt_cdnopsuxX.eo)
 .debug_aranges
                0x00001a48       0x20 /home/programs/XC32/v2.30/bin/bin/../../lib/gcc/pic32mx/4.8.3/fpu64/libgcc.a(_udivdi3.o)
 .debug_aranges
                0x00001a68       0x20 /home/programs/XC32/v2.30/bin/bin/../../lib/gcc/pic32mx/4.8.3/fpu64/libgcc.a(_umoddi3.o)
 .debug_aranges
                0x00001a88       0x40 /home/programs/XC32/v2.30/bin/bin/../../lib/gcc/pic32mx/4.8.3/../../../../pic32mx/lib/fpu64/libpic32.a(sbrk.o)
 .debug_aranges
                0x00001ac8       0x20 /home/programs/XC32/v2.30/bin/bin/../../lib/gcc/pic32mx/4.8.3/../../../../pic32mx/lib/fpu64/libpic32.a(write.o)
 .debug_aranges
                0x00001ae8       0x20 /home/programs/XC32/v2.30/bin/bin/../../lib/gcc/pic32mx/4.8.3/../../../../pic32mx/lib/fpu64/libpic32.a(lseek.o)
 .debug_aranges
                0x00001b08       0x20 /home/programs/XC32/v2.30/bin/bin/../../lib/gcc/pic32mx/4.8.3/../../../../pic32mx/lib/fpu64/libpic32.a(_mon_putc.o)

.debug_pubnames
 *.elf(.debug_pubnames)
 *(.debug_pubnames)

.debug_info     0x00000000   0x2878f6
 *.elf(.debug_info .gnu.linkonce.wi.*)
 *(.debug_info .gnu.linkonce.wi.*)
 .debug_info    0x00000000      0x380 build/default/production/_ext/360186330/cpu_endian.o
 .debug_info    0x00000380      0xe0f build/default/production/_ext/360186330/os_port_freertos.o
 .debug_info    0x0000118f      0x79c build/default/production/_ext/360186330/date_time.o
 .debug_info    0x0000192b     0x19fb build/default/production/_ext/360186330/str.o
 .debug_info    0x00003326      0x66e build/default/production/_ext/360186330/path.o
 .debug_info    0x00003994     0x1afe build/default/production/_ext/360186330/resource_manager.o
 .debug_info    0x00005492     0x1dff build/default/production/_ext/120521611/md5.o
 .debug_info    0x00007291     0x1ea6 build/default/production/_ext/120521611/sha1.o
 .debug_info    0x00009137     0x1d2b build/default/production/_ext/120521611/sha224.o
 .debug_info    0x0000ae62     0x1efd build/default/production/_ext/120521611/sha256.o
 .debug_info    0x0000cd5f     0x1da9 build/default/production/_ext/120521611/sha384.o
 .debug_info    0x0000eb08     0x1e6d build/default/production/_ext/120521611/sha512.o
 .debug_info    0x00010975     0x20c2 build/default/production/_ext/273211656/hmac.o
 .debug_info    0x00012a37     0x1af2 build/default/production/_ext/7005106/rc4.o
 .debug_info    0x00014529     0x1e3f build/default/production/_ext/7005106/idea.o
 .debug_info    0x00016368     0x1c8d build/default/production/_ext/7005106/des.o
 .debug_info    0x00017ff5     0x1d50 build/default/production/_ext/7005106/des3.o
 .debug_info    0x00019d45     0x1cfe build/default/production/_ext/7005106/aes.o
 .debug_info    0x0001ba43     0x1f22 build/default/production/_ext/7005106/camellia.o
 .debug_info    0x0001d965     0x1ce5 build/default/production/_ext/7005106/seed.o
 .debug_info    0x0001f64a     0x236e build/default/production/_ext/7005106/aria.o
 .debug_info    0x000219b8     0x1b4b build/default/production/_ext/1125617168/cbc.o
 .debug_info    0x00023503     0x2189 build/default/production/_ext/120726866/ccm.o
 .debug_info    0x0002568c     0x2308 build/default/production/_ext/120726866/gcm.o
 .debug_info    0x00027994     0x1930 build/default/production/_ext/7005106/chacha.o
 .debug_info    0x000292c4      0x482 build/default/production/_ext/273211656/poly1305.o
 .debug_info    0x00029746     0x1fad build/default/production/_ext/120726866/chacha20_poly1305.o
 .debug_info    0x0002b6f3     0x200e build/default/production/_ext/273214849/dh.o
 .debug_info    0x0002d701     0x5002 build/default/production/_ext/273214849/rsa.o
 .debug_info    0x00032703     0x2fad build/default/production/_ext/273214849/dsa.o
 .debug_info    0x000356b0     0x46d1 build/default/production/_ext/273204030/ec.o
 .debug_info    0x00039d81     0x2bca build/default/production/_ext/273204030/ec_curves.o
 .debug_info    0x0003c94b     0x2616 build/default/production/_ext/273204030/ecdh.o
 .debug_info    0x0003ef61     0x326e build/default/production/_ext/273204030/ecdsa.o
 .debug_info    0x000421cf      0x19f build/default/production/_ext/273204030/eddsa.o
 .debug_info    0x0004236e     0x1387 build/default/production/_ext/273204030/curve25519.o
 .debug_info    0x000436f5      0x1a2 build/default/production/_ext/273204030/curve448.o
 .debug_info    0x00043897     0x1e98 build/default/production/_ext/273204030/x25519.o
 .debug_info    0x0004572f      0x19e build/default/production/_ext/273204030/x448.o
 .debug_info    0x000458cd      0x1a1 build/default/production/_ext/273204030/ed25519.o
 .debug_info    0x00045a6e      0x19f build/default/production/_ext/273204030/ed448.o
 .debug_info    0x00045c0d     0x41a7 build/default/production/_ext/273212127/mpi.o
 .debug_info    0x00049db4     0x195a build/default/production/_ext/1404394810/base64.o
 .debug_info    0x0004b70e     0x2423 build/default/production/_ext/1404394810/asn1.o
 .debug_info    0x0004db31     0x1dc2 build/default/production/_ext/1404394810/oid.o
 .debug_info    0x0004f8f3     0x42f9 build/default/production/_ext/120273967/pem_import.o
 .debug_info    0x00053bec     0x2fe3 build/default/production/_ext/120273967/pkcs8_key_parse.o
 .debug_info    0x00056bcf     0x3689 build/default/production/_ext/120273967/x509_key_parse.o
 .debug_info    0x0005a258     0x5080 build/default/production/_ext/120273967/x509_cert_parse.o
 .debug_info    0x0005f2d8     0x3cca build/default/production/_ext/120273967/x509_cert_validate.o
 .debug_info    0x00062fa2     0x3acd build/default/production/_ext/120273967/x509_crl_parse.o
 .debug_info    0x00066a6f     0x316c build/default/production/_ext/120273967/x509_crl_validate.o
 .debug_info    0x00069bdb     0x2fc5 build/default/production/_ext/120273967/x509_common.o
 .debug_info    0x0006cba0     0x1f10 build/default/production/_ext/273209830/hkdf.o
 .debug_info    0x0006eab0     0x23e6 build/default/production/_ext/273216868/yarrow.o
 .debug_info    0x00070e96     0x7eea build/default/production/_ext/476983781/tls.o
 .debug_info    0x00078d80     0x56bf build/default/production/_ext/476983781/tls_cipher_suites.o
 .debug_info    0x0007e43f     0x5faf build/default/production/_ext/476983781/tls_handshake.o
 .debug_info    0x000843ee     0x7ddc build/default/production/_ext/476983781/tls_client.o
 .debug_info    0x0008c1ca     0x665d build/default/production/_ext/476983781/tls_client_fsm.o
 .debug_info    0x00092827     0x704d build/default/production/_ext/476983781/tls_client_extensions.o
 .debug_info    0x00099874     0x78b9 build/default/production/_ext/476983781/tls_client_misc.o
 .debug_info    0x000a112d      0x19d build/default/production/_ext/476983781/tls_server.o
 .debug_info    0x000a12ca      0x1a1 build/default/production/_ext/476983781/tls_server_fsm.o
 .debug_info    0x000a146b      0x1a8 build/default/production/_ext/476983781/tls_server_extensions.o
 .debug_info    0x000a1613      0x1a2 build/default/production/_ext/476983781/tls_server_misc.o
 .debug_info    0x000a17b5     0x7a61 build/default/production/_ext/476983781/tls_common.o
 .debug_info    0x000a9216     0x6852 build/default/production/_ext/476983781/tls_extensions.o
 .debug_info    0x000afa68     0x716f build/default/production/_ext/476983781/tls_certificate.o
 .debug_info    0x000b6bd7     0x704d build/default/production/_ext/476983781/tls_signature.o
 .debug_info    0x000bdc24     0x69fb build/default/production/_ext/476983781/tls_key_material.o
 .debug_info    0x000c461f     0x5fab build/default/production/_ext/476983781/tls_transcript_hash.o
 .debug_info    0x000ca5ca     0x5c2c build/default/production/_ext/476983781/tls_cache.o
 .debug_info    0x000d01f6      0x19d build/default/production/_ext/476983781/tls_ticket.o
 .debug_info    0x000d0393      0x19c build/default/production/_ext/476983781/tls_ffdhe.o
 .debug_info    0x000d052f     0x62c9 build/default/production/_ext/476983781/tls_record.o
 .debug_info    0x000d67f8     0x61db build/default/production/_ext/476983781/tls_record_encryption.o
 .debug_info    0x000dc9d3     0x6917 build/default/production/_ext/476983781/tls_record_decryption.o
 .debug_info    0x000e32ea     0x6d50 build/default/production/_ext/476983781/tls_misc.o
 .debug_info    0x000ea03a     0x6a86 build/default/production/_ext/476983781/tls13_client.o
 .debug_info    0x000f0ac0     0x6c2a build/default/production/_ext/476983781/tls13_client_extensions.o
 .debug_info    0x000f76ea     0x5bc6 build/default/production/_ext/476983781/tls13_client_misc.o
 .debug_info    0x000fd2b0      0x19f build/default/production/_ext/476983781/tls13_server.o
 .debug_info    0x000fd44f      0x1aa build/default/production/_ext/476983781/tls13_server_extensions.o
 .debug_info    0x000fd5f9      0x1a4 build/default/production/_ext/476983781/tls13_server_misc.o
 .debug_info    0x000fd79d     0x5d64 build/default/production/_ext/476983781/tls13_common.o
 .debug_info    0x00103501     0x63eb build/default/production/_ext/476983781/tls13_key_material.o
 .debug_info    0x001098ec     0x79fb build/default/production/_ext/476983781/tls13_misc.o
 .debug_info    0x001112e7      0x19b build/default/production/_ext/476983781/ssl_misc.o
 .debug_info    0x00111482     0x6b89 build/default/production/_ext/1079766828/net.o
 .debug_info    0x0011800b     0x2044 build/default/production/_ext/1079766828/net_mem.o
 .debug_info    0x0011a04f     0x4d13 build/default/production/_ext/37329846/pic32mz_eth_driver.o
 .debug_info    0x0011ed62     0x42f7 build/default/production/_ext/37332968/lan8720_driver.o
 .debug_info    0x00123059     0x537e build/default/production/_ext/1157531022/wilc1000_driver.o
 .debug_info    0x001283d7     0x435b build/default/production/_ext/1079766828/nic.o
 .debug_info    0x0012c732     0x4d50 build/default/production/_ext/1079766828/ethernet.o
 .debug_info    0x00131482     0x442e build/default/production/_ext/1079766828/ethernet_misc.o
 .debug_info    0x001358b0     0x4efc build/default/production/_ext/1079587046/arp.o
 .debug_info    0x0013a7ac     0x5cbe build/default/production/_ext/1079587046/ipv4.o
 .debug_info    0x0014046a     0x4ba0 build/default/production/_ext/1079587046/ipv4_frag.o
 .debug_info    0x0014500a     0x4469 build/default/production/_ext/1079587046/ipv4_misc.o
 .debug_info    0x00149473     0x4aa5 build/default/production/_ext/1079587046/icmp.o
 .debug_info    0x0014df18      0x19c build/default/production/_ext/1079587046/igmp.o
 .debug_info    0x0014e0b4     0x710f build/default/production/_ext/1079587044/ipv6.o
 .debug_info    0x001551c3     0x4f91 build/default/production/_ext/1079587044/ipv6_frag.o
 .debug_info    0x0015a154     0x5177 build/default/production/_ext/1079587044/ipv6_misc.o
 .debug_info    0x0015f2cb     0x3e9e build/default/production/_ext/1079587044/ipv6_pmtu.o
 .debug_info    0x00163169     0x53ef build/default/production/_ext/1079587044/icmpv6.o
 .debug_info    0x00168558     0x4b38 build/default/production/_ext/1079587044/mld.o
 .debug_info    0x0016d090     0x6806 build/default/production/_ext/1079587044/ndp.o
 .debug_info    0x00173896     0x48f9 build/default/production/_ext/1079587044/ndp_cache.o
 .debug_info    0x0017818f     0x4bfc build/default/production/_ext/1079587044/ndp_misc.o
 .debug_info    0x0017cd8b     0x5453 build/default/production/_ext/1079587044/ndp_router_adv.o
 .debug_info    0x001821de     0x4d6e build/default/production/_ext/1079587044/slaac.o
 .debug_info    0x00186f4c     0x4ba1 build/default/production/_ext/1079766828/ip.o
 .debug_info    0x0018baed     0x5a7f build/default/production/_ext/1079766828/tcp.o
 .debug_info    0x0019156c     0x622e build/default/production/_ext/1079766828/tcp_fsm.o
 .debug_info    0x0019779a     0x6bd0 build/default/production/_ext/1079766828/tcp_misc.o
 .debug_info    0x0019e36a     0x4ea0 build/default/production/_ext/1079766828/tcp_timer.o
 .debug_info    0x001a320a     0x5e50 build/default/production/_ext/1079766828/udp.o
 .debug_info    0x001a905a     0x5fdb build/default/production/_ext/1079766828/socket.o
 .debug_info    0x001af035     0x67ea build/default/production/_ext/1079766828/bsd_socket.o
 .debug_info    0x001b581f      0x1a2 build/default/production/_ext/1079766828/raw_socket.o
 .debug_info    0x001b59c1     0x4461 build/default/production/_ext/242264404/dns_cache.o
 .debug_info    0x001b9e22     0x5374 build/default/production/_ext/242264404/dns_client.o
 .debug_info    0x001bf196      0x75d build/default/production/_ext/242264404/dns_common.o
 .debug_info    0x001bf8f3      0x1a0 build/default/production/_ext/242264404/dns_debug.o
 .debug_info    0x001bfa93      0x1a3 build/default/production/_ext/1079479599/mdns_client.o
 .debug_info    0x001bfc36      0x1a6 build/default/production/_ext/1079479599/mdns_responder.o
 .debug_info    0x001bfddc      0x1a3 build/default/production/_ext/1079479599/mdns_common.o
 .debug_info    0x001bff7f     0x4d96 build/default/production/_ext/1435316685/nbns_client.o
 .debug_info    0x001c4d15     0x48c2 build/default/production/_ext/1435316685/nbns_responder.o
 .debug_info    0x001c95d7     0x462a build/default/production/_ext/1435316685/nbns_common.o
 .debug_info    0x001cdc01      0x1a5 build/default/production/_ext/895184604/llmnr_client.o
 .debug_info    0x001cdda6     0x4cff build/default/production/_ext/895184604/llmnr_responder.o
 .debug_info    0x001d2aa5      0x27d build/default/production/_ext/895184604/llmnr_common.o
 .debug_info    0x001d2d22     0x6dc3 build/default/production/_ext/1079744218/dhcp_client.o
 .debug_info    0x001d9ae5     0x60cb build/default/production/_ext/1079744218/dhcp_server.o
 .debug_info    0x001dfbb0      0xdfe build/default/production/_ext/1079744218/dhcp_common.o
 .debug_info    0x001e09ae      0x1a2 build/default/production/_ext/1079744218/dhcp_debug.o
 .debug_info    0x001e0b50     0xae36 build/default/production/_ext/1079612995/http_server.o
 .debug_info    0x001eb986     0x52cb build/default/production/_ext/1079612995/http_server_auth.o
 .debug_info    0x001f0c51     0x652a build/default/production/_ext/1079612995/http_server_misc.o
 .debug_info    0x001f717b      0x354 build/default/production/_ext/1079612995/mime.o
 .debug_info    0x001f74cf     0x5e31 build/default/production/_ext/1079612995/ssi.o
 .debug_info    0x001fd300     0xb084 build/default/production/_ext/1079466919/mqtt_client.o
 .debug_info    0x00208384     0xa417 build/default/production/_ext/1079466919/mqtt_client_misc.o
 .debug_info    0x0021279b     0xb632 build/default/production/_ext/1079466919/mqtt_client_packet.o
 .debug_info    0x0021ddcd     0xa798 build/default/production/_ext/1079466919/mqtt_client_transport.o
 .debug_info    0x00228565     0xa88a build/default/production/_ext/18976819/web_socket.o
 .debug_info    0x00232def     0x90da build/default/production/_ext/18976819/web_socket_auth.o
 .debug_info    0x0023bec9     0x948c build/default/production/_ext/18976819/web_socket_frame.o
 .debug_info    0x00245355     0xa9d6 build/default/production/_ext/18976819/web_socket_misc.o
 .debug_info    0x0024fd2b     0x97c0 build/default/production/_ext/18976819/web_socket_transport.o
 .debug_info    0x002594eb     0xe900 build/default/production/_ext/1360937237/main.o
 .debug_info    0x00267deb      0x520 build/default/production/_ext/1360937237/debug.o
 .debug_info    0x0026830b      0x7bb build/default/production/_ext/1360937237/sprintf.o
 .debug_info    0x00268ac6      0x1a7 build/default/production/_ext/1360937237/strtok_r.o
 .debug_info    0x00268c6d       0xc5 build/default/production/_ext/1360937237/eth_irq_wrapper.o
 .debug_info    0x00268d32       0xc6 build/default/production/_ext/1360937237/ext1_irq_wrapper.o
 .debug_info    0x00268df8     0x130b build/default/production/_ext/1360937237/wilc1000_callbacks.o
 .debug_info    0x0026a103      0x10d build/default/production/_ext/1360937237/res.o
 .debug_info    0x0026a210      0xf5c build/default/production/_ext/23001898/port.o
 .debug_info    0x0026b16c       0xee build/default/production/_ext/23001898/port_asm.o
 .debug_info    0x0026b25a      0x1a4 build/default/production/_ext/986256546/croutine.o
 .debug_info    0x0026b3fe      0x4a9 build/default/production/_ext/986256546/list.o
 .debug_info    0x0026b8a7     0x212b build/default/production/_ext/986256546/queue.o
 .debug_info    0x0026d9d2     0x2c31 build/default/production/_ext/986256546/tasks.o
 .debug_info    0x00270603     0x1688 build/default/production/_ext/986256546/timers.o
 .debug_info    0x00271c8b      0x304 build/default/production/_ext/979089083/heap_3.o
 .debug_info    0x00271f8f      0x7f6 build/default/production/_ext/457051042/nm_bsp_pic32mz.o
 .debug_info    0x00272785      0x7dd build/default/production/_ext/1700104339/nm_bus_wrapper_pic32mz.o
 .debug_info    0x00272f62      0x570 build/default/production/_ext/1185106856/nm_common.o
 .debug_info    0x002734d2     0x1a66 build/default/production/_ext/1679150795/m2m_hif.o
 .debug_info    0x00274f38      0xa2c build/default/production/_ext/1679150795/m2m_periph.o
 .debug_info    0x00275964     0x585c build/default/production/_ext/1679150795/m2m_wifi.o
 .debug_info    0x0027b1c0     0x1be1 build/default/production/_ext/1679150795/nmasic.o
 .debug_info    0x0027cda1      0x940 build/default/production/_ext/1679150795/nmbus.o
 .debug_info    0x0027d6e1      0xce6 build/default/production/_ext/1679150795/nmdrv.o
 .debug_info    0x0027e3c7     0x2785 build/default/production/_ext/1679150795/nmspi.o
 .debug_info    0x00280b4c      0x85d build/default/production/_ext/1679150795/spi_flash.o
 .debug_info    0x002813a9      0xe28 build/default/production/_ext/1022178492/PMK.o
 .debug_info    0x002821d1     0x2c38 build/default/production/_ext/1640134129/m2m_wifi_ex.o
 .debug_info    0x00284e09       0xf4 /home/programs/XC32/v2.30/bin/bin/../../lib/gcc/pic32mx/4.8.3/../../../../pic32mx/lib/fpu64/libpic32.a(default-bootstrap-exception-handler.o)
 .debug_info    0x00284efd       0xcd /home/programs/XC32/v2.30/bin/bin/../../lib/gcc/pic32mx/4.8.3/../../../../pic32mx/lib/fpu64/libpic32.a(default-on-reset.o)
 .debug_info    0x00284fca       0xd5 /home/programs/XC32/v2.30/bin/bin/../../lib/gcc/pic32mx/4.8.3/../../../../pic32mx/lib/fpu64/libpic32.a(default-on-bootstrap.o)
 .debug_info    0x0028509f       0xe7 /home/programs/XC32/v2.30/bin/bin/../../lib/gcc/pic32mx/4.8.3/../../../../pic32mx/lib/fpu64/libpic32.a(defaultinterrupt.o)
 .debug_info    0x00285186       0xf0 /home/programs/XC32/v2.30/bin/bin/../../lib/gcc/pic32mx/4.8.3/../../../../pic32mx/lib/fpu64/libpic32.a(default-general-exception-handler.o)
 .debug_info    0x00285276       0xf4 /home/programs/XC32/v2.30/bin/bin/../../lib/gcc/pic32mx/4.8.3/../../../../pic32mx/lib/fpu64/libpic32.a(default-cache-err-exception-handler.o)
 .debug_info    0x0028536a      0x104 /home/programs/XC32/v2.30/bin/bin/../../lib/gcc/pic32mx/4.8.3/../../../../pic32mx/lib/fpu64/libpic32.a(default-simple-tlb-refill-exception-handler.o)
 .debug_info    0x0028546e       0xc4 /home/programs/XC32/v2.30/bin/bin/../../lib/gcc/pic32mx/4.8.3/../../../../pic32mx/lib/fpu64/libc.a(fwrite.o)
 .debug_info    0x00285532       0xc0 /home/programs/XC32/v2.30/bin/bin/../../lib/gcc/pic32mx/4.8.3/../../../../pic32mx/lib/fpu64/libc.a(atoi.o)
 .debug_info    0x002855f2      0x238 /home/programs/XC32/v2.30/bin/bin/../../lib/gcc/pic32mx/4.8.3/../../../../pic32mx/lib/fpu64/libc.a(ctypef.o)
 .debug_info    0x0028582a       0xf5 /home/programs/XC32/v2.30/bin/bin/../../lib/gcc/pic32mx/4.8.3/../../../../pic32mx/lib/fpu64/libc.a(malloc.o)
 .debug_info    0x0028591f       0xc6 /home/programs/XC32/v2.30/bin/bin/../../lib/gcc/pic32mx/4.8.3/../../../../pic32mx/lib/fpu64/libc.a(memmove.o)
 .debug_info    0x002859e5       0xd5 /home/programs/XC32/v2.30/bin/bin/../../lib/gcc/pic32mx/4.8.3/../../../../pic32mx/lib/fpu64/libc.a(puts.o)
 .debug_info    0x00285aba       0xc4 /home/programs/XC32/v2.30/bin/bin/../../lib/gcc/pic32mx/4.8.3/../../../../pic32mx/lib/fpu64/libc.a(strchr.o)
 .debug_info    0x00285b7e       0xcc /home/programs/XC32/v2.30/bin/bin/../../lib/gcc/pic32mx/4.8.3/../../../../pic32mx/lib/fpu64/libc.a(strcasecmp.o)
 .debug_info    0x00285c4a       0xce /home/programs/XC32/v2.30/bin/bin/../../lib/gcc/pic32mx/4.8.3/../../../../pic32mx/lib/fpu64/libc.a(strncasecmp.o)
 .debug_info    0x00285d18       0xc6 /home/programs/XC32/v2.30/bin/bin/../../lib/gcc/pic32mx/4.8.3/../../../../pic32mx/lib/fpu64/libc.a(strncat.o)
 .debug_info    0x00285dde       0xc6 /home/programs/XC32/v2.30/bin/bin/../../lib/gcc/pic32mx/4.8.3/../../../../pic32mx/lib/fpu64/libc.a(strncmp.o)
 .debug_info    0x00285ea4       0xc6 /home/programs/XC32/v2.30/bin/bin/../../lib/gcc/pic32mx/4.8.3/../../../../pic32mx/lib/fpu64/libc.a(strncpy.o)
 .debug_info    0x00285f6a       0xc6 /home/programs/XC32/v2.30/bin/bin/../../lib/gcc/pic32mx/4.8.3/../../../../pic32mx/lib/fpu64/libc.a(strrchr.o)
 .debug_info    0x00286030       0xc4 /home/programs/XC32/v2.30/bin/bin/../../lib/gcc/pic32mx/4.8.3/../../../../pic32mx/lib/fpu64/libc.a(strtok.o)
 .debug_info    0x002860f4       0xdb /home/programs/XC32/v2.30/bin/bin/../../lib/gcc/pic32mx/4.8.3/../../../../pic32mx/lib/fpu64/libc.a(strtol.o)
 .debug_info    0x002861cf       0xd1 /home/programs/XC32/v2.30/bin/bin/../../lib/gcc/pic32mx/4.8.3/../../../../pic32mx/lib/fpu64/libc.a(fprintf_cdnopsuxX.eo)
 .debug_info    0x002862a0       0xc4 /home/programs/XC32/v2.30/bin/bin/../../lib/gcc/pic32mx/4.8.3/../../../../pic32mx/lib/fpu64/libc.a(fflush.o)
 .debug_info    0x00286364       0xe2 /home/programs/XC32/v2.30/bin/bin/../../lib/gcc/pic32mx/4.8.3/../../../../pic32mx/lib/fpu64/libc.a(fseek.o)
 .debug_info    0x00286446       0xc6 /home/programs/XC32/v2.30/bin/bin/../../lib/gcc/pic32mx/4.8.3/../../../../pic32mx/lib/fpu64/libc.a(strcspn.o)
 .debug_info    0x0028650c       0xc4 /home/programs/XC32/v2.30/bin/bin/../../lib/gcc/pic32mx/4.8.3/../../../../pic32mx/lib/fpu64/libc.a(strspn.o)
 .debug_info    0x002865d0       0xd2 /home/programs/XC32/v2.30/bin/bin/../../lib/gcc/pic32mx/4.8.3/../../../../pic32mx/lib/fpu64/libc.a(doprnt_cdnopsuxX.eo)
 .debug_info    0x002866a2      0x751 /home/programs/XC32/v2.30/bin/bin/../../lib/gcc/pic32mx/4.8.3/fpu64/libgcc.a(_udivdi3.o)
 .debug_info    0x00286df3      0x78e /home/programs/XC32/v2.30/bin/bin/../../lib/gcc/pic32mx/4.8.3/fpu64/libgcc.a(_umoddi3.o)
 .debug_info    0x00287581      0x131 /home/programs/XC32/v2.30/bin/bin/../../lib/gcc/pic32mx/4.8.3/../../../../pic32mx/lib/fpu64/libpic32.a(sbrk.o)
 .debug_info    0x002876b2       0xbf /home/programs/XC32/v2.30/bin/bin/../../lib/gcc/pic32mx/4.8.3/../../../../pic32mx/lib/fpu64/libpic32.a(write.o)
 .debug_info    0x00287771       0xbe /home/programs/XC32/v2.30/bin/bin/../../lib/gcc/pic32mx/4.8.3/../../../../pic32mx/lib/fpu64/libpic32.a(lseek.o)
 .debug_info    0x0028782f       0xc7 /home/programs/XC32/v2.30/bin/bin/../../lib/gcc/pic32mx/4.8.3/../../../../pic32mx/lib/fpu64/libpic32.a(_mon_putc.o)

.debug_abbrev   0x00000000    0x19bf5
 *.elf(.debug_abbrev)
 *(.debug_abbrev)
 .debug_abbrev  0x00000000       0x71 build/default/production/_ext/360186330/cpu_endian.o
 .debug_abbrev  0x00000071      0x223 build/default/production/_ext/360186330/os_port_freertos.o
 .debug_abbrev  0x00000294      0x1b2 build/default/production/_ext/360186330/date_time.o
 .debug_abbrev  0x00000446      0x160 build/default/production/_ext/360186330/str.o
 .debug_abbrev  0x000005a6      0x16c build/default/production/_ext/360186330/path.o
 .debug_abbrev  0x00000712      0x137 build/default/production/_ext/360186330/resource_manager.o
 .debug_abbrev  0x00000849      0x27f build/default/production/_ext/120521611/md5.o
 .debug_abbrev  0x00000ac8      0x272 build/default/production/_ext/120521611/sha1.o
 .debug_abbrev  0x00000d3a      0x239 build/default/production/_ext/120521611/sha224.o
 .debug_abbrev  0x00000f73      0x265 build/default/production/_ext/120521611/sha256.o
 .debug_abbrev  0x000011d8      0x268 build/default/production/_ext/120521611/sha384.o
 .debug_abbrev  0x00001440      0x265 build/default/production/_ext/120521611/sha512.o
 .debug_abbrev  0x000016a5      0x1d3 build/default/production/_ext/273211656/hmac.o
 .debug_abbrev  0x00001878      0x15b build/default/production/_ext/7005106/rc4.o
 .debug_abbrev  0x000019d3      0x251 build/default/production/_ext/7005106/idea.o
 .debug_abbrev  0x00001c24      0x173 build/default/production/_ext/7005106/des.o
 .debug_abbrev  0x00001d97      0x1a7 build/default/production/_ext/7005106/des3.o
 .debug_abbrev  0x00001f3e      0x197 build/default/production/_ext/7005106/aes.o
 .debug_abbrev  0x000020d5      0x1fe build/default/production/_ext/7005106/camellia.o
 .debug_abbrev  0x000022d3      0x197 build/default/production/_ext/7005106/seed.o
 .debug_abbrev  0x0000246a      0x1ff build/default/production/_ext/7005106/aria.o
 .debug_abbrev  0x00002669      0x14a build/default/production/_ext/1125617168/cbc.o
 .debug_abbrev  0x000027b3      0x1a4 build/default/production/_ext/120726866/ccm.o
 .debug_abbrev  0x00002957      0x234 build/default/production/_ext/120726866/gcm.o
 .debug_abbrev  0x00002b8b      0x15b build/default/production/_ext/7005106/chacha.o
 .debug_abbrev  0x00002ce6      0x117 build/default/production/_ext/273211656/poly1305.o
 .debug_abbrev  0x00002dfd      0x177 build/default/production/_ext/120726866/chacha20_poly1305.o
 .debug_abbrev  0x00002f74      0x18a build/default/production/_ext/273214849/dh.o
 .debug_abbrev  0x000030fe      0x307 build/default/production/_ext/273214849/rsa.o
 .debug_abbrev  0x00003405      0x23f build/default/production/_ext/273214849/dsa.o
 .debug_abbrev  0x00003644      0x24e build/default/production/_ext/273204030/ec.o
 .debug_abbrev  0x00003892      0x1b9 build/default/production/_ext/273204030/ec_curves.o
 .debug_abbrev  0x00003a4b      0x220 build/default/production/_ext/273204030/ecdh.o
 .debug_abbrev  0x00003c6b      0x257 build/default/production/_ext/273204030/ecdsa.o
 .debug_abbrev  0x00003ec2       0x1b build/default/production/_ext/273204030/eddsa.o
 .debug_abbrev  0x00003edd      0x167 build/default/production/_ext/273204030/curve25519.o
 .debug_abbrev  0x00004044       0x1b build/default/production/_ext/273204030/curve448.o
 .debug_abbrev  0x0000405f      0x145 build/default/production/_ext/273204030/x25519.o
 .debug_abbrev  0x000041a4       0x1b build/default/production/_ext/273204030/x448.o
 .debug_abbrev  0x000041bf       0x1b build/default/production/_ext/273204030/ed25519.o
 .debug_abbrev  0x000041da       0x1b build/default/production/_ext/273204030/ed448.o
 .debug_abbrev  0x000041f5      0x34e build/default/production/_ext/273212127/mpi.o
 .debug_abbrev  0x00004543      0x10b build/default/production/_ext/1404394810/base64.o
 .debug_abbrev  0x0000464e      0x1d5 build/default/production/_ext/1404394810/asn1.o
 .debug_abbrev  0x00004823      0x1bc build/default/production/_ext/1404394810/oid.o
 .debug_abbrev  0x000049df      0x27f build/default/production/_ext/120273967/pem_import.o
 .debug_abbrev  0x00004c5e      0x222 build/default/production/_ext/120273967/pkcs8_key_parse.o
 .debug_abbrev  0x00004e80      0x2e0 build/default/production/_ext/120273967/x509_key_parse.o
 .debug_abbrev  0x00005160      0x26e build/default/production/_ext/120273967/x509_cert_parse.o
 .debug_abbrev  0x000053ce      0x28e build/default/production/_ext/120273967/x509_cert_validate.o
 .debug_abbrev  0x0000565c      0x234 build/default/production/_ext/120273967/x509_crl_parse.o
 .debug_abbrev  0x00005890      0x1f4 build/default/production/_ext/120273967/x509_crl_validate.o
 .debug_abbrev  0x00005a84      0x1fb build/default/production/_ext/120273967/x509_common.o
 .debug_abbrev  0x00005c7f      0x198 build/default/production/_ext/273209830/hkdf.o
 .debug_abbrev  0x00005e17      0x243 build/default/production/_ext/273216868/yarrow.o
 .debug_abbrev  0x0000605a      0x33f build/default/production/_ext/476983781/tls.o
 .debug_abbrev  0x00006399      0x173 build/default/production/_ext/476983781/tls_cipher_suites.o
 .debug_abbrev  0x0000650c      0x298 build/default/production/_ext/476983781/tls_handshake.o
 .debug_abbrev  0x000067a4      0x2eb build/default/production/_ext/476983781/tls_client.o
 .debug_abbrev  0x00006a8f      0x258 build/default/production/_ext/476983781/tls_client_fsm.o
 .debug_abbrev  0x00006ce7      0x317 build/default/production/_ext/476983781/tls_client_extensions.o
 .debug_abbrev  0x00006ffe      0x337 build/default/production/_ext/476983781/tls_client_misc.o
 .debug_abbrev  0x00007335       0x1b build/default/production/_ext/476983781/tls_server.o
 .debug_abbrev  0x00007350       0x1b build/default/production/_ext/476983781/tls_server_fsm.o
 .debug_abbrev  0x0000736b       0x1b build/default/production/_ext/476983781/tls_server_extensions.o
 .debug_abbrev  0x00007386       0x1b build/default/production/_ext/476983781/tls_server_misc.o
 .debug_abbrev  0x000073a1      0x347 build/default/production/_ext/476983781/tls_common.o
 .debug_abbrev  0x000076e8      0x2aa build/default/production/_ext/476983781/tls_extensions.o
 .debug_abbrev  0x00007992      0x373 build/default/production/_ext/476983781/tls_certificate.o
 .debug_abbrev  0x00007d05      0x303 build/default/production/_ext/476983781/tls_signature.o
 .debug_abbrev  0x00008008      0x308 build/default/production/_ext/476983781/tls_key_material.o
 .debug_abbrev  0x00008310      0x361 build/default/production/_ext/476983781/tls_transcript_hash.o
 .debug_abbrev  0x00008671      0x2e4 build/default/production/_ext/476983781/tls_cache.o
 .debug_abbrev  0x00008955       0x1b build/default/production/_ext/476983781/tls_ticket.o
 .debug_abbrev  0x00008970       0x1b build/default/production/_ext/476983781/tls_ffdhe.o
 .debug_abbrev  0x0000898b      0x360 build/default/production/_ext/476983781/tls_record.o
 .debug_abbrev  0x00008ceb      0x296 build/default/production/_ext/476983781/tls_record_encryption.o
 .debug_abbrev  0x00008f81      0x337 build/default/production/_ext/476983781/tls_record_decryption.o
 .debug_abbrev  0x000092b8      0x3b4 build/default/production/_ext/476983781/tls_misc.o
 .debug_abbrev  0x0000966c      0x2c8 build/default/production/_ext/476983781/tls13_client.o
 .debug_abbrev  0x00009934      0x2fb build/default/production/_ext/476983781/tls13_client_extensions.o
 .debug_abbrev  0x00009c2f      0x23b build/default/production/_ext/476983781/tls13_client_misc.o
 .debug_abbrev  0x00009e6a       0x1b build/default/production/_ext/476983781/tls13_server.o
 .debug_abbrev  0x00009e85       0x1b build/default/production/_ext/476983781/tls13_server_extensions.o
 .debug_abbrev  0x00009ea0       0x1b build/default/production/_ext/476983781/tls13_server_misc.o
 .debug_abbrev  0x00009ebb      0x272 build/default/production/_ext/476983781/tls13_common.o
 .debug_abbrev  0x0000a12d      0x2be build/default/production/_ext/476983781/tls13_key_material.o
 .debug_abbrev  0x0000a3eb      0x38a build/default/production/_ext/476983781/tls13_misc.o
 .debug_abbrev  0x0000a775       0x1b build/default/production/_ext/476983781/ssl_misc.o
 .debug_abbrev  0x0000a790      0x3db build/default/production/_ext/1079766828/net.o
 .debug_abbrev  0x0000ab6b      0x2de build/default/production/_ext/1079766828/net_mem.o
 .debug_abbrev  0x0000ae49      0x395 build/default/production/_ext/37329846/pic32mz_eth_driver.o
 .debug_abbrev  0x0000b1de      0x330 build/default/production/_ext/37332968/lan8720_driver.o
 .debug_abbrev  0x0000b50e      0x336 build/default/production/_ext/1157531022/wilc1000_driver.o
 .debug_abbrev  0x0000b844      0x347 build/default/production/_ext/1079766828/nic.o
 .debug_abbrev  0x0000bb8b      0x3c4 build/default/production/_ext/1079766828/ethernet.o
 .debug_abbrev  0x0000bf4f      0x2e5 build/default/production/_ext/1079766828/ethernet_misc.o
 .debug_abbrev  0x0000c234      0x334 build/default/production/_ext/1079587046/arp.o
 .debug_abbrev  0x0000c568      0x37e build/default/production/_ext/1079587046/ipv4.o
 .debug_abbrev  0x0000c8e6      0x363 build/default/production/_ext/1079587046/ipv4_frag.o
 .debug_abbrev  0x0000cc49      0x2f9 build/default/production/_ext/1079587046/ipv4_misc.o
 .debug_abbrev  0x0000cf42      0x34f build/default/production/_ext/1079587046/icmp.o
 .debug_abbrev  0x0000d291       0x1b build/default/production/_ext/1079587046/igmp.o
 .debug_abbrev  0x0000d2ac      0x3df build/default/production/_ext/1079587044/ipv6.o
 .debug_abbrev  0x0000d68b      0x363 build/default/production/_ext/1079587044/ipv6_frag.o
 .debug_abbrev  0x0000d9ee      0x375 build/default/production/_ext/1079587044/ipv6_misc.o
 .debug_abbrev  0x0000dd63      0x215 build/default/production/_ext/1079587044/ipv6_pmtu.o
 .debug_abbrev  0x0000df78      0x363 build/default/production/_ext/1079587044/icmpv6.o
 .debug_abbrev  0x0000e2db      0x358 build/default/production/_ext/1079587044/mld.o
 .debug_abbrev  0x0000e633      0x37c build/default/production/_ext/1079587044/ndp.o
 .debug_abbrev  0x0000e9af      0x31b build/default/production/_ext/1079587044/ndp_cache.o
 .debug_abbrev  0x0000ecca      0x2fa build/default/production/_ext/1079587044/ndp_misc.o
 .debug_abbrev  0x0000efc4      0x38f build/default/production/_ext/1079587044/ndp_router_adv.o
 .debug_abbrev  0x0000f353      0x399 build/default/production/_ext/1079587044/slaac.o
 .debug_abbrev  0x0000f6ec      0x33e build/default/production/_ext/1079766828/ip.o
 .debug_abbrev  0x0000fa2a      0x337 build/default/production/_ext/1079766828/tcp.o
 .debug_abbrev  0x0000fd61      0x2be build/default/production/_ext/1079766828/tcp_fsm.o
 .debug_abbrev  0x0001001f      0x39d build/default/production/_ext/1079766828/tcp_misc.o
 .debug_abbrev  0x000103bc      0x338 build/default/production/_ext/1079766828/tcp_timer.o
 .debug_abbrev  0x000106f4      0x374 build/default/production/_ext/1079766828/udp.o
 .debug_abbrev  0x00010a68      0x3a1 build/default/production/_ext/1079766828/socket.o
 .debug_abbrev  0x00010e09      0x395 build/default/production/_ext/1079766828/bsd_socket.o
 .debug_abbrev  0x0001119e       0x1b build/default/production/_ext/1079766828/raw_socket.o
 .debug_abbrev  0x000111b9      0x279 build/default/production/_ext/242264404/dns_cache.o
 .debug_abbrev  0x00011432      0x390 build/default/production/_ext/242264404/dns_client.o
 .debug_abbrev  0x000117c2      0x186 build/default/production/_ext/242264404/dns_common.o
 .debug_abbrev  0x00011948       0x1b build/default/production/_ext/242264404/dns_debug.o
 .debug_abbrev  0x00011963       0x1b build/default/production/_ext/1079479599/mdns_client.o
 .debug_abbrev  0x0001197e       0x1b build/default/production/_ext/1079479599/mdns_responder.o
 .debug_abbrev  0x00011999       0x1b build/default/production/_ext/1079479599/mdns_common.o
 .debug_abbrev  0x000119b4      0x330 build/default/production/_ext/1435316685/nbns_client.o
 .debug_abbrev  0x00011ce4      0x2bd build/default/production/_ext/1435316685/nbns_responder.o
 .debug_abbrev  0x00011fa1      0x2e6 build/default/production/_ext/1435316685/nbns_common.o
 .debug_abbrev  0x00012287       0x1b build/default/production/_ext/895184604/llmnr_client.o
 .debug_abbrev  0x000122a2      0x2c3 build/default/production/_ext/895184604/llmnr_responder.o
 .debug_abbrev  0x00012565       0x82 build/default/production/_ext/895184604/llmnr_common.o
 .debug_abbrev  0x000125e7      0x3c4 build/default/production/_ext/1079744218/dhcp_client.o
 .debug_abbrev  0x000129ab      0x3a9 build/default/production/_ext/1079744218/dhcp_server.o
 .debug_abbrev  0x00012d54      0x166 build/default/production/_ext/1079744218/dhcp_common.o
 .debug_abbrev  0x00012eba       0x1b build/default/production/_ext/1079744218/dhcp_debug.o
 .debug_abbrev  0x00012ed5      0x426 build/default/production/_ext/1079612995/http_server.o
 .debug_abbrev  0x000132fb      0x30d build/default/production/_ext/1079612995/http_server_auth.o
 .debug_abbrev  0x00013608      0x3a5 build/default/production/_ext/1079612995/http_server_misc.o
 .debug_abbrev  0x000139ad      0x106 build/default/production/_ext/1079612995/mime.o
 .debug_abbrev  0x00013ab3      0x35c build/default/production/_ext/1079612995/ssi.o
 .debug_abbrev  0x00013e0f      0x38b build/default/production/_ext/1079466919/mqtt_client.o
 .debug_abbrev  0x0001419a      0x412 build/default/production/_ext/1079466919/mqtt_client_misc.o
 .debug_abbrev  0x000145ac      0x340 build/default/production/_ext/1079466919/mqtt_client_packet.o
 .debug_abbrev  0x000148ec      0x368 build/default/production/_ext/1079466919/mqtt_client_transport.o
 .debug_abbrev  0x00014c54      0x3a6 build/default/production/_ext/18976819/web_socket.o
 .debug_abbrev  0x00014ffa      0x264 build/default/production/_ext/18976819/web_socket_auth.o
 .debug_abbrev  0x0001525e      0x2c8 build/default/production/_ext/18976819/web_socket_frame.o
 .debug_abbrev  0x00015526      0x3c1 build/default/production/_ext/18976819/web_socket_misc.o
 .debug_abbrev  0x000158e7      0x32f build/default/production/_ext/18976819/web_socket_transport.o
 .debug_abbrev  0x00015c16      0x42e build/default/production/_ext/1360937237/main.o
 .debug_abbrev  0x00016044      0x177 build/default/production/_ext/1360937237/debug.o
 .debug_abbrev  0x000161bb      0x169 build/default/production/_ext/1360937237/sprintf.o
 .debug_abbrev  0x00016324       0x90 build/default/production/_ext/1360937237/strtok_r.o
 .debug_abbrev  0x000163b4       0x14 build/default/production/_ext/1360937237/eth_irq_wrapper.o
 .debug_abbrev  0x000163c8       0x14 build/default/production/_ext/1360937237/ext1_irq_wrapper.o
 .debug_abbrev  0x000163dc      0x1ec build/default/production/_ext/1360937237/wilc1000_callbacks.o
 .debug_abbrev  0x000165c8       0x45 build/default/production/_ext/1360937237/res.o
 .debug_abbrev  0x0001660d      0x2b6 build/default/production/_ext/23001898/port.o
 .debug_abbrev  0x000168c3       0x12 build/default/production/_ext/23001898/port_asm.o
 .debug_abbrev  0x000168d5       0x1b build/default/production/_ext/986256546/croutine.o
 .debug_abbrev  0x000168f0       0xf6 build/default/production/_ext/986256546/list.o
 .debug_abbrev  0x000169e6      0x340 build/default/production/_ext/986256546/queue.o
 .debug_abbrev  0x00016d26      0x38b build/default/production/_ext/986256546/tasks.o
 .debug_abbrev  0x000170b1      0x378 build/default/production/_ext/986256546/timers.o
 .debug_abbrev  0x00017429       0xfc build/default/production/_ext/979089083/heap_3.o
 .debug_abbrev  0x00017525      0x1e2 build/default/production/_ext/457051042/nm_bsp_pic32mz.o
 .debug_abbrev  0x00017707      0x1e7 build/default/production/_ext/1700104339/nm_bus_wrapper_pic32mz.o
 .debug_abbrev  0x000178ee      0x117 build/default/production/_ext/1185106856/nm_common.o
 .debug_abbrev  0x00017a05      0x3e0 build/default/production/_ext/1679150795/m2m_hif.o
 .debug_abbrev  0x00017de5      0x204 build/default/production/_ext/1679150795/m2m_periph.o
 .debug_abbrev  0x00017fe9      0x37c build/default/production/_ext/1679150795/m2m_wifi.o
 .debug_abbrev  0x00018365      0x283 build/default/production/_ext/1679150795/nmasic.o
 .debug_abbrev  0x000185e8      0x259 build/default/production/_ext/1679150795/nmbus.o
 .debug_abbrev  0x00018841      0x22d build/default/production/_ext/1679150795/nmdrv.o
 .debug_abbrev  0x00018a6e      0x386 build/default/production/_ext/1679150795/nmspi.o
 .debug_abbrev  0x00018df4      0x1de build/default/production/_ext/1679150795/spi_flash.o
 .debug_abbrev  0x00018fd2      0x225 build/default/production/_ext/1022178492/PMK.o
 .debug_abbrev  0x000191f7      0x227 build/default/production/_ext/1640134129/m2m_wifi_ex.o
 .debug_abbrev  0x0001941e       0x28 /home/programs/XC32/v2.30/bin/bin/../../lib/gcc/pic32mx/4.8.3/../../../../pic32mx/lib/fpu64/libpic32.a(default-bootstrap-exception-handler.o)
 .debug_abbrev  0x00019446       0x28 /home/programs/XC32/v2.30/bin/bin/../../lib/gcc/pic32mx/4.8.3/../../../../pic32mx/lib/fpu64/libpic32.a(default-on-reset.o)
 .debug_abbrev  0x0001946e       0x28 /home/programs/XC32/v2.30/bin/bin/../../lib/gcc/pic32mx/4.8.3/../../../../pic32mx/lib/fpu64/libpic32.a(default-on-bootstrap.o)
 .debug_abbrev  0x00019496       0x28 /home/programs/XC32/v2.30/bin/bin/../../lib/gcc/pic32mx/4.8.3/../../../../pic32mx/lib/fpu64/libpic32.a(defaultinterrupt.o)
 .debug_abbrev  0x000194be       0x28 /home/programs/XC32/v2.30/bin/bin/../../lib/gcc/pic32mx/4.8.3/../../../../pic32mx/lib/fpu64/libpic32.a(default-general-exception-handler.o)
 .debug_abbrev  0x000194e6       0x28 /home/programs/XC32/v2.30/bin/bin/../../lib/gcc/pic32mx/4.8.3/../../../../pic32mx/lib/fpu64/libpic32.a(default-cache-err-exception-handler.o)
 .debug_abbrev  0x0001950e       0x28 /home/programs/XC32/v2.30/bin/bin/../../lib/gcc/pic32mx/4.8.3/../../../../pic32mx/lib/fpu64/libpic32.a(default-simple-tlb-refill-exception-handler.o)
 .debug_abbrev  0x00019536       0x28 /home/programs/XC32/v2.30/bin/bin/../../lib/gcc/pic32mx/4.8.3/../../../../pic32mx/lib/fpu64/libc.a(fwrite.o)
 .debug_abbrev  0x0001955e       0x28 /home/programs/XC32/v2.30/bin/bin/../../lib/gcc/pic32mx/4.8.3/../../../../pic32mx/lib/fpu64/libc.a(atoi.o)
 .debug_abbrev  0x00019586       0x28 /home/programs/XC32/v2.30/bin/bin/../../lib/gcc/pic32mx/4.8.3/../../../../pic32mx/lib/fpu64/libc.a(ctypef.o)
 .debug_abbrev  0x000195ae       0x47 /home/programs/XC32/v2.30/bin/bin/../../lib/gcc/pic32mx/4.8.3/../../../../pic32mx/lib/fpu64/libc.a(malloc.o)
 .debug_abbrev  0x000195f5       0x28 /home/programs/XC32/v2.30/bin/bin/../../lib/gcc/pic32mx/4.8.3/../../../../pic32mx/lib/fpu64/libc.a(memmove.o)
 .debug_abbrev  0x0001961d       0x28 /home/programs/XC32/v2.30/bin/bin/../../lib/gcc/pic32mx/4.8.3/../../../../pic32mx/lib/fpu64/libc.a(puts.o)
 .debug_abbrev  0x00019645       0x28 /home/programs/XC32/v2.30/bin/bin/../../lib/gcc/pic32mx/4.8.3/../../../../pic32mx/lib/fpu64/libc.a(strchr.o)
 .debug_abbrev  0x0001966d       0x28 /home/programs/XC32/v2.30/bin/bin/../../lib/gcc/pic32mx/4.8.3/../../../../pic32mx/lib/fpu64/libc.a(strcasecmp.o)
 .debug_abbrev  0x00019695       0x28 /home/programs/XC32/v2.30/bin/bin/../../lib/gcc/pic32mx/4.8.3/../../../../pic32mx/lib/fpu64/libc.a(strncasecmp.o)
 .debug_abbrev  0x000196bd       0x28 /home/programs/XC32/v2.30/bin/bin/../../lib/gcc/pic32mx/4.8.3/../../../../pic32mx/lib/fpu64/libc.a(strncat.o)
 .debug_abbrev  0x000196e5       0x28 /home/programs/XC32/v2.30/bin/bin/../../lib/gcc/pic32mx/4.8.3/../../../../pic32mx/lib/fpu64/libc.a(strncmp.o)
 .debug_abbrev  0x0001970d       0x28 /home/programs/XC32/v2.30/bin/bin/../../lib/gcc/pic32mx/4.8.3/../../../../pic32mx/lib/fpu64/libc.a(strncpy.o)
 .debug_abbrev  0x00019735       0x28 /home/programs/XC32/v2.30/bin/bin/../../lib/gcc/pic32mx/4.8.3/../../../../pic32mx/lib/fpu64/libc.a(strrchr.o)
 .debug_abbrev  0x0001975d       0x28 /home/programs/XC32/v2.30/bin/bin/../../lib/gcc/pic32mx/4.8.3/../../../../pic32mx/lib/fpu64/libc.a(strtok.o)
 .debug_abbrev  0x00019785       0x28 /home/programs/XC32/v2.30/bin/bin/../../lib/gcc/pic32mx/4.8.3/../../../../pic32mx/lib/fpu64/libc.a(strtol.o)
 .debug_abbrev  0x000197ad       0x28 /home/programs/XC32/v2.30/bin/bin/../../lib/gcc/pic32mx/4.8.3/../../../../pic32mx/lib/fpu64/libc.a(fprintf_cdnopsuxX.eo)
 .debug_abbrev  0x000197d5       0x28 /home/programs/XC32/v2.30/bin/bin/../../lib/gcc/pic32mx/4.8.3/../../../../pic32mx/lib/fpu64/libc.a(fflush.o)
 .debug_abbrev  0x000197fd       0x35 /home/programs/XC32/v2.30/bin/bin/../../lib/gcc/pic32mx/4.8.3/../../../../pic32mx/lib/fpu64/libc.a(fseek.o)
 .debug_abbrev  0x00019832       0x28 /home/programs/XC32/v2.30/bin/bin/../../lib/gcc/pic32mx/4.8.3/../../../../pic32mx/lib/fpu64/libc.a(strcspn.o)
 .debug_abbrev  0x0001985a       0x28 /home/programs/XC32/v2.30/bin/bin/../../lib/gcc/pic32mx/4.8.3/../../../../pic32mx/lib/fpu64/libc.a(strspn.o)
 .debug_abbrev  0x00019882       0x28 /home/programs/XC32/v2.30/bin/bin/../../lib/gcc/pic32mx/4.8.3/../../../../pic32mx/lib/fpu64/libc.a(doprnt_cdnopsuxX.eo)
 .debug_abbrev  0x000198aa      0x138 /home/programs/XC32/v2.30/bin/bin/../../lib/gcc/pic32mx/4.8.3/fpu64/libgcc.a(_udivdi3.o)
 .debug_abbrev  0x000199e2      0x147 /home/programs/XC32/v2.30/bin/bin/../../lib/gcc/pic32mx/4.8.3/fpu64/libgcc.a(_umoddi3.o)
 .debug_abbrev  0x00019b29       0x54 /home/programs/XC32/v2.30/bin/bin/../../lib/gcc/pic32mx/4.8.3/../../../../pic32mx/lib/fpu64/libpic32.a(sbrk.o)
 .debug_abbrev  0x00019b7d       0x28 /home/programs/XC32/v2.30/bin/bin/../../lib/gcc/pic32mx/4.8.3/../../../../pic32mx/lib/fpu64/libpic32.a(write.o)
 .debug_abbrev  0x00019ba5       0x28 /home/programs/XC32/v2.30/bin/bin/../../lib/gcc/pic32mx/4.8.3/../../../../pic32mx/lib/fpu64/libpic32.a(lseek.o)
 .debug_abbrev  0x00019bcd       0x28 /home/programs/XC32/v2.30/bin/bin/../../lib/gcc/pic32mx/4.8.3/../../../../pic32mx/lib/fpu64/libpic32.a(_mon_putc.o)

.debug_line     0x00000000    0x30f39
 *.elf(.debug_line)
 *(.debug_line)
 .debug_line    0x00000000      0x10f build/default/production/_ext/360186330/cpu_endian.o
 .debug_line    0x0000010f      0x2d6 build/default/production/_ext/360186330/os_port_freertos.o
 .debug_line    0x000003e5      0x1cd build/default/production/_ext/360186330/date_time.o
 .debug_line    0x000005b2      0x185 build/default/production/_ext/360186330/str.o
 .debug_line    0x00000737      0x210 build/default/production/_ext/360186330/path.o
 .debug_line    0x00000947      0x1eb build/default/production/_ext/360186330/resource_manager.o
 .debug_line    0x00000b32      0x306 build/default/production/_ext/120521611/md5.o
 .debug_line    0x00000e38      0x293 build/default/production/_ext/120521611/sha1.o
 .debug_line    0x000010cb      0x22a build/default/production/_ext/120521611/sha224.o
 .debug_line    0x000012f5      0x293 build/default/production/_ext/120521611/sha256.o
 .debug_line    0x00001588      0x253 build/default/production/_ext/120521611/sha384.o
 .debug_line    0x000017db      0x2a3 build/default/production/_ext/120521611/sha512.o
 .debug_line    0x00001a7e      0x242 build/default/production/_ext/273211656/hmac.o
 .debug_line    0x00001cc0      0x200 build/default/production/_ext/7005106/rc4.o
 .debug_line    0x00001ec0      0x29f build/default/production/_ext/7005106/idea.o
 .debug_line    0x0000215f      0x290 build/default/production/_ext/7005106/des.o
 .debug_line    0x000023ef      0x20a build/default/production/_ext/7005106/des3.o
 .debug_line    0x000025f9      0x352 build/default/production/_ext/7005106/aes.o
 .debug_line    0x0000294b      0x2fa build/default/production/_ext/7005106/camellia.o
 .debug_line    0x00002c45      0x24f build/default/production/_ext/7005106/seed.o
 .debug_line    0x00002e94      0x358 build/default/production/_ext/7005106/aria.o
 .debug_line    0x000031ec      0x203 build/default/production/_ext/1125617168/cbc.o
 .debug_line    0x000033ef      0x2b8 build/default/production/_ext/120726866/ccm.o
 .debug_line    0x000036a7      0x330 build/default/production/_ext/120726866/gcm.o
 .debug_line    0x000039d7      0x241 build/default/production/_ext/7005106/chacha.o
 .debug_line    0x00003c18      0x278 build/default/production/_ext/273211656/poly1305.o
 .debug_line    0x00003e90      0x288 build/default/production/_ext/120726866/chacha20_poly1305.o
 .debug_line    0x00004118      0x279 build/default/production/_ext/273214849/dh.o
 .debug_line    0x00004391      0x6ca build/default/production/_ext/273214849/rsa.o
 .debug_line    0x00004a5b      0x3a5 build/default/production/_ext/273214849/dsa.o
 .debug_line    0x00004e00      0x4a2 build/default/production/_ext/273204030/ec.o
 .debug_line    0x000052a2      0x3a3 build/default/production/_ext/273204030/ec_curves.o
 .debug_line    0x00005645      0x2ea build/default/production/_ext/273204030/ecdh.o
 .debug_line    0x0000592f      0x3cb build/default/production/_ext/273204030/ecdsa.o
 .debug_line    0x00005cfa       0x1d build/default/production/_ext/273204030/eddsa.o
 .debug_line    0x00005d17      0x27a build/default/production/_ext/273204030/curve25519.o
 .debug_line    0x00005f91       0x1d build/default/production/_ext/273204030/curve448.o
 .debug_line    0x00005fae      0x1eb build/default/production/_ext/273204030/x25519.o
 .debug_line    0x00006199       0x1d build/default/production/_ext/273204030/x448.o
 .debug_line    0x000061b6       0x1d build/default/production/_ext/273204030/ed25519.o
 .debug_line    0x000061d3       0x1d build/default/production/_ext/273204030/ed448.o
 .debug_line    0x000061f0      0x64c build/default/production/_ext/273212127/mpi.o
 .debug_line    0x0000683c      0x1f2 build/default/production/_ext/1404394810/base64.o
 .debug_line    0x00006a2e      0x2f7 build/default/production/_ext/1404394810/asn1.o
 .debug_line    0x00006d25      0x2e3 build/default/production/_ext/1404394810/oid.o
 .debug_line    0x00007008      0x5d4 build/default/production/_ext/120273967/pem_import.o
 .debug_line    0x000075dc      0x4b3 build/default/production/_ext/120273967/pkcs8_key_parse.o
 .debug_line    0x00007a8f      0x500 build/default/production/_ext/120273967/x509_key_parse.o
 .debug_line    0x00007f8f      0x59d build/default/production/_ext/120273967/x509_cert_parse.o
 .debug_line    0x0000852c      0x4b2 build/default/production/_ext/120273967/x509_cert_validate.o
 .debug_line    0x000089de      0x3bc build/default/production/_ext/120273967/x509_crl_parse.o
 .debug_line    0x00008d9a      0x231 build/default/production/_ext/120273967/x509_crl_validate.o
 .debug_line    0x00008fcb      0x496 build/default/production/_ext/120273967/x509_common.o
 .debug_line    0x00009461      0x295 build/default/production/_ext/273209830/hkdf.o
 .debug_line    0x000096f6      0x3b5 build/default/production/_ext/273216868/yarrow.o
 .debug_line    0x00009aab      0x9be build/default/production/_ext/476983781/tls.o
 .debug_line    0x0000a469      0x307 build/default/production/_ext/476983781/tls_cipher_suites.o
 .debug_line    0x0000a770      0x5dc build/default/production/_ext/476983781/tls_handshake.o
 .debug_line    0x0000ad4c      0x894 build/default/production/_ext/476983781/tls_client.o
 .debug_line    0x0000b5e0      0x681 build/default/production/_ext/476983781/tls_client_fsm.o
 .debug_line    0x0000bc61      0x6b7 build/default/production/_ext/476983781/tls_client_extensions.o
 .debug_line    0x0000c318      0x769 build/default/production/_ext/476983781/tls_client_misc.o
 .debug_line    0x0000ca81       0x1d build/default/production/_ext/476983781/tls_server.o
 .debug_line    0x0000ca9e       0x1d build/default/production/_ext/476983781/tls_server_fsm.o
 .debug_line    0x0000cabb       0x1d build/default/production/_ext/476983781/tls_server_extensions.o
 .debug_line    0x0000cad8       0x1d build/default/production/_ext/476983781/tls_server_misc.o
 .debug_line    0x0000caf5      0x858 build/default/production/_ext/476983781/tls_common.o
 .debug_line    0x0000d34d      0x726 build/default/production/_ext/476983781/tls_extensions.o
 .debug_line    0x0000da73      0x913 build/default/production/_ext/476983781/tls_certificate.o
 .debug_line    0x0000e386      0x7ab build/default/production/_ext/476983781/tls_signature.o
 .debug_line    0x0000eb31      0x6ce build/default/production/_ext/476983781/tls_key_material.o
 .debug_line    0x0000f1ff      0x615 build/default/production/_ext/476983781/tls_transcript_hash.o
 .debug_line    0x0000f814      0x5cd build/default/production/_ext/476983781/tls_cache.o
 .debug_line    0x0000fde1       0x1d build/default/production/_ext/476983781/tls_ticket.o
 .debug_line    0x0000fdfe       0x1d build/default/production/_ext/476983781/tls_ffdhe.o
 .debug_line    0x0000fe1b      0x70c build/default/production/_ext/476983781/tls_record.o
 .debug_line    0x00010527      0x662 build/default/production/_ext/476983781/tls_record_encryption.o
 .debug_line    0x00010b89      0x784 build/default/production/_ext/476983781/tls_record_decryption.o
 .debug_line    0x0001130d      0x7d4 build/default/production/_ext/476983781/tls_misc.o
 .debug_line    0x00011ae1      0x6b5 build/default/production/_ext/476983781/tls13_client.o
 .debug_line    0x00012196      0x67d build/default/production/_ext/476983781/tls13_client_extensions.o
 .debug_line    0x00012813      0x5b9 build/default/production/_ext/476983781/tls13_client_misc.o
 .debug_line    0x00012dcc       0x1d build/default/production/_ext/476983781/tls13_server.o
 .debug_line    0x00012de9       0x1d build/default/production/_ext/476983781/tls13_server_extensions.o
 .debug_line    0x00012e06       0x1d build/default/production/_ext/476983781/tls13_server_misc.o
 .debug_line    0x00012e23      0x5c7 build/default/production/_ext/476983781/tls13_common.o
 .debug_line    0x000133ea      0x705 build/default/production/_ext/476983781/tls13_key_material.o
 .debug_line    0x00013aef      0x7fc build/default/production/_ext/476983781/tls13_misc.o
 .debug_line    0x000142eb       0x1d build/default/production/_ext/476983781/ssl_misc.o
 .debug_line    0x00014308      0x916 build/default/production/_ext/1079766828/net.o
 .debug_line    0x00014c1e      0x2f2 build/default/production/_ext/1079766828/net_mem.o
 .debug_line    0x00014f10      0x5e7 build/default/production/_ext/37329846/pic32mz_eth_driver.o
 .debug_line    0x000154f7      0x480 build/default/production/_ext/37332968/lan8720_driver.o
 .debug_line    0x00015977      0x682 build/default/production/_ext/1157531022/wilc1000_driver.o
 .debug_line    0x00015ff9      0x41a build/default/production/_ext/1079766828/nic.o
 .debug_line    0x00016413      0x4fa build/default/production/_ext/1079766828/ethernet.o
 .debug_line    0x0001690d      0x454 build/default/production/_ext/1079766828/ethernet_misc.o
 .debug_line    0x00016d61      0x575 build/default/production/_ext/1079587046/arp.o
 .debug_line    0x000172d6      0x626 build/default/production/_ext/1079587046/ipv4.o
 .debug_line    0x000178fc      0x4d2 build/default/production/_ext/1079587046/ipv4_frag.o
 .debug_line    0x00017dce      0x4b5 build/default/production/_ext/1079587046/ipv4_misc.o
 .debug_line    0x00018283      0x466 build/default/production/_ext/1079587046/icmp.o
 .debug_line    0x000186e9       0x1d build/default/production/_ext/1079587046/igmp.o
 .debug_line    0x00018706      0x812 build/default/production/_ext/1079587044/ipv6.o
 .debug_line    0x00018f18      0x4fc build/default/production/_ext/1079587044/ipv6_frag.o
 .debug_line    0x00019414      0x68d build/default/production/_ext/1079587044/ipv6_misc.o
 .debug_line    0x00019aa1      0x3be build/default/production/_ext/1079587044/ipv6_pmtu.o
 .debug_line    0x00019e5f      0x4fe build/default/production/_ext/1079587044/icmpv6.o
 .debug_line    0x0001a35d      0x4da build/default/production/_ext/1079587044/mld.o
 .debug_line    0x0001a837      0x707 build/default/production/_ext/1079587044/ndp.o
 .debug_line    0x0001af3e      0x4be build/default/production/_ext/1079587044/ndp_cache.o
 .debug_line    0x0001b3fc      0x537 build/default/production/_ext/1079587044/ndp_misc.o
 .debug_line    0x0001b933      0x541 build/default/production/_ext/1079587044/ndp_router_adv.o
 .debug_line    0x0001be74      0x510 build/default/production/_ext/1079587044/slaac.o
 .debug_line    0x0001c384      0x4ce build/default/production/_ext/1079766828/ip.o
 .debug_line    0x0001c852      0x585 build/default/production/_ext/1079766828/tcp.o
 .debug_line    0x0001cdd7      0x5f4 build/default/production/_ext/1079766828/tcp_fsm.o
 .debug_line    0x0001d3cb      0x7a3 build/default/production/_ext/1079766828/tcp_misc.o
 .debug_line    0x0001db6e      0x455 build/default/production/_ext/1079766828/tcp_timer.o
 .debug_line    0x0001dfc3      0x5a1 build/default/production/_ext/1079766828/udp.o
 .debug_line    0x0001e564      0x696 build/default/production/_ext/1079766828/socket.o
 .debug_line    0x0001ebfa      0x7f0 build/default/production/_ext/1079766828/bsd_socket.o
 .debug_line    0x0001f3ea       0x1d build/default/production/_ext/1079766828/raw_socket.o
 .debug_line    0x0001f407      0x52e build/default/production/_ext/242264404/dns_cache.o
 .debug_line    0x0001f935      0x57b build/default/production/_ext/242264404/dns_client.o
 .debug_line    0x0001feb0      0x259 build/default/production/_ext/242264404/dns_common.o
 .debug_line    0x00020109       0x1d build/default/production/_ext/242264404/dns_debug.o
 .debug_line    0x00020126       0x1d build/default/production/_ext/1079479599/mdns_client.o
 .debug_line    0x00020143       0x1d build/default/production/_ext/1079479599/mdns_responder.o
 .debug_line    0x00020160       0x1d build/default/production/_ext/1079479599/mdns_common.o
 .debug_line    0x0002017d      0x572 build/default/production/_ext/1435316685/nbns_client.o
 .debug_line    0x000206ef      0x4d6 build/default/production/_ext/1435316685/nbns_responder.o
 .debug_line    0x00020bc5      0x595 build/default/production/_ext/1435316685/nbns_common.o
 .debug_line    0x0002115a       0x1d build/default/production/_ext/895184604/llmnr_client.o
 .debug_line    0x00021177      0x520 build/default/production/_ext/895184604/llmnr_responder.o
 .debug_line    0x00021697      0x121 build/default/production/_ext/895184604/llmnr_common.o
 .debug_line    0x000217b8      0x71d build/default/production/_ext/1079744218/dhcp_client.o
 .debug_line    0x00021ed5      0x5bf build/default/production/_ext/1079744218/dhcp_server.o
 .debug_line    0x00022494      0x26a build/default/production/_ext/1079744218/dhcp_common.o
 .debug_line    0x000226fe       0x1d build/default/production/_ext/1079744218/dhcp_debug.o
 .debug_line    0x0002271b      0xac9 build/default/production/_ext/1079612995/http_server.o
 .debug_line    0x000231e4      0x479 build/default/production/_ext/1079612995/http_server_auth.o
 .debug_line    0x0002365d      0x65e build/default/production/_ext/1079612995/http_server_misc.o
 .debug_line    0x00023cbb      0x145 build/default/production/_ext/1079612995/mime.o
 .debug_line    0x00023e00      0x5a9 build/default/production/_ext/1079612995/ssi.o
 .debug_line    0x000243a9      0xb08 build/default/production/_ext/1079466919/mqtt_client.o
 .debug_line    0x00024eb1      0x973 build/default/production/_ext/1079466919/mqtt_client_misc.o
 .debug_line    0x00025824      0xa97 build/default/production/_ext/1079466919/mqtt_client_packet.o
 .debug_line    0x000262bb      0x935 build/default/production/_ext/1079466919/mqtt_client_transport.o
 .debug_line    0x00026bf0      0xac5 build/default/production/_ext/18976819/web_socket.o
 .debug_line    0x000276b5      0x7d1 build/default/production/_ext/18976819/web_socket_auth.o
 .debug_line    0x00027e86      0x874 build/default/production/_ext/18976819/web_socket_frame.o
 .debug_line    0x000286fa      0xac4 build/default/production/_ext/18976819/web_socket_misc.o
 .debug_line    0x000291be      0x80e build/default/production/_ext/18976819/web_socket_transport.o
 .debug_line    0x000299cc     0x1082 build/default/production/_ext/1360937237/main.o
 .debug_line    0x0002aa4e      0x227 build/default/production/_ext/1360937237/debug.o
 .debug_line    0x0002ac75      0x1b3 build/default/production/_ext/1360937237/sprintf.o
 .debug_line    0x0002ae28       0xd7 build/default/production/_ext/1360937237/strtok_r.o
 .debug_line    0x0002aeff       0xa3 build/default/production/_ext/1360937237/eth_irq_wrapper.o
 .debug_line    0x0002afa2       0xa4 build/default/production/_ext/1360937237/ext1_irq_wrapper.o
 .debug_line    0x0002b046      0x3c2 build/default/production/_ext/1360937237/wilc1000_callbacks.o
 .debug_line    0x0002b408       0xa6 build/default/production/_ext/1360937237/res.o
 .debug_line    0x0002b4ae      0x1f9 build/default/production/_ext/23001898/port.o
 .debug_line    0x0002b6a7      0x1c0 build/default/production/_ext/23001898/port_asm.o
 .debug_line    0x0002b867       0x1d build/default/production/_ext/986256546/croutine.o
 .debug_line    0x0002b884      0x1e5 build/default/production/_ext/986256546/list.o
 .debug_line    0x0002ba69      0x481 build/default/production/_ext/986256546/queue.o
 .debug_line    0x0002beea      0x621 build/default/production/_ext/986256546/tasks.o
 .debug_line    0x0002c50b      0x36f build/default/production/_ext/986256546/timers.o
 .debug_line    0x0002c87a      0x1d5 build/default/production/_ext/979089083/heap_3.o
 .debug_line    0x0002ca4f      0x3c6 build/default/production/_ext/457051042/nm_bsp_pic32mz.o
 .debug_line    0x0002ce15      0x3cb build/default/production/_ext/1700104339/nm_bus_wrapper_pic32mz.o
 .debug_line    0x0002d1e0      0x1fc build/default/production/_ext/1185106856/nm_common.o
 .debug_line    0x0002d3dc      0x4e3 build/default/production/_ext/1679150795/m2m_hif.o
 .debug_line    0x0002d8bf      0x29f build/default/production/_ext/1679150795/m2m_periph.o
 .debug_line    0x0002db5e      0x64a build/default/production/_ext/1679150795/m2m_wifi.o
 .debug_line    0x0002e1a8      0x537 build/default/production/_ext/1679150795/nmasic.o
 .debug_line    0x0002e6df      0x2b1 build/default/production/_ext/1679150795/nmbus.o
 .debug_line    0x0002e990      0x2df build/default/production/_ext/1679150795/nmdrv.o
 .debug_line    0x0002ec6f      0x55a build/default/production/_ext/1679150795/nmspi.o
 .debug_line    0x0002f1c9      0x2a0 build/default/production/_ext/1679150795/spi_flash.o
 .debug_line    0x0002f469      0x343 build/default/production/_ext/1022178492/PMK.o
 .debug_line    0x0002f7ac      0x49c build/default/production/_ext/1640134129/m2m_wifi_ex.o
 .debug_line    0x0002fc48       0xa6 /home/programs/XC32/v2.30/bin/bin/../../lib/gcc/pic32mx/4.8.3/../../../../pic32mx/lib/fpu64/libpic32.a(default-bootstrap-exception-handler.o)
 .debug_line    0x0002fcee       0x93 /home/programs/XC32/v2.30/bin/bin/../../lib/gcc/pic32mx/4.8.3/../../../../pic32mx/lib/fpu64/libpic32.a(default-on-reset.o)
 .debug_line    0x0002fd81       0x97 /home/programs/XC32/v2.30/bin/bin/../../lib/gcc/pic32mx/4.8.3/../../../../pic32mx/lib/fpu64/libpic32.a(default-on-bootstrap.o)
 .debug_line    0x0002fe18       0xa5 /home/programs/XC32/v2.30/bin/bin/../../lib/gcc/pic32mx/4.8.3/../../../../pic32mx/lib/fpu64/libpic32.a(defaultinterrupt.o)
 .debug_line    0x0002febd       0xa4 /home/programs/XC32/v2.30/bin/bin/../../lib/gcc/pic32mx/4.8.3/../../../../pic32mx/lib/fpu64/libpic32.a(default-general-exception-handler.o)
 .debug_line    0x0002ff61       0xa6 /home/programs/XC32/v2.30/bin/bin/../../lib/gcc/pic32mx/4.8.3/../../../../pic32mx/lib/fpu64/libpic32.a(default-cache-err-exception-handler.o)
 .debug_line    0x00030007       0xae /home/programs/XC32/v2.30/bin/bin/../../lib/gcc/pic32mx/4.8.3/../../../../pic32mx/lib/fpu64/libpic32.a(default-simple-tlb-refill-exception-handler.o)
 .debug_line    0x000300b5        0x0 /home/programs/XC32/v2.30/bin/bin/../../lib/gcc/pic32mx/4.8.3/../../../../pic32mx/lib/fpu64/libc.a(_iob.o)
 .debug_line    0x000300b5       0x7e /home/programs/XC32/v2.30/bin/bin/../../lib/gcc/pic32mx/4.8.3/../../../../pic32mx/lib/fpu64/libc.a(fwrite.o)
 .debug_line    0x00030133       0x7c /home/programs/XC32/v2.30/bin/bin/../../lib/gcc/pic32mx/4.8.3/../../../../pic32mx/lib/fpu64/libc.a(atoi.o)
 .debug_line    0x000301af        0x0 /home/programs/XC32/v2.30/bin/bin/../../lib/gcc/pic32mx/4.8.3/../../../../pic32mx/lib/fpu64/libc.a(ctype.o)
 .debug_line    0x000301af       0x7e /home/programs/XC32/v2.30/bin/bin/../../lib/gcc/pic32mx/4.8.3/../../../../pic32mx/lib/fpu64/libc.a(ctypef.o)
 .debug_line    0x0003022d       0x7e /home/programs/XC32/v2.30/bin/bin/../../lib/gcc/pic32mx/4.8.3/../../../../pic32mx/lib/fpu64/libc.a(malloc.o)
 .debug_line    0x000302ab       0x7f /home/programs/XC32/v2.30/bin/bin/../../lib/gcc/pic32mx/4.8.3/../../../../pic32mx/lib/fpu64/libc.a(memmove.o)
 .debug_line    0x0003032a       0x7c /home/programs/XC32/v2.30/bin/bin/../../lib/gcc/pic32mx/4.8.3/../../../../pic32mx/lib/fpu64/libc.a(puts.o)
 .debug_line    0x000303a6       0x7e /home/programs/XC32/v2.30/bin/bin/../../lib/gcc/pic32mx/4.8.3/../../../../pic32mx/lib/fpu64/libc.a(strchr.o)
 .debug_line    0x00030424       0x82 /home/programs/XC32/v2.30/bin/bin/../../lib/gcc/pic32mx/4.8.3/../../../../pic32mx/lib/fpu64/libc.a(strcasecmp.o)
 .debug_line    0x000304a6       0x83 /home/programs/XC32/v2.30/bin/bin/../../lib/gcc/pic32mx/4.8.3/../../../../pic32mx/lib/fpu64/libc.a(strncasecmp.o)
 .debug_line    0x00030529       0x7f /home/programs/XC32/v2.30/bin/bin/../../lib/gcc/pic32mx/4.8.3/../../../../pic32mx/lib/fpu64/libc.a(strncat.o)
 .debug_line    0x000305a8       0x7f /home/programs/XC32/v2.30/bin/bin/../../lib/gcc/pic32mx/4.8.3/../../../../pic32mx/lib/fpu64/libc.a(strncmp.o)
 .debug_line    0x00030627       0x7f /home/programs/XC32/v2.30/bin/bin/../../lib/gcc/pic32mx/4.8.3/../../../../pic32mx/lib/fpu64/libc.a(strncpy.o)
 .debug_line    0x000306a6       0x7f /home/programs/XC32/v2.30/bin/bin/../../lib/gcc/pic32mx/4.8.3/../../../../pic32mx/lib/fpu64/libc.a(strrchr.o)
 .debug_line    0x00030725       0x7e /home/programs/XC32/v2.30/bin/bin/../../lib/gcc/pic32mx/4.8.3/../../../../pic32mx/lib/fpu64/libc.a(strtok.o)
 .debug_line    0x000307a3       0x7e /home/programs/XC32/v2.30/bin/bin/../../lib/gcc/pic32mx/4.8.3/../../../../pic32mx/lib/fpu64/libc.a(strtol.o)
 .debug_line    0x00030821       0x7f /home/programs/XC32/v2.30/bin/bin/../../lib/gcc/pic32mx/4.8.3/../../../../pic32mx/lib/fpu64/libc.a(fprintf_cdnopsuxX.eo)
 .debug_line    0x000308a0       0x7e /home/programs/XC32/v2.30/bin/bin/../../lib/gcc/pic32mx/4.8.3/../../../../pic32mx/lib/fpu64/libc.a(fflush.o)
 .debug_line    0x0003091e       0x7d /home/programs/XC32/v2.30/bin/bin/../../lib/gcc/pic32mx/4.8.3/../../../../pic32mx/lib/fpu64/libc.a(fseek.o)
 .debug_line    0x0003099b        0x0 /home/programs/XC32/v2.30/bin/bin/../../lib/gcc/pic32mx/4.8.3/../../../../pic32mx/lib/fpu64/libc.a(errno.o)
 .debug_line    0x0003099b       0x7f /home/programs/XC32/v2.30/bin/bin/../../lib/gcc/pic32mx/4.8.3/../../../../pic32mx/lib/fpu64/libc.a(strcspn.o)
 .debug_line    0x00030a1a       0x7e /home/programs/XC32/v2.30/bin/bin/../../lib/gcc/pic32mx/4.8.3/../../../../pic32mx/lib/fpu64/libc.a(strspn.o)
 .debug_line    0x00030a98       0x7e /home/programs/XC32/v2.30/bin/bin/../../lib/gcc/pic32mx/4.8.3/../../../../pic32mx/lib/fpu64/libc.a(doprnt_cdnopsuxX.eo)
 .debug_line    0x00030b16       0xf7 /home/programs/XC32/v2.30/bin/bin/../../lib/gcc/pic32mx/4.8.3/fpu64/libgcc.a(_udivdi3.o)
 .debug_line    0x00030c0d      0x109 /home/programs/XC32/v2.30/bin/bin/../../lib/gcc/pic32mx/4.8.3/fpu64/libgcc.a(_umoddi3.o)
 .debug_line    0x00030d16       0x87 /home/programs/XC32/v2.30/bin/bin/../../lib/gcc/pic32mx/4.8.3/../../../../pic32mx/lib/fpu64/libpic32.a(sbrk.o)
 .debug_line    0x00030d9d       0x88 /home/programs/XC32/v2.30/bin/bin/../../lib/gcc/pic32mx/4.8.3/../../../../pic32mx/lib/fpu64/libpic32.a(write.o)
 .debug_line    0x00030e25       0x88 /home/programs/XC32/v2.30/bin/bin/../../lib/gcc/pic32mx/4.8.3/../../../../pic32mx/lib/fpu64/libpic32.a(lseek.o)
 .debug_line    0x00030ead       0x8c /home/programs/XC32/v2.30/bin/bin/../../lib/gcc/pic32mx/4.8.3/../../../../pic32mx/lib/fpu64/libpic32.a(_mon_putc.o)
 .debug_line    0x00030f39        0x0 /home/programs/XC32/v2.30/bin/bin/../../lib/gcc/pic32mx/4.8.3/../../../../pic32mx/lib/fpu64/libpic32.a(xc32_uart.o)

.debug_frame    0x00000000     0xdba8
 *.elf(.debug_frame)
 *(.debug_frame)
 .debug_frame   0x00000000       0x90 build/default/production/_ext/360186330/cpu_endian.o
 .debug_frame   0x00000090      0x2c0 build/default/production/_ext/360186330/os_port_freertos.o
 .debug_frame   0x00000350       0xcc build/default/production/_ext/360186330/date_time.o
 .debug_frame   0x0000041c       0x80 build/default/production/_ext/360186330/str.o
 .debug_frame   0x0000049c      0x108 build/default/production/_ext/360186330/path.o
 .debug_frame   0x000005a4       0x78 build/default/production/_ext/360186330/resource_manager.o
 .debug_frame   0x0000061c       0xc8 build/default/production/_ext/120521611/md5.o
 .debug_frame   0x000006e4       0xe4 build/default/production/_ext/120521611/sha1.o
 .debug_frame   0x000007c8       0x80 build/default/production/_ext/120521611/sha224.o
 .debug_frame   0x00000848       0xe4 build/default/production/_ext/120521611/sha256.o
 .debug_frame   0x0000092c       0xa4 build/default/production/_ext/120521611/sha384.o
 .debug_frame   0x000009d0       0xc0 build/default/production/_ext/120521611/sha512.o
 .debug_frame   0x00000a90       0xc0 build/default/production/_ext/273211656/hmac.o
 .debug_frame   0x00000b50       0x30 build/default/production/_ext/7005106/rc4.o
 .debug_frame   0x00000b80       0x90 build/default/production/_ext/7005106/idea.o
 .debug_frame   0x00000c10       0xa0 build/default/production/_ext/7005106/des.o
 .debug_frame   0x00000cb0       0x70 build/default/production/_ext/7005106/des3.o
 .debug_frame   0x00000d20       0x68 build/default/production/_ext/7005106/aes.o
 .debug_frame   0x00000d88       0x78 build/default/production/_ext/7005106/camellia.o
 .debug_frame   0x00000e00       0x40 build/default/production/_ext/7005106/seed.o
 .debug_frame   0x00000e40       0xc0 build/default/production/_ext/7005106/aria.o
 .debug_frame   0x00000f00       0x60 build/default/production/_ext/1125617168/cbc.o
 .debug_frame   0x00000f60       0x90 build/default/production/_ext/120726866/ccm.o
 .debug_frame   0x00000ff0       0xd0 build/default/production/_ext/120726866/gcm.o
 .debug_frame   0x000010c0       0x6c build/default/production/_ext/7005106/chacha.o
 .debug_frame   0x0000112c       0x84 build/default/production/_ext/273211656/poly1305.o
 .debug_frame   0x000011b0       0x50 build/default/production/_ext/120726866/chacha20_poly1305.o
 .debug_frame   0x00001200       0xb0 build/default/production/_ext/273214849/dh.o
 .debug_frame   0x000012b0      0x3bc build/default/production/_ext/273214849/rsa.o
 .debug_frame   0x0000166c      0x158 build/default/production/_ext/273214849/dsa.o
 .debug_frame   0x000017c4      0x2e8 build/default/production/_ext/273204030/ec.o
 .debug_frame   0x00001aac       0xc0 build/default/production/_ext/273204030/ec_curves.o
 .debug_frame   0x00001b6c       0xbc build/default/production/_ext/273204030/ecdh.o
 .debug_frame   0x00001c28      0x10c build/default/production/_ext/273204030/ecdsa.o
 .debug_frame   0x00001d34      0x1c8 build/default/production/_ext/273204030/curve25519.o
 .debug_frame   0x00001efc       0x40 build/default/production/_ext/273204030/x25519.o
 .debug_frame   0x00001f3c      0x4e8 build/default/production/_ext/273212127/mpi.o
 .debug_frame   0x00002424       0x30 build/default/production/_ext/1404394810/base64.o
 .debug_frame   0x00002454      0x170 build/default/production/_ext/1404394810/asn1.o
 .debug_frame   0x000025c4       0xcc build/default/production/_ext/1404394810/oid.o
 .debug_frame   0x00002690      0x260 build/default/production/_ext/120273967/pem_import.o
 .debug_frame   0x000028f0      0x158 build/default/production/_ext/120273967/pkcs8_key_parse.o
 .debug_frame   0x00002a48      0x214 build/default/production/_ext/120273967/x509_key_parse.o
 .debug_frame   0x00002c5c      0x3b0 build/default/production/_ext/120273967/x509_cert_parse.o
 .debug_frame   0x0000300c      0x118 build/default/production/_ext/120273967/x509_cert_validate.o
 .debug_frame   0x00003124      0x1d4 build/default/production/_ext/120273967/x509_crl_parse.o
 .debug_frame   0x000032f8       0x60 build/default/production/_ext/120273967/x509_crl_validate.o
 .debug_frame   0x00003358       0x94 build/default/production/_ext/120273967/x509_common.o
 .debug_frame   0x000033ec       0x78 build/default/production/_ext/273209830/hkdf.o
 .debug_frame   0x00003464      0x114 build/default/production/_ext/273216868/yarrow.o
 .debug_frame   0x00003578      0x498 build/default/production/_ext/476983781/tls.o
 .debug_frame   0x00003a10       0x50 build/default/production/_ext/476983781/tls_cipher_suites.o
 .debug_frame   0x00003a60       0xac build/default/production/_ext/476983781/tls_handshake.o
 .debug_frame   0x00003b0c      0x140 build/default/production/_ext/476983781/tls_client.o
 .debug_frame   0x00003c4c       0x60 build/default/production/_ext/476983781/tls_client_fsm.o
 .debug_frame   0x00003cac      0x1d8 build/default/production/_ext/476983781/tls_client_extensions.o
 .debug_frame   0x00003e84      0x1b4 build/default/production/_ext/476983781/tls_client_misc.o
 .debug_frame   0x00004038      0x220 build/default/production/_ext/476983781/tls_common.o
 .debug_frame   0x00004258       0x84 build/default/production/_ext/476983781/tls_extensions.o
 .debug_frame   0x000042dc      0x148 build/default/production/_ext/476983781/tls_certificate.o
 .debug_frame   0x00004424      0x1b4 build/default/production/_ext/476983781/tls_signature.o
 .debug_frame   0x000045d8      0x134 build/default/production/_ext/476983781/tls_key_material.o
 .debug_frame   0x0000470c       0xbc build/default/production/_ext/476983781/tls_transcript_hash.o
 .debug_frame   0x000047c8       0xd0 build/default/production/_ext/476983781/tls_cache.o
 .debug_frame   0x00004898      0x18c build/default/production/_ext/476983781/tls_record.o
 .debug_frame   0x00004a24       0xd8 build/default/production/_ext/476983781/tls_record_encryption.o
 .debug_frame   0x00004afc      0x128 build/default/production/_ext/476983781/tls_record_decryption.o
 .debug_frame   0x00004c24      0x1d0 build/default/production/_ext/476983781/tls_misc.o
 .debug_frame   0x00004df4       0xa0 build/default/production/_ext/476983781/tls13_client.o
 .debug_frame   0x00004e94      0x15c build/default/production/_ext/476983781/tls13_client_extensions.o
 .debug_frame   0x00004ff0       0x6c build/default/production/_ext/476983781/tls13_client_misc.o
 .debug_frame   0x0000505c       0x68 build/default/production/_ext/476983781/tls13_common.o
 .debug_frame   0x000050c4       0xf8 build/default/production/_ext/476983781/tls13_key_material.o
 .debug_frame   0x000051bc      0x1d0 build/default/production/_ext/476983781/tls13_misc.o
 .debug_frame   0x0000538c      0x3f8 build/default/production/_ext/1079766828/net.o
 .debug_frame   0x00005784      0x18c build/default/production/_ext/1079766828/net_mem.o
 .debug_frame   0x00005910      0x18c build/default/production/_ext/37329846/pic32mz_eth_driver.o
 .debug_frame   0x00005a9c       0xe8 build/default/production/_ext/37332968/lan8720_driver.o
 .debug_frame   0x00005b84      0x14c build/default/production/_ext/1157531022/wilc1000_driver.o
 .debug_frame   0x00005cd0      0x110 build/default/production/_ext/1079766828/nic.o
 .debug_frame   0x00005de0      0x16c build/default/production/_ext/1079766828/ethernet.o
 .debug_frame   0x00005f4c      0x108 build/default/production/_ext/1079766828/ethernet_misc.o
 .debug_frame   0x00006054      0x230 build/default/production/_ext/1079587046/arp.o
 .debug_frame   0x00006284      0x314 build/default/production/_ext/1079587046/ipv4.o
 .debug_frame   0x00006598      0x10c build/default/production/_ext/1079587046/ipv4_frag.o
 .debug_frame   0x000066a4      0x138 build/default/production/_ext/1079587046/ipv4_misc.o
 .debug_frame   0x000067dc       0xe4 build/default/production/_ext/1079587046/icmp.o
 .debug_frame   0x000068c0      0x42c build/default/production/_ext/1079587044/ipv6.o
 .debug_frame   0x00006cec      0x114 build/default/production/_ext/1079587044/ipv6_frag.o
 .debug_frame   0x00006e00      0x364 build/default/production/_ext/1079587044/ipv6_misc.o
 .debug_frame   0x00007164       0x48 build/default/production/_ext/1079587044/ipv6_pmtu.o
 .debug_frame   0x000071ac      0x14c build/default/production/_ext/1079587044/icmpv6.o
 .debug_frame   0x000072f8      0x174 build/default/production/_ext/1079587044/mld.o
 .debug_frame   0x0000746c      0x250 build/default/production/_ext/1079587044/ndp.o
 .debug_frame   0x000076bc      0x158 build/default/production/_ext/1079587044/ndp_cache.o
 .debug_frame   0x00007814      0x188 build/default/production/_ext/1079587044/ndp_misc.o
 .debug_frame   0x0000799c      0x120 build/default/production/_ext/1079587044/ndp_router_adv.o
 .debug_frame   0x00007abc      0x148 build/default/production/_ext/1079587044/slaac.o
 .debug_frame   0x00007c04      0x1ac build/default/production/_ext/1079766828/ip.o
 .debug_frame   0x00007db0      0x17c build/default/production/_ext/1079766828/tcp.o
 .debug_frame   0x00007f2c      0x1c4 build/default/production/_ext/1079766828/tcp_fsm.o
 .debug_frame   0x000080f0      0x40c build/default/production/_ext/1079766828/tcp_misc.o
 .debug_frame   0x000084fc       0xac build/default/production/_ext/1079766828/tcp_timer.o
 .debug_frame   0x000085a8      0x1b0 build/default/production/_ext/1079766828/udp.o
 .debug_frame   0x00008758      0x300 build/default/production/_ext/1079766828/socket.o
 .debug_frame   0x00008a58      0x434 build/default/production/_ext/1079766828/bsd_socket.o
 .debug_frame   0x00008e8c       0xe0 build/default/production/_ext/242264404/dns_cache.o
 .debug_frame   0x00008f6c       0x94 build/default/production/_ext/242264404/dns_client.o
 .debug_frame   0x00009000       0xa8 build/default/production/_ext/242264404/dns_common.o
 .debug_frame   0x000090a8       0x90 build/default/production/_ext/1435316685/nbns_client.o
 .debug_frame   0x00009138       0x60 build/default/production/_ext/1435316685/nbns_responder.o
 .debug_frame   0x00009198       0xbc build/default/production/_ext/1435316685/nbns_common.o
 .debug_frame   0x00009254       0x84 build/default/production/_ext/895184604/llmnr_responder.o
 .debug_frame   0x000092d8      0x3ac build/default/production/_ext/1079744218/dhcp_client.o
 .debug_frame   0x00009684      0x258 build/default/production/_ext/1079744218/dhcp_server.o
 .debug_frame   0x000098dc       0x40 build/default/production/_ext/1079744218/dhcp_common.o
 .debug_frame   0x0000991c      0x1d4 build/default/production/_ext/1079612995/http_server.o
 .debug_frame   0x00009af0       0x78 build/default/production/_ext/1079612995/http_server_auth.o
 .debug_frame   0x00009b68      0x218 build/default/production/_ext/1079612995/http_server_misc.o
 .debug_frame   0x00009d80       0x38 build/default/production/_ext/1079612995/mime.o
 .debug_frame   0x00009db8       0xdc build/default/production/_ext/1079612995/ssi.o
 .debug_frame   0x00009e94      0x2cc build/default/production/_ext/1079466919/mqtt_client.o
 .debug_frame   0x0000a160      0x114 build/default/production/_ext/1079466919/mqtt_client_misc.o
 .debug_frame   0x0000a274      0x2b0 build/default/production/_ext/1079466919/mqtt_client_packet.o
 .debug_frame   0x0000a524       0xf4 build/default/production/_ext/1079466919/mqtt_client_transport.o
 .debug_frame   0x0000a618      0x304 build/default/production/_ext/18976819/web_socket.o
 .debug_frame   0x0000a91c       0x40 build/default/production/_ext/18976819/web_socket_auth.o
 .debug_frame   0x0000a95c       0x70 build/default/production/_ext/18976819/web_socket_frame.o
 .debug_frame   0x0000a9cc      0x284 build/default/production/_ext/18976819/web_socket_misc.o
 .debug_frame   0x0000ac50       0xbc build/default/production/_ext/18976819/web_socket_transport.o
 .debug_frame   0x0000ad0c      0x220 build/default/production/_ext/1360937237/main.o
 .debug_frame   0x0000af2c       0x5c build/default/production/_ext/1360937237/debug.o
 .debug_frame   0x0000af88       0xfc build/default/production/_ext/1360937237/sprintf.o
 .debug_frame   0x0000b084       0x20 build/default/production/_ext/1360937237/strtok_r.o
 .debug_frame   0x0000b0a4       0x70 build/default/production/_ext/1360937237/wilc1000_callbacks.o
 .debug_frame   0x0000b114       0xec build/default/production/_ext/23001898/port.o
 .debug_frame   0x0000b200       0x60 build/default/production/_ext/986256546/list.o
 .debug_frame   0x0000b260      0x324 build/default/production/_ext/986256546/queue.o
 .debug_frame   0x0000b584      0x53c build/default/production/_ext/986256546/tasks.o
 .debug_frame   0x0000bac0      0x1a4 build/default/production/_ext/986256546/timers.o
 .debug_frame   0x0000bc64       0x48 build/default/production/_ext/979089083/heap_3.o
 .debug_frame   0x0000bcac       0xa0 build/default/production/_ext/457051042/nm_bsp_pic32mz.o
 .debug_frame   0x0000bd4c       0x5c build/default/production/_ext/1700104339/nm_bus_wrapper_pic32mz.o
 .debug_frame   0x0000bda8       0x94 build/default/production/_ext/1185106856/nm_common.o
 .debug_frame   0x0000be3c      0x1d0 build/default/production/_ext/1679150795/m2m_hif.o
 .debug_frame   0x0000c00c       0xec build/default/production/_ext/1679150795/m2m_periph.o
 .debug_frame   0x0000c0f8      0x5b8 build/default/production/_ext/1679150795/m2m_wifi.o
 .debug_frame   0x0000c6b0      0x2a8 build/default/production/_ext/1679150795/nmasic.o
 .debug_frame   0x0000c958      0x118 build/default/production/_ext/1679150795/nmbus.o
 .debug_frame   0x0000ca70       0x5c build/default/production/_ext/1679150795/nmdrv.o
 .debug_frame   0x0000cacc      0x21c build/default/production/_ext/1679150795/nmspi.o
 .debug_frame   0x0000cce8       0x34 build/default/production/_ext/1679150795/spi_flash.o
 .debug_frame   0x0000cd1c      0x138 build/default/production/_ext/1022178492/PMK.o
 .debug_frame   0x0000ce54      0x52c build/default/production/_ext/1640134129/m2m_wifi_ex.o
 .debug_frame   0x0000d380       0x2c /home/programs/XC32/v2.30/bin/bin/../../lib/gcc/pic32mx/4.8.3/../../../../pic32mx/lib/fpu64/libpic32.a(default-bootstrap-exception-handler.o)
 .debug_frame   0x0000d3ac       0x20 /home/programs/XC32/v2.30/bin/bin/../../lib/gcc/pic32mx/4.8.3/../../../../pic32mx/lib/fpu64/libpic32.a(default-on-reset.o)
 .debug_frame   0x0000d3cc       0x20 /home/programs/XC32/v2.30/bin/bin/../../lib/gcc/pic32mx/4.8.3/../../../../pic32mx/lib/fpu64/libpic32.a(default-on-bootstrap.o)
 .debug_frame   0x0000d3ec       0x20 /home/programs/XC32/v2.30/bin/bin/../../lib/gcc/pic32mx/4.8.3/../../../../pic32mx/lib/fpu64/libpic32.a(defaultinterrupt.o)
 .debug_frame   0x0000d40c       0x2c /home/programs/XC32/v2.30/bin/bin/../../lib/gcc/pic32mx/4.8.3/../../../../pic32mx/lib/fpu64/libpic32.a(default-general-exception-handler.o)
 .debug_frame   0x0000d438       0x2c /home/programs/XC32/v2.30/bin/bin/../../lib/gcc/pic32mx/4.8.3/../../../../pic32mx/lib/fpu64/libpic32.a(default-cache-err-exception-handler.o)
 .debug_frame   0x0000d464       0x2c /home/programs/XC32/v2.30/bin/bin/../../lib/gcc/pic32mx/4.8.3/../../../../pic32mx/lib/fpu64/libpic32.a(default-simple-tlb-refill-exception-handler.o)
 .debug_frame   0x0000d490       0x48 /home/programs/XC32/v2.30/bin/bin/../../lib/gcc/pic32mx/4.8.3/../../../../pic32mx/lib/fpu64/libc.a(fwrite.o)
 .debug_frame   0x0000d4d8       0x20 /home/programs/XC32/v2.30/bin/bin/../../lib/gcc/pic32mx/4.8.3/../../../../pic32mx/lib/fpu64/libc.a(atoi.o)
 .debug_frame   0x0000d4f8      0x120 /home/programs/XC32/v2.30/bin/bin/../../lib/gcc/pic32mx/4.8.3/../../../../pic32mx/lib/fpu64/libc.a(ctypef.o)
 .debug_frame   0x0000d618       0x7c /home/programs/XC32/v2.30/bin/bin/../../lib/gcc/pic32mx/4.8.3/../../../../pic32mx/lib/fpu64/libc.a(malloc.o)
 .debug_frame   0x0000d694       0x20 /home/programs/XC32/v2.30/bin/bin/../../lib/gcc/pic32mx/4.8.3/../../../../pic32mx/lib/fpu64/libc.a(memmove.o)
 .debug_frame   0x0000d6b4       0x50 /home/programs/XC32/v2.30/bin/bin/../../lib/gcc/pic32mx/4.8.3/../../../../pic32mx/lib/fpu64/libc.a(puts.o)
 .debug_frame   0x0000d704       0x20 /home/programs/XC32/v2.30/bin/bin/../../lib/gcc/pic32mx/4.8.3/../../../../pic32mx/lib/fpu64/libc.a(strchr.o)
 .debug_frame   0x0000d724       0x30 /home/programs/XC32/v2.30/bin/bin/../../lib/gcc/pic32mx/4.8.3/../../../../pic32mx/lib/fpu64/libc.a(strcasecmp.o)
 .debug_frame   0x0000d754       0x34 /home/programs/XC32/v2.30/bin/bin/../../lib/gcc/pic32mx/4.8.3/../../../../pic32mx/lib/fpu64/libc.a(strncasecmp.o)
 .debug_frame   0x0000d788       0x20 /home/programs/XC32/v2.30/bin/bin/../../lib/gcc/pic32mx/4.8.3/../../../../pic32mx/lib/fpu64/libc.a(strncat.o)
 .debug_frame   0x0000d7a8       0x20 /home/programs/XC32/v2.30/bin/bin/../../lib/gcc/pic32mx/4.8.3/../../../../pic32mx/lib/fpu64/libc.a(strncmp.o)
 .debug_frame   0x0000d7c8       0x20 /home/programs/XC32/v2.30/bin/bin/../../lib/gcc/pic32mx/4.8.3/../../../../pic32mx/lib/fpu64/libc.a(strncpy.o)
 .debug_frame   0x0000d7e8       0x34 /home/programs/XC32/v2.30/bin/bin/../../lib/gcc/pic32mx/4.8.3/../../../../pic32mx/lib/fpu64/libc.a(strrchr.o)
 .debug_frame   0x0000d81c       0x3c /home/programs/XC32/v2.30/bin/bin/../../lib/gcc/pic32mx/4.8.3/../../../../pic32mx/lib/fpu64/libc.a(strtok.o)
 .debug_frame   0x0000d858       0x78 /home/programs/XC32/v2.30/bin/bin/../../lib/gcc/pic32mx/4.8.3/../../../../pic32mx/lib/fpu64/libc.a(strtol.o)
 .debug_frame   0x0000d8d0       0x2c /home/programs/XC32/v2.30/bin/bin/../../lib/gcc/pic32mx/4.8.3/../../../../pic32mx/lib/fpu64/libc.a(fprintf_cdnopsuxX.eo)
 .debug_frame   0x0000d8fc       0x34 /home/programs/XC32/v2.30/bin/bin/../../lib/gcc/pic32mx/4.8.3/../../../../pic32mx/lib/fpu64/libc.a(fflush.o)
 .debug_frame   0x0000d930       0x60 /home/programs/XC32/v2.30/bin/bin/../../lib/gcc/pic32mx/4.8.3/../../../../pic32mx/lib/fpu64/libc.a(fseek.o)
 .debug_frame   0x0000d990       0x34 /home/programs/XC32/v2.30/bin/bin/../../lib/gcc/pic32mx/4.8.3/../../../../pic32mx/lib/fpu64/libc.a(strcspn.o)
 .debug_frame   0x0000d9c4       0x34 /home/programs/XC32/v2.30/bin/bin/../../lib/gcc/pic32mx/4.8.3/../../../../pic32mx/lib/fpu64/libc.a(strspn.o)
 .debug_frame   0x0000d9f8       0x40 /home/programs/XC32/v2.30/bin/bin/../../lib/gcc/pic32mx/4.8.3/../../../../pic32mx/lib/fpu64/libc.a(doprnt_cdnopsuxX.eo)
 .debug_frame   0x0000da38       0x20 /home/programs/XC32/v2.30/bin/bin/../../lib/gcc/pic32mx/4.8.3/fpu64/libgcc.a(_udivdi3.o)
 .debug_frame   0x0000da58       0x20 /home/programs/XC32/v2.30/bin/bin/../../lib/gcc/pic32mx/4.8.3/fpu64/libgcc.a(_umoddi3.o)
 .debug_frame   0x0000da78       0xa4 /home/programs/XC32/v2.30/bin/bin/../../lib/gcc/pic32mx/4.8.3/../../../../pic32mx/lib/fpu64/libpic32.a(sbrk.o)
 .debug_frame   0x0000db1c       0x38 /home/programs/XC32/v2.30/bin/bin/../../lib/gcc/pic32mx/4.8.3/../../../../pic32mx/lib/fpu64/libpic32.a(write.o)
 .debug_frame   0x0000db54       0x20 /home/programs/XC32/v2.30/bin/bin/../../lib/gcc/pic32mx/4.8.3/../../../../pic32mx/lib/fpu64/libpic32.a(lseek.o)
 .debug_frame   0x0000db74       0x34 /home/programs/XC32/v2.30/bin/bin/../../lib/gcc/pic32mx/4.8.3/../../../../pic32mx/lib/fpu64/libpic32.a(_mon_putc.o)

.debug_str      0x00000000     0xd4c0
 *.elf(.debug_str)
 *(.debug_str)
 .debug_str     0x00000000        0x6 build/default/production/_ext/360186330/cpu_endian.o
 .debug_str     0x00000006       0x1d build/default/production/_ext/360186330/os_port_freertos.o
 .debug_str     0x00000023        0xd build/default/production/_ext/360186330/date_time.o
 .debug_str     0x00000030        0x0 build/default/production/_ext/360186330/str.o
 .debug_str     0x00000030        0x5 build/default/production/_ext/360186330/path.o
 .debug_str     0x00000035       0x33 build/default/production/_ext/360186330/resource_manager.o
 .debug_str     0x00000068       0x19 build/default/production/_ext/120521611/md5.o
 .debug_str     0x00000081       0x19 build/default/production/_ext/120521611/sha1.o
 .debug_str     0x0000009a        0xf build/default/production/_ext/120521611/sha224.o
 .debug_str     0x000000a9       0x19 build/default/production/_ext/120521611/sha256.o
 .debug_str     0x000000c2        0xf build/default/production/_ext/120521611/sha384.o
 .debug_str     0x000000d1       0x19 build/default/production/_ext/120521611/sha512.o
 .debug_str     0x000000ea       0x14 build/default/production/_ext/273211656/hmac.o
 .debug_str     0x000000fe        0x0 build/default/production/_ext/7005106/rc4.o
 .debug_str     0x000000fe        0x8 build/default/production/_ext/7005106/idea.o
 .debug_str     0x00000106        0x8 build/default/production/_ext/7005106/des.o
 .debug_str     0x0000010e        0x8 build/default/production/_ext/7005106/des3.o
 .debug_str     0x00000116        0x8 build/default/production/_ext/7005106/aes.o
 .debug_str     0x0000011e        0x8 build/default/production/_ext/7005106/camellia.o
 .debug_str     0x00000126        0x8 build/default/production/_ext/7005106/seed.o
 .debug_str     0x0000012e        0x8 build/default/production/_ext/7005106/aria.o
 .debug_str     0x00000136        0x0 build/default/production/_ext/1125617168/cbc.o
 .debug_str     0x00000136        0x0 build/default/production/_ext/120726866/ccm.o
 .debug_str     0x00000136       0x21 build/default/production/_ext/120726866/gcm.o
 .debug_str     0x00000157        0x8 build/default/production/_ext/7005106/chacha.o
 .debug_str     0x0000015f        0x8 build/default/production/_ext/273211656/poly1305.o
 .debug_str     0x00000167       0x29 build/default/production/_ext/120726866/chacha20_poly1305.o
 .debug_str     0x00000190        0x8 build/default/production/_ext/273214849/dh.o
 .debug_str     0x00000198       0xc1 build/default/production/_ext/273214849/rsa.o
 .debug_str     0x00000259       0x21 build/default/production/_ext/273214849/dsa.o
 .debug_str     0x0000027a        0xd build/default/production/_ext/273204030/ec.o
 .debug_str     0x00000287        0x6 build/default/production/_ext/273204030/ec_curves.o
 .debug_str     0x0000028d        0x8 build/default/production/_ext/273204030/ecdh.o
 .debug_str     0x00000295       0x52 build/default/production/_ext/273204030/ecdsa.o
 .debug_str     0x000002e7        0x0 build/default/production/_ext/273204030/eddsa.o
 .debug_str     0x000002e7        0x5 build/default/production/_ext/273204030/curve25519.o
 .debug_str     0x000002ec        0x0 build/default/production/_ext/273204030/curve448.o
 .debug_str     0x000002ec        0x0 build/default/production/_ext/273204030/x25519.o
 .debug_str     0x000002ec        0x0 build/default/production/_ext/273204030/x448.o
 .debug_str     0x000002ec        0x0 build/default/production/_ext/273204030/ed25519.o
 .debug_str     0x000002ec        0x0 build/default/production/_ext/273204030/ed448.o
 .debug_str     0x000002ec       0x13 build/default/production/_ext/273212127/mpi.o
 .debug_str     0x000002ff       0x13 build/default/production/_ext/1404394810/base64.o
 .debug_str     0x00000312       0x3d build/default/production/_ext/1404394810/asn1.o
 .debug_str     0x0000034f       0x17 build/default/production/_ext/1404394810/oid.o
 .debug_str     0x00000366       0x8a build/default/production/_ext/120273967/pem_import.o
 .debug_str     0x000003f0       0x83 build/default/production/_ext/120273967/pkcs8_key_parse.o
 .debug_str     0x00000473       0x8d build/default/production/_ext/120273967/x509_key_parse.o
 .debug_str     0x00000500      0x120 build/default/production/_ext/120273967/x509_cert_parse.o
 .debug_str     0x00000620       0x92 build/default/production/_ext/120273967/x509_cert_validate.o
 .debug_str     0x000006b2       0xe0 build/default/production/_ext/120273967/x509_crl_parse.o
 .debug_str     0x00000792       0x93 build/default/production/_ext/120273967/x509_crl_validate.o
 .debug_str     0x00000825       0x1d build/default/production/_ext/120273967/x509_common.o
 .debug_str     0x00000842        0xc build/default/production/_ext/273209830/hkdf.o
 .debug_str     0x0000084e        0xf build/default/production/_ext/273216868/yarrow.o
 .debug_str     0x0000085d      0x2e8 build/default/production/_ext/476983781/tls.o
 .debug_str     0x00000b45       0x21 build/default/production/_ext/476983781/tls_cipher_suites.o
 .debug_str     0x00000b66      0x1cb build/default/production/_ext/476983781/tls_handshake.o
 .debug_str     0x00000d31      0x239 build/default/production/_ext/476983781/tls_client.o
 .debug_str     0x00000f6a      0x1d8 build/default/production/_ext/476983781/tls_client_fsm.o
 .debug_str     0x00001142      0x286 build/default/production/_ext/476983781/tls_client_extensions.o
 .debug_str     0x000013c8      0x293 build/default/production/_ext/476983781/tls_client_misc.o
 .debug_str     0x0000165b        0x0 build/default/production/_ext/476983781/tls_server.o
 .debug_str     0x0000165b        0x0 build/default/production/_ext/476983781/tls_server_fsm.o
 .debug_str     0x0000165b        0x0 build/default/production/_ext/476983781/tls_server_extensions.o
 .debug_str     0x0000165b        0x0 build/default/production/_ext/476983781/tls_server_misc.o
 .debug_str     0x0000165b      0x220 build/default/production/_ext/476983781/tls_common.o
 .debug_str     0x0000187b      0x2a6 build/default/production/_ext/476983781/tls_extensions.o
 .debug_str     0x00001b21      0x27c build/default/production/_ext/476983781/tls_certificate.o
 .debug_str     0x00001d9d      0x218 build/default/production/_ext/476983781/tls_signature.o
 .debug_str     0x00001fb5      0x20a build/default/production/_ext/476983781/tls_key_material.o
 .debug_str     0x000021bf      0x1d5 build/default/production/_ext/476983781/tls_transcript_hash.o
 .debug_str     0x00002394      0x1c1 build/default/production/_ext/476983781/tls_cache.o
 .debug_str     0x00002555        0x0 build/default/production/_ext/476983781/tls_ticket.o
 .debug_str     0x00002555        0x0 build/default/production/_ext/476983781/tls_ffdhe.o
 .debug_str     0x00002555      0x200 build/default/production/_ext/476983781/tls_record.o
 .debug_str     0x00002755      0x1de build/default/production/_ext/476983781/tls_record_encryption.o
 .debug_str     0x00002933      0x1fc build/default/production/_ext/476983781/tls_record_decryption.o
 .debug_str     0x00002b2f      0x1f5 build/default/production/_ext/476983781/tls_misc.o
 .debug_str     0x00002d24      0x20d build/default/production/_ext/476983781/tls13_client.o
 .debug_str     0x00002f31      0x208 build/default/production/_ext/476983781/tls13_client_extensions.o
 .debug_str     0x00003139      0x1b9 build/default/production/_ext/476983781/tls13_client_misc.o
 .debug_str     0x000032f2        0x0 build/default/production/_ext/476983781/tls13_server.o
 .debug_str     0x000032f2        0x0 build/default/production/_ext/476983781/tls13_server_extensions.o
 .debug_str     0x000032f2        0x0 build/default/production/_ext/476983781/tls13_server_misc.o
 .debug_str     0x000032f2      0x1d4 build/default/production/_ext/476983781/tls13_common.o
 .debug_str     0x000034c6      0x1e1 build/default/production/_ext/476983781/tls13_key_material.o
 .debug_str     0x000036a7      0x244 build/default/production/_ext/476983781/tls13_misc.o
 .debug_str     0x000038eb        0x0 build/default/production/_ext/476983781/ssl_misc.o
 .debug_str     0x000038eb      0x26e build/default/production/_ext/1079766828/net.o
 .debug_str     0x00003b59       0x3a build/default/production/_ext/1079766828/net_mem.o
 .debug_str     0x00003b93      0x212 build/default/production/_ext/37329846/pic32mz_eth_driver.o
 .debug_str     0x00003da5      0x20d build/default/production/_ext/37332968/lan8720_driver.o
 .debug_str     0x00003fb2      0x20c build/default/production/_ext/1157531022/wilc1000_driver.o
 .debug_str     0x000041be      0x208 build/default/production/_ext/1079766828/nic.o
 .debug_str     0x000043c6      0x22c build/default/production/_ext/1079766828/ethernet.o
 .debug_str     0x000045f2      0x20e build/default/production/_ext/1079766828/ethernet_misc.o
 .debug_str     0x00004800      0x26d build/default/production/_ext/1079587046/arp.o
 .debug_str     0x00004a6d      0x273 build/default/production/_ext/1079587046/ipv4.o
 .debug_str     0x00004ce0      0x248 build/default/production/_ext/1079587046/ipv4_frag.o
 .debug_str     0x00004f28      0x215 build/default/production/_ext/1079587046/ipv4_misc.o
 .debug_str     0x0000513d      0x25e build/default/production/_ext/1079587046/icmp.o
 .debug_str     0x0000539b        0x0 build/default/production/_ext/1079587046/igmp.o
 .debug_str     0x0000539b      0x2d4 build/default/production/_ext/1079587044/ipv6.o
 .debug_str     0x0000566f      0x248 build/default/production/_ext/1079587044/ipv6_frag.o
 .debug_str     0x000058b7      0x255 build/default/production/_ext/1079587044/ipv6_misc.o
 .debug_str     0x00005b0c      0x204 build/default/production/_ext/1079587044/ipv6_pmtu.o
 .debug_str     0x00005d10      0x26e build/default/production/_ext/1079587044/icmpv6.o
 .debug_str     0x00005f7e      0x24e build/default/production/_ext/1079587044/mld.o
 .debug_str     0x000061cc      0x2de build/default/production/_ext/1079587044/ndp.o
 .debug_str     0x000064aa      0x216 build/default/production/_ext/1079587044/ndp_cache.o
 .debug_str     0x000066c0      0x245 build/default/production/_ext/1079587044/ndp_misc.o
 .debug_str     0x00006905      0x27b build/default/production/_ext/1079587044/ndp_router_adv.o
 .debug_str     0x00006b80      0x232 build/default/production/_ext/1079587044/slaac.o
 .debug_str     0x00006db2      0x259 build/default/production/_ext/1079766828/ip.o
 .debug_str     0x0000700b      0x256 build/default/production/_ext/1079766828/tcp.o
 .debug_str     0x00007261      0x258 build/default/production/_ext/1079766828/tcp_fsm.o
 .debug_str     0x000074b9      0x2b9 build/default/production/_ext/1079766828/tcp_misc.o
 .debug_str     0x00007772      0x231 build/default/production/_ext/1079766828/tcp_timer.o
 .debug_str     0x000079a3      0x28e build/default/production/_ext/1079766828/udp.o
 .debug_str     0x00007c31      0x2b7 build/default/production/_ext/1079766828/socket.o
 .debug_str     0x00007ee8      0x29f build/default/production/_ext/1079766828/bsd_socket.o
 .debug_str     0x00008187        0x0 build/default/production/_ext/1079766828/raw_socket.o
 .debug_str     0x00008187      0x20a build/default/production/_ext/242264404/dns_cache.o
 .debug_str     0x00008391      0x23e build/default/production/_ext/242264404/dns_client.o
 .debug_str     0x000085cf        0x7 build/default/production/_ext/242264404/dns_common.o
 .debug_str     0x000085d6        0x0 build/default/production/_ext/242264404/dns_debug.o
 .debug_str     0x000085d6        0x0 build/default/production/_ext/1079479599/mdns_client.o
 .debug_str     0x000085d6        0x0 build/default/production/_ext/1079479599/mdns_responder.o
 .debug_str     0x000085d6        0x0 build/default/production/_ext/1079479599/mdns_common.o
 .debug_str     0x000085d6      0x226 build/default/production/_ext/1435316685/nbns_client.o
 .debug_str     0x000087fc      0x231 build/default/production/_ext/1435316685/nbns_responder.o
 .debug_str     0x00008a2d      0x225 build/default/production/_ext/1435316685/nbns_common.o
 .debug_str     0x00008c52        0x0 build/default/production/_ext/895184604/llmnr_client.o
 .debug_str     0x00008c52      0x244 build/default/production/_ext/895184604/llmnr_responder.o
 .debug_str     0x00008e96        0x0 build/default/production/_ext/895184604/llmnr_common.o
 .debug_str     0x00008e96      0x285 build/default/production/_ext/1079744218/dhcp_client.o
 .debug_str     0x0000911b      0x255 build/default/production/_ext/1079744218/dhcp_server.o
 .debug_str     0x00009370        0xb build/default/production/_ext/1079744218/dhcp_common.o
 .debug_str     0x0000937b        0x0 build/default/production/_ext/1079744218/dhcp_debug.o
 .debug_str     0x0000937b      0x4b4 build/default/production/_ext/1079612995/http_server.o
 .debug_str     0x0000982f      0x27f build/default/production/_ext/1079612995/http_server_auth.o
 .debug_str     0x00009aae      0x295 build/default/production/_ext/1079612995/http_server_misc.o
 .debug_str     0x00009d43        0x0 build/default/production/_ext/1079612995/mime.o
 .debug_str     0x00009d43      0x299 build/default/production/_ext/1079612995/ssi.o
 .debug_str     0x00009fdc      0x4bb build/default/production/_ext/1079466919/mqtt_client.o
 .debug_str     0x0000a497      0x48d build/default/production/_ext/1079466919/mqtt_client_misc.o
 .debug_str     0x0000a924      0x483 build/default/production/_ext/1079466919/mqtt_client_packet.o
 .debug_str     0x0000ada7      0x46b build/default/production/_ext/1079466919/mqtt_client_transport.o
 .debug_str     0x0000b212      0x4a1 build/default/production/_ext/18976819/web_socket.o
 .debug_str     0x0000b6b3      0x418 build/default/production/_ext/18976819/web_socket_auth.o
 .debug_str     0x0000bacb      0x437 build/default/production/_ext/18976819/web_socket_frame.o
 .debug_str     0x0000bf02      0x455 build/default/production/_ext/18976819/web_socket_misc.o
 .debug_str     0x0000c357      0x435 build/default/production/_ext/18976819/web_socket_transport.o
 .debug_str     0x0000c78c      0x56f build/default/production/_ext/1360937237/main.o
 .debug_str     0x0000ccfb        0x0 build/default/production/_ext/1360937237/debug.o
 .debug_str     0x0000ccfb        0x7 build/default/production/_ext/1360937237/sprintf.o
 .debug_str     0x0000cd02        0x0 build/default/production/_ext/1360937237/strtok_r.o
 .debug_str     0x0000cd02       0x13 build/default/production/_ext/1360937237/wilc1000_callbacks.o
 .debug_str     0x0000cd15        0x0 build/default/production/_ext/1360937237/res.o
 .debug_str     0x0000cd15       0x4c build/default/production/_ext/23001898/port.o
 .debug_str     0x0000cd61        0x0 build/default/production/_ext/986256546/croutine.o
 .debug_str     0x0000cd61       0x2b build/default/production/_ext/986256546/list.o
 .debug_str     0x0000cd8c      0x13b build/default/production/_ext/986256546/queue.o
 .debug_str     0x0000cec7      0x19c build/default/production/_ext/986256546/tasks.o
 .debug_str     0x0000d063       0xd2 build/default/production/_ext/986256546/timers.o
 .debug_str     0x0000d135        0x0 build/default/production/_ext/979089083/heap_3.o
 .debug_str     0x0000d135        0x0 build/default/production/_ext/457051042/nm_bsp_pic32mz.o
 .debug_str     0x0000d135        0x0 build/default/production/_ext/1700104339/nm_bus_wrapper_pic32mz.o
 .debug_str     0x0000d135        0xa build/default/production/_ext/1185106856/nm_common.o
 .debug_str     0x0000d13f       0x3c build/default/production/_ext/1679150795/m2m_hif.o
 .debug_str     0x0000d17b       0x20 build/default/production/_ext/1679150795/m2m_periph.o
 .debug_str     0x0000d19b      0x173 build/default/production/_ext/1679150795/m2m_wifi.o
 .debug_str     0x0000d30e       0x3a build/default/production/_ext/1679150795/nmasic.o
 .debug_str     0x0000d348       0x1a build/default/production/_ext/1679150795/nmbus.o
 .debug_str     0x0000d362        0xd build/default/production/_ext/1679150795/nmdrv.o
 .debug_str     0x0000d36f       0x8d build/default/production/_ext/1679150795/nmspi.o
 .debug_str     0x0000d3fc        0xb build/default/production/_ext/1679150795/spi_flash.o
 .debug_str     0x0000d407       0x4c build/default/production/_ext/1022178492/PMK.o
 .debug_str     0x0000d453       0x6d build/default/production/_ext/1640134129/m2m_wifi_ex.o
 .debug_str     0x0000d4c0        0x0 /home/programs/XC32/v2.30/bin/bin/../../lib/gcc/pic32mx/4.8.3/../../../../pic32mx/lib/fpu64/libpic32.a(default-bootstrap-exception-handler.o)
 .debug_str     0x0000d4c0        0x0 /home/programs/XC32/v2.30/bin/bin/../../lib/gcc/pic32mx/4.8.3/../../../../pic32mx/lib/fpu64/libpic32.a(default-on-reset.o)
 .debug_str     0x0000d4c0        0x0 /home/programs/XC32/v2.30/bin/bin/../../lib/gcc/pic32mx/4.8.3/../../../../pic32mx/lib/fpu64/libpic32.a(default-on-bootstrap.o)
 .debug_str     0x0000d4c0        0x0 /home/programs/XC32/v2.30/bin/bin/../../lib/gcc/pic32mx/4.8.3/../../../../pic32mx/lib/fpu64/libpic32.a(defaultinterrupt.o)
 .debug_str     0x0000d4c0        0x0 /home/programs/XC32/v2.30/bin/bin/../../lib/gcc/pic32mx/4.8.3/../../../../pic32mx/lib/fpu64/libpic32.a(default-general-exception-handler.o)
 .debug_str     0x0000d4c0        0x0 /home/programs/XC32/v2.30/bin/bin/../../lib/gcc/pic32mx/4.8.3/../../../../pic32mx/lib/fpu64/libpic32.a(default-cache-err-exception-handler.o)
 .debug_str     0x0000d4c0        0x0 /home/programs/XC32/v2.30/bin/bin/../../lib/gcc/pic32mx/4.8.3/../../../../pic32mx/lib/fpu64/libpic32.a(default-simple-tlb-refill-exception-handler.o)
 .debug_str     0x0000d4c0        0x0 /home/programs/XC32/v2.30/bin/bin/../../lib/gcc/pic32mx/4.8.3/../../../../pic32mx/lib/fpu64/libc.a(_iob.o)
 .debug_str     0x0000d4c0        0x0 /home/programs/XC32/v2.30/bin/bin/../../lib/gcc/pic32mx/4.8.3/../../../../pic32mx/lib/fpu64/libc.a(fwrite.o)
 .debug_str     0x0000d4c0        0x0 /home/programs/XC32/v2.30/bin/bin/../../lib/gcc/pic32mx/4.8.3/../../../../pic32mx/lib/fpu64/libc.a(atoi.o)
 .debug_str     0x0000d4c0        0x0 /home/programs/XC32/v2.30/bin/bin/../../lib/gcc/pic32mx/4.8.3/../../../../pic32mx/lib/fpu64/libc.a(ctype.o)
 .debug_str     0x0000d4c0        0x0 /home/programs/XC32/v2.30/bin/bin/../../lib/gcc/pic32mx/4.8.3/../../../../pic32mx/lib/fpu64/libc.a(ctypef.o)
 .debug_str     0x0000d4c0        0x0 /home/programs/XC32/v2.30/bin/bin/../../lib/gcc/pic32mx/4.8.3/../../../../pic32mx/lib/fpu64/libc.a(malloc.o)
 .debug_str     0x0000d4c0        0x0 /home/programs/XC32/v2.30/bin/bin/../../lib/gcc/pic32mx/4.8.3/../../../../pic32mx/lib/fpu64/libc.a(memmove.o)
 .debug_str     0x0000d4c0        0x0 /home/programs/XC32/v2.30/bin/bin/../../lib/gcc/pic32mx/4.8.3/../../../../pic32mx/lib/fpu64/libc.a(puts.o)
 .debug_str     0x0000d4c0        0x0 /home/programs/XC32/v2.30/bin/bin/../../lib/gcc/pic32mx/4.8.3/../../../../pic32mx/lib/fpu64/libc.a(strchr.o)
 .debug_str     0x0000d4c0        0x0 /home/programs/XC32/v2.30/bin/bin/../../lib/gcc/pic32mx/4.8.3/../../../../pic32mx/lib/fpu64/libc.a(strcasecmp.o)
 .debug_str     0x0000d4c0        0x0 /home/programs/XC32/v2.30/bin/bin/../../lib/gcc/pic32mx/4.8.3/../../../../pic32mx/lib/fpu64/libc.a(strncasecmp.o)
 .debug_str     0x0000d4c0        0x0 /home/programs/XC32/v2.30/bin/bin/../../lib/gcc/pic32mx/4.8.3/../../../../pic32mx/lib/fpu64/libc.a(strncat.o)
 .debug_str     0x0000d4c0        0x0 /home/programs/XC32/v2.30/bin/bin/../../lib/gcc/pic32mx/4.8.3/../../../../pic32mx/lib/fpu64/libc.a(strncmp.o)
 .debug_str     0x0000d4c0        0x0 /home/programs/XC32/v2.30/bin/bin/../../lib/gcc/pic32mx/4.8.3/../../../../pic32mx/lib/fpu64/libc.a(strncpy.o)
 .debug_str     0x0000d4c0        0x0 /home/programs/XC32/v2.30/bin/bin/../../lib/gcc/pic32mx/4.8.3/../../../../pic32mx/lib/fpu64/libc.a(strrchr.o)
 .debug_str     0x0000d4c0        0x0 /home/programs/XC32/v2.30/bin/bin/../../lib/gcc/pic32mx/4.8.3/../../../../pic32mx/lib/fpu64/libc.a(strtok.o)
 .debug_str     0x0000d4c0        0x0 /home/programs/XC32/v2.30/bin/bin/../../lib/gcc/pic32mx/4.8.3/../../../../pic32mx/lib/fpu64/libc.a(strtol.o)
 .debug_str     0x0000d4c0        0x0 /home/programs/XC32/v2.30/bin/bin/../../lib/gcc/pic32mx/4.8.3/../../../../pic32mx/lib/fpu64/libc.a(fprintf_cdnopsuxX.eo)
 .debug_str     0x0000d4c0        0x0 /home/programs/XC32/v2.30/bin/bin/../../lib/gcc/pic32mx/4.8.3/../../../../pic32mx/lib/fpu64/libc.a(fflush.o)
 .debug_str     0x0000d4c0        0x0 /home/programs/XC32/v2.30/bin/bin/../../lib/gcc/pic32mx/4.8.3/../../../../pic32mx/lib/fpu64/libc.a(fseek.o)
 .debug_str     0x0000d4c0        0x0 /home/programs/XC32/v2.30/bin/bin/../../lib/gcc/pic32mx/4.8.3/../../../../pic32mx/lib/fpu64/libc.a(errno.o)
 .debug_str     0x0000d4c0        0x0 /home/programs/XC32/v2.30/bin/bin/../../lib/gcc/pic32mx/4.8.3/../../../../pic32mx/lib/fpu64/libc.a(strcspn.o)
 .debug_str     0x0000d4c0        0x0 /home/programs/XC32/v2.30/bin/bin/../../lib/gcc/pic32mx/4.8.3/../../../../pic32mx/lib/fpu64/libc.a(strspn.o)
 .debug_str     0x0000d4c0        0x0 /home/programs/XC32/v2.30/bin/bin/../../lib/gcc/pic32mx/4.8.3/../../../../pic32mx/lib/fpu64/libc.a(doprnt_cdnopsuxX.eo)
 .debug_str     0x0000d4c0        0x0 /home/programs/XC32/v2.30/bin/bin/../../lib/gcc/pic32mx/4.8.3/fpu64/libgcc.a(_udivdi3.o)
 .debug_str     0x0000d4c0        0x0 /home/programs/XC32/v2.30/bin/bin/../../lib/gcc/pic32mx/4.8.3/fpu64/libgcc.a(_umoddi3.o)
 .debug_str     0x0000d4c0        0x0 /home/programs/XC32/v2.30/bin/bin/../../lib/gcc/pic32mx/4.8.3/../../../../pic32mx/lib/fpu64/libpic32.a(sbrk.o)
 .debug_str     0x0000d4c0        0x0 /home/programs/XC32/v2.30/bin/bin/../../lib/gcc/pic32mx/4.8.3/../../../../pic32mx/lib/fpu64/libpic32.a(write.o)
 .debug_str     0x0000d4c0        0x0 /home/programs/XC32/v2.30/bin/bin/../../lib/gcc/pic32mx/4.8.3/../../../../pic32mx/lib/fpu64/libpic32.a(lseek.o)
 .debug_str     0x0000d4c0        0x0 /home/programs/XC32/v2.30/bin/bin/../../lib/gcc/pic32mx/4.8.3/../../../../pic32mx/lib/fpu64/libpic32.a(_mon_putc.o)
 .debug_str     0x0000d4c0        0x0 /home/programs/XC32/v2.30/bin/bin/../../lib/gcc/pic32mx/4.8.3/../../../../pic32mx/lib/fpu64/libpic32.a(xc32_uart.o)

.debug_loc      0x00000000    0x5b08b
 *.elf(.debug_loc)
 *(.debug_loc)
 .debug_loc     0x00000000      0x2af build/default/production/_ext/360186330/cpu_endian.o
 .debug_loc     0x000002af      0x440 build/default/production/_ext/360186330/os_port_freertos.o
 .debug_loc     0x000006ef      0x70d build/default/production/_ext/360186330/date_time.o
 .debug_loc     0x00000dfc      0x251 build/default/production/_ext/360186330/str.o
 .debug_loc     0x0000104d      0x50c build/default/production/_ext/360186330/path.o
 .debug_loc     0x00001559      0x3fd build/default/production/_ext/360186330/resource_manager.o
 .debug_loc     0x00001956     0x152a build/default/production/_ext/120521611/md5.o
 .debug_loc     0x00002e80      0x47c build/default/production/_ext/120521611/sha1.o
 .debug_loc     0x000032fc      0x18b build/default/production/_ext/120521611/sha224.o
 .debug_loc     0x00003487      0x6ad build/default/production/_ext/120521611/sha256.o
 .debug_loc     0x00003b34      0x248 build/default/production/_ext/120521611/sha384.o
 .debug_loc     0x00003d7c      0x5ee build/default/production/_ext/120521611/sha512.o
 .debug_loc     0x0000436a      0x3e9 build/default/production/_ext/273211656/hmac.o
 .debug_loc     0x00004753      0x129 build/default/production/_ext/7005106/rc4.o
 .debug_loc     0x0000487c      0x952 build/default/production/_ext/7005106/idea.o
 .debug_loc     0x000051ce     0x216c build/default/production/_ext/7005106/des.o
 .debug_loc     0x0000733a      0x22f build/default/production/_ext/7005106/des3.o
 .debug_loc     0x00007569      0xe8e build/default/production/_ext/7005106/aes.o
 .debug_loc     0x000083f7     0x1599 build/default/production/_ext/7005106/camellia.o
 .debug_loc     0x00009990      0x5d0 build/default/production/_ext/7005106/seed.o
 .debug_loc     0x00009f60     0x2b28 build/default/production/_ext/7005106/aria.o
 .debug_loc     0x0000ca88      0x218 build/default/production/_ext/1125617168/cbc.o
 .debug_loc     0x0000cca0      0x7a2 build/default/production/_ext/120726866/ccm.o
 .debug_loc     0x0000d442      0xa99 build/default/production/_ext/120726866/gcm.o
 .debug_loc     0x0000dedb      0x21a build/default/production/_ext/7005106/chacha.o
 .debug_loc     0x0000e0f5      0xebf build/default/production/_ext/273211656/poly1305.o
 .debug_loc     0x0000efb4      0x3d2 build/default/production/_ext/120726866/chacha20_poly1305.o
 .debug_loc     0x0000f386      0x2a6 build/default/production/_ext/273214849/dh.o
 .debug_loc     0x0000f62c     0x2a94 build/default/production/_ext/273214849/rsa.o
 .debug_loc     0x000120c0      0x836 build/default/production/_ext/273214849/dsa.o
 .debug_loc     0x000128f6     0x1d3d build/default/production/_ext/273204030/ec.o
 .debug_loc     0x00014633      0x647 build/default/production/_ext/273204030/ec_curves.o
 .debug_loc     0x00014c7a      0x4ad build/default/production/_ext/273204030/ecdh.o
 .debug_loc     0x00015127      0x93c build/default/production/_ext/273204030/ecdsa.o
 .debug_loc     0x00015a63      0x974 build/default/production/_ext/273204030/curve25519.o
 .debug_loc     0x000163d7      0x13f build/default/production/_ext/273204030/x25519.o
 .debug_loc     0x00016516     0x2f70 build/default/production/_ext/273212127/mpi.o
 .debug_loc     0x00019486      0x435 build/default/production/_ext/1404394810/base64.o
 .debug_loc     0x000198bb      0x864 build/default/production/_ext/1404394810/asn1.o
 .debug_loc     0x0001a11f      0x81f build/default/production/_ext/1404394810/oid.o
 .debug_loc     0x0001a93e     0x136a build/default/production/_ext/120273967/pem_import.o
 .debug_loc     0x0001bca8      0x8f5 build/default/production/_ext/120273967/pkcs8_key_parse.o
 .debug_loc     0x0001c59d      0xbec build/default/production/_ext/120273967/x509_key_parse.o
 .debug_loc     0x0001d189     0x197c build/default/production/_ext/120273967/x509_cert_parse.o
 .debug_loc     0x0001eb05      0x98b build/default/production/_ext/120273967/x509_cert_validate.o
 .debug_loc     0x0001f490      0xcdc build/default/production/_ext/120273967/x509_crl_parse.o
 .debug_loc     0x0002016c      0x180 build/default/production/_ext/120273967/x509_crl_validate.o
 .debug_loc     0x000202ec      0x2a5 build/default/production/_ext/120273967/x509_common.o
 .debug_loc     0x00020591      0x567 build/default/production/_ext/273209830/hkdf.o
 .debug_loc     0x00020af8      0x38e build/default/production/_ext/273216868/yarrow.o
 .debug_loc     0x00020e86      0xd04 build/default/production/_ext/476983781/tls.o
 .debug_loc     0x00021b8a      0x105 build/default/production/_ext/476983781/tls_cipher_suites.o
 .debug_loc     0x00021c8f      0x2c1 build/default/production/_ext/476983781/tls_handshake.o
 .debug_loc     0x00021f50      0xc91 build/default/production/_ext/476983781/tls_client.o
 .debug_loc     0x00022be1      0x5ee build/default/production/_ext/476983781/tls_client_fsm.o
 .debug_loc     0x000231cf      0x9e4 build/default/production/_ext/476983781/tls_client_extensions.o
 .debug_loc     0x00023bb3      0xf24 build/default/production/_ext/476983781/tls_client_misc.o
 .debug_loc     0x00024ad7      0xe71 build/default/production/_ext/476983781/tls_common.o
 .debug_loc     0x00025948      0x98a build/default/production/_ext/476983781/tls_extensions.o
 .debug_loc     0x000262d2     0x1491 build/default/production/_ext/476983781/tls_certificate.o
 .debug_loc     0x00027763      0xe08 build/default/production/_ext/476983781/tls_signature.o
 .debug_loc     0x0002856b      0xa2d build/default/production/_ext/476983781/tls_key_material.o
 .debug_loc     0x00028f98      0x564 build/default/production/_ext/476983781/tls_transcript_hash.o
 .debug_loc     0x000294fc      0x3ef build/default/production/_ext/476983781/tls_cache.o
 .debug_loc     0x000298eb      0x94e build/default/production/_ext/476983781/tls_record.o
 .debug_loc     0x0002a239      0x5ab build/default/production/_ext/476983781/tls_record_encryption.o
 .debug_loc     0x0002a7e4      0xdeb build/default/production/_ext/476983781/tls_record_decryption.o
 .debug_loc     0x0002b5cf      0xd29 build/default/production/_ext/476983781/tls_misc.o
 .debug_loc     0x0002c2f8      0x47b build/default/production/_ext/476983781/tls13_client.o
 .debug_loc     0x0002c773      0x8c8 build/default/production/_ext/476983781/tls13_client_extensions.o
 .debug_loc     0x0002d03b      0x3f5 build/default/production/_ext/476983781/tls13_client_misc.o
 .debug_loc     0x0002d430      0x1c5 build/default/production/_ext/476983781/tls13_common.o
 .debug_loc     0x0002d5f5      0x8cb build/default/production/_ext/476983781/tls13_key_material.o
 .debug_loc     0x0002dec0      0xbff build/default/production/_ext/476983781/tls13_misc.o
 .debug_loc     0x0002eabf      0xe95 build/default/production/_ext/1079766828/net.o
 .debug_loc     0x0002f954      0x9d8 build/default/production/_ext/1079766828/net_mem.o
 .debug_loc     0x0003032c      0x558 build/default/production/_ext/37329846/pic32mz_eth_driver.o
 .debug_loc     0x00030884      0x20f build/default/production/_ext/37332968/lan8720_driver.o
 .debug_loc     0x00030a93      0x458 build/default/production/_ext/1157531022/wilc1000_driver.o
 .debug_loc     0x00030eeb      0x260 build/default/production/_ext/1079766828/nic.o
 .debug_loc     0x0003114b      0x733 build/default/production/_ext/1079766828/ethernet.o
 .debug_loc     0x0003187e      0x6f7 build/default/production/_ext/1079766828/ethernet_misc.o
 .debug_loc     0x00031f75      0xbf7 build/default/production/_ext/1079587046/arp.o
 .debug_loc     0x00032b6c     0x1171 build/default/production/_ext/1079587046/ipv4.o
 .debug_loc     0x00033cdd      0x6bc build/default/production/_ext/1079587046/ipv4_frag.o
 .debug_loc     0x00034399      0x4db build/default/production/_ext/1079587046/ipv4_misc.o
 .debug_loc     0x00034874      0x451 build/default/production/_ext/1079587046/icmp.o
 .debug_loc     0x00034cc5     0x1e28 build/default/production/_ext/1079587044/ipv6.o
 .debug_loc     0x00036aed      0x8d4 build/default/production/_ext/1079587044/ipv6_frag.o
 .debug_loc     0x000373c1     0x12fc build/default/production/_ext/1079587044/ipv6_misc.o
 .debug_loc     0x000386bd       0xce build/default/production/_ext/1079587044/ipv6_pmtu.o
 .debug_loc     0x0003878b      0x73b build/default/production/_ext/1079587044/icmpv6.o
 .debug_loc     0x00038ec6      0x6a6 build/default/production/_ext/1079587044/mld.o
 .debug_loc     0x0003956c     0x125f build/default/production/_ext/1079587044/ndp.o
 .debug_loc     0x0003a7cb      0x63f build/default/production/_ext/1079587044/ndp_cache.o
 .debug_loc     0x0003ae0a      0xa54 build/default/production/_ext/1079587044/ndp_misc.o
 .debug_loc     0x0003b85e      0x593 build/default/production/_ext/1079587044/ndp_router_adv.o
 .debug_loc     0x0003bdf1      0x5d5 build/default/production/_ext/1079587044/slaac.o
 .debug_loc     0x0003c3c6      0xa3d build/default/production/_ext/1079766828/ip.o
 .debug_loc     0x0003ce03      0x7eb build/default/production/_ext/1079766828/tcp.o
 .debug_loc     0x0003d5ee      0xac1 build/default/production/_ext/1079766828/tcp_fsm.o
 .debug_loc     0x0003e0af     0x177c build/default/production/_ext/1079766828/tcp_misc.o
 .debug_loc     0x0003f82b      0x1f0 build/default/production/_ext/1079766828/tcp_timer.o
 .debug_loc     0x0003fa1b      0xb99 build/default/production/_ext/1079766828/udp.o
 .debug_loc     0x000405b4     0x1031 build/default/production/_ext/1079766828/socket.o
 .debug_loc     0x000415e5     0x26c7 build/default/production/_ext/1079766828/bsd_socket.o
 .debug_loc     0x00043cac      0x31e build/default/production/_ext/242264404/dns_cache.o
 .debug_loc     0x00043fca      0x4d0 build/default/production/_ext/242264404/dns_client.o
 .debug_loc     0x0004449a      0x9b1 build/default/production/_ext/242264404/dns_common.o
 .debug_loc     0x00044e4b      0x375 build/default/production/_ext/1435316685/nbns_client.o
 .debug_loc     0x000451c0      0x261 build/default/production/_ext/1435316685/nbns_responder.o
 .debug_loc     0x00045421      0x66d build/default/production/_ext/1435316685/nbns_common.o
 .debug_loc     0x00045a8e      0x38c build/default/production/_ext/895184604/llmnr_responder.o
 .debug_loc     0x00045e1a     0x1059 build/default/production/_ext/1079744218/dhcp_client.o
 .debug_loc     0x00046e73      0xc55 build/default/production/_ext/1079744218/dhcp_server.o
 .debug_loc     0x00047ac8      0x184 build/default/production/_ext/1079744218/dhcp_common.o
 .debug_loc     0x00047c4c      0x88f build/default/production/_ext/1079612995/http_server.o
 .debug_loc     0x000484db       0xb0 build/default/production/_ext/1079612995/http_server_auth.o
 .debug_loc     0x0004858b      0xa54 build/default/production/_ext/1079612995/http_server_misc.o
 .debug_loc     0x00048fdf       0xb3 build/default/production/_ext/1079612995/mime.o
 .debug_loc     0x00049092      0x6d8 build/default/production/_ext/1079612995/ssi.o
 .debug_loc     0x0004976a      0xd61 build/default/production/_ext/1079466919/mqtt_client.o
 .debug_loc     0x0004a4cb      0x803 build/default/production/_ext/1079466919/mqtt_client_misc.o
 .debug_loc     0x0004acce      0xfe0 build/default/production/_ext/1079466919/mqtt_client_packet.o
 .debug_loc     0x0004bcae      0x832 build/default/production/_ext/1079466919/mqtt_client_transport.o
 .debug_loc     0x0004c4e0     0x1079 build/default/production/_ext/18976819/web_socket.o
 .debug_loc     0x0004d559       0xb7 build/default/production/_ext/18976819/web_socket_auth.o
 .debug_loc     0x0004d610      0x3b9 build/default/production/_ext/18976819/web_socket_frame.o
 .debug_loc     0x0004d9c9      0xc88 build/default/production/_ext/18976819/web_socket_misc.o
 .debug_loc     0x0004e651      0x43a build/default/production/_ext/18976819/web_socket_transport.o
 .debug_loc     0x0004ea8b      0xc6a build/default/production/_ext/1360937237/main.o
 .debug_loc     0x0004f6f5       0xfe build/default/production/_ext/1360937237/debug.o
 .debug_loc     0x0004f7f3      0x881 build/default/production/_ext/1360937237/sprintf.o
 .debug_loc     0x00050074       0xbb build/default/production/_ext/1360937237/strtok_r.o
 .debug_loc     0x0005012f       0x7e build/default/production/_ext/1360937237/wilc1000_callbacks.o
 .debug_loc     0x000501ad      0x10d build/default/production/_ext/23001898/port.o
 .debug_loc     0x000502ba       0x44 build/default/production/_ext/986256546/list.o
 .debug_loc     0x000502fe     0x12c2 build/default/production/_ext/986256546/queue.o
 .debug_loc     0x000515c0     0x17fe build/default/production/_ext/986256546/tasks.o
 .debug_loc     0x00052dbe      0x889 build/default/production/_ext/986256546/timers.o
 .debug_loc     0x00053647       0x81 build/default/production/_ext/979089083/heap_3.o
 .debug_loc     0x000536c8       0x83 build/default/production/_ext/457051042/nm_bsp_pic32mz.o
 .debug_loc     0x0005374b      0x18c build/default/production/_ext/1700104339/nm_bus_wrapper_pic32mz.o
 .debug_loc     0x000538d7      0x2f2 build/default/production/_ext/1185106856/nm_common.o
 .debug_loc     0x00053bc9      0x80b build/default/production/_ext/1679150795/m2m_hif.o
 .debug_loc     0x000543d4      0x294 build/default/production/_ext/1679150795/m2m_periph.o
 .debug_loc     0x00054668     0x1ae7 build/default/production/_ext/1679150795/m2m_wifi.o
 .debug_loc     0x0005614f      0x7ac build/default/production/_ext/1679150795/nmasic.o
 .debug_loc     0x000568fb      0x405 build/default/production/_ext/1679150795/nmbus.o
 .debug_loc     0x00056d00      0x1f8 build/default/production/_ext/1679150795/nmdrv.o
 .debug_loc     0x00056ef8      0xfc5 build/default/production/_ext/1679150795/nmspi.o
 .debug_loc     0x00057ebd       0xef build/default/production/_ext/1679150795/spi_flash.o
 .debug_loc     0x00057fac      0xb4b build/default/production/_ext/1022178492/PMK.o
 .debug_loc     0x00058af7      0xf6d build/default/production/_ext/1640134129/m2m_wifi_ex.o
 .debug_loc     0x00059a64       0x2c /home/programs/XC32/v2.30/bin/bin/../../lib/gcc/pic32mx/4.8.3/../../../../pic32mx/lib/fpu64/libpic32.a(default-bootstrap-exception-handler.o)
 .debug_loc     0x00059a90       0x2c /home/programs/XC32/v2.30/bin/bin/../../lib/gcc/pic32mx/4.8.3/../../../../pic32mx/lib/fpu64/libpic32.a(default-general-exception-handler.o)
 .debug_loc     0x00059abc       0x2c /home/programs/XC32/v2.30/bin/bin/../../lib/gcc/pic32mx/4.8.3/../../../../pic32mx/lib/fpu64/libpic32.a(default-cache-err-exception-handler.o)
 .debug_loc     0x00059ae8       0x2c /home/programs/XC32/v2.30/bin/bin/../../lib/gcc/pic32mx/4.8.3/../../../../pic32mx/lib/fpu64/libpic32.a(default-simple-tlb-refill-exception-handler.o)
 .debug_loc     0x00059b14      0xa6a /home/programs/XC32/v2.30/bin/bin/../../lib/gcc/pic32mx/4.8.3/fpu64/libgcc.a(_udivdi3.o)
 .debug_loc     0x0005a57e      0xa3d /home/programs/XC32/v2.30/bin/bin/../../lib/gcc/pic32mx/4.8.3/fpu64/libgcc.a(_umoddi3.o)
 .debug_loc     0x0005afbb       0x78 /home/programs/XC32/v2.30/bin/bin/../../lib/gcc/pic32mx/4.8.3/../../../../pic32mx/lib/fpu64/libpic32.a(sbrk.o)
 .debug_loc     0x0005b033       0x38 /home/programs/XC32/v2.30/bin/bin/../../lib/gcc/pic32mx/4.8.3/../../../../pic32mx/lib/fpu64/libpic32.a(write.o)
 .debug_loc     0x0005b06b       0x20 /home/programs/XC32/v2.30/bin/bin/../../lib/gcc/pic32mx/4.8.3/../../../../pic32mx/lib/fpu64/libpic32.a(_mon_putc.o)

.debug_macinfo
 *.elf(.debug_macinfo)
 *(.debug_macinfo)

.debug_weaknames
 *.elf(.debug_weaknames)
 *(.debug_weaknames)

.debug_funcnames
 *.elf(.debug_funcnames)
 *(.debug_funcnames)

.debug_typenames
 *.elf(.debug_typenames)
 *(.debug_typenames)

.debug_varnames
 *.elf(.debug_varnames)
 *(.debug_varnames)

.debug_pubtypes
 *.elf(.debug_pubtypes)
 *(.debug_pubtypes)

.debug_ranges   0x00000000      0xa70
 *.elf(.debug_ranges)
 *(.debug_ranges)
 .debug_ranges  0x00000000       0x48 build/default/production/_ext/7005106/idea.o
 .debug_ranges  0x00000048       0x18 build/default/production/_ext/120273967/x509_cert_validate.o
 .debug_ranges  0x00000060       0x18 build/default/production/_ext/476983781/tls.o
 .debug_ranges  0x00000078       0x18 build/default/production/_ext/476983781/tls_client_extensions.o
 .debug_ranges  0x00000090       0x28 build/default/production/_ext/476983781/tls_client_misc.o
 .debug_ranges  0x000000b8       0x18 build/default/production/_ext/476983781/tls_extensions.o
 .debug_ranges  0x000000d0       0x48 build/default/production/_ext/476983781/tls_certificate.o
 .debug_ranges  0x00000118       0x38 build/default/production/_ext/476983781/tls_signature.o
 .debug_ranges  0x00000150       0x48 build/default/production/_ext/476983781/tls_transcript_hash.o
 .debug_ranges  0x00000198       0x18 build/default/production/_ext/476983781/tls13_client_extensions.o
 .debug_ranges  0x000001b0       0x18 build/default/production/_ext/476983781/tls13_misc.o
 .debug_ranges  0x000001c8       0x18 build/default/production/_ext/1079587046/ipv4.o
 .debug_ranges  0x000001e0       0x20 build/default/production/_ext/1079587044/ipv6.o
 .debug_ranges  0x00000200       0x18 build/default/production/_ext/1079587044/ipv6_misc.o
 .debug_ranges  0x00000218       0x18 build/default/production/_ext/1079587044/ndp_cache.o
 .debug_ranges  0x00000230       0x20 build/default/production/_ext/1079766828/tcp_timer.o
 .debug_ranges  0x00000250       0x18 build/default/production/_ext/1079612995/http_server.o
 .debug_ranges  0x00000268       0x18 build/default/production/_ext/18976819/web_socket_misc.o
 .debug_ranges  0x00000280       0x78 build/default/production/_ext/1360937237/main.o
 .debug_ranges  0x000002f8       0x30 build/default/production/_ext/1360937237/sprintf.o
 .debug_ranges  0x00000328       0x28 build/default/production/_ext/23001898/port_asm.o
 .debug_ranges  0x00000350       0x90 build/default/production/_ext/986256546/queue.o
 .debug_ranges  0x000003e0       0x78 build/default/production/_ext/986256546/tasks.o
 .debug_ranges  0x00000458       0xb8 build/default/production/_ext/986256546/timers.o
 .debug_ranges  0x00000510       0x68 build/default/production/_ext/1679150795/m2m_hif.o
 .debug_ranges  0x00000578       0x18 build/default/production/_ext/1679150795/nmasic.o
 .debug_ranges  0x00000590       0xa8 build/default/production/_ext/1679150795/nmspi.o
 .debug_ranges  0x00000638       0x10 /home/programs/XC32/v2.30/bin/bin/../../lib/gcc/pic32mx/4.8.3/../../../../pic32mx/lib/fpu64/libpic32.a(default-bootstrap-exception-handler.o)
 .debug_ranges  0x00000648       0x10 /home/programs/XC32/v2.30/bin/bin/../../lib/gcc/pic32mx/4.8.3/../../../../pic32mx/lib/fpu64/libpic32.a(default-on-reset.o)
 .debug_ranges  0x00000658       0x10 /home/programs/XC32/v2.30/bin/bin/../../lib/gcc/pic32mx/4.8.3/../../../../pic32mx/lib/fpu64/libpic32.a(default-on-bootstrap.o)
 .debug_ranges  0x00000668       0x10 /home/programs/XC32/v2.30/bin/bin/../../lib/gcc/pic32mx/4.8.3/../../../../pic32mx/lib/fpu64/libpic32.a(defaultinterrupt.o)
 .debug_ranges  0x00000678       0x10 /home/programs/XC32/v2.30/bin/bin/../../lib/gcc/pic32mx/4.8.3/../../../../pic32mx/lib/fpu64/libpic32.a(default-general-exception-handler.o)
 .debug_ranges  0x00000688       0x10 /home/programs/XC32/v2.30/bin/bin/../../lib/gcc/pic32mx/4.8.3/../../../../pic32mx/lib/fpu64/libpic32.a(default-cache-err-exception-handler.o)
 .debug_ranges  0x00000698       0x10 /home/programs/XC32/v2.30/bin/bin/../../lib/gcc/pic32mx/4.8.3/../../../../pic32mx/lib/fpu64/libpic32.a(default-simple-tlb-refill-exception-handler.o)
 .debug_ranges  0x000006a8       0x10 /home/programs/XC32/v2.30/bin/bin/../../lib/gcc/pic32mx/4.8.3/../../../../pic32mx/lib/fpu64/libc.a(fwrite.o)
 .debug_ranges  0x000006b8       0x10 /home/programs/XC32/v2.30/bin/bin/../../lib/gcc/pic32mx/4.8.3/../../../../pic32mx/lib/fpu64/libc.a(atoi.o)
 .debug_ranges  0x000006c8       0x90 /home/programs/XC32/v2.30/bin/bin/../../lib/gcc/pic32mx/4.8.3/../../../../pic32mx/lib/fpu64/libc.a(ctypef.o)
 .debug_ranges  0x00000758       0x20 /home/programs/XC32/v2.30/bin/bin/../../lib/gcc/pic32mx/4.8.3/../../../../pic32mx/lib/fpu64/libc.a(malloc.o)
 .debug_ranges  0x00000778       0x10 /home/programs/XC32/v2.30/bin/bin/../../lib/gcc/pic32mx/4.8.3/../../../../pic32mx/lib/fpu64/libc.a(memmove.o)
 .debug_ranges  0x00000788       0x18 /home/programs/XC32/v2.30/bin/bin/../../lib/gcc/pic32mx/4.8.3/../../../../pic32mx/lib/fpu64/libc.a(puts.o)
 .debug_ranges  0x000007a0       0x10 /home/programs/XC32/v2.30/bin/bin/../../lib/gcc/pic32mx/4.8.3/../../../../pic32mx/lib/fpu64/libc.a(strchr.o)
 .debug_ranges  0x000007b0       0x10 /home/programs/XC32/v2.30/bin/bin/../../lib/gcc/pic32mx/4.8.3/../../../../pic32mx/lib/fpu64/libc.a(strcasecmp.o)
 .debug_ranges  0x000007c0       0x10 /home/programs/XC32/v2.30/bin/bin/../../lib/gcc/pic32mx/4.8.3/../../../../pic32mx/lib/fpu64/libc.a(strncasecmp.o)
 .debug_ranges  0x000007d0       0x10 /home/programs/XC32/v2.30/bin/bin/../../lib/gcc/pic32mx/4.8.3/../../../../pic32mx/lib/fpu64/libc.a(strncat.o)
 .debug_ranges  0x000007e0       0x10 /home/programs/XC32/v2.30/bin/bin/../../lib/gcc/pic32mx/4.8.3/../../../../pic32mx/lib/fpu64/libc.a(strncmp.o)
 .debug_ranges  0x000007f0       0x10 /home/programs/XC32/v2.30/bin/bin/../../lib/gcc/pic32mx/4.8.3/../../../../pic32mx/lib/fpu64/libc.a(strncpy.o)
 .debug_ranges  0x00000800       0x10 /home/programs/XC32/v2.30/bin/bin/../../lib/gcc/pic32mx/4.8.3/../../../../pic32mx/lib/fpu64/libc.a(strrchr.o)
 .debug_ranges  0x00000810       0x10 /home/programs/XC32/v2.30/bin/bin/../../lib/gcc/pic32mx/4.8.3/../../../../pic32mx/lib/fpu64/libc.a(strtok.o)
 .debug_ranges  0x00000820       0x18 /home/programs/XC32/v2.30/bin/bin/../../lib/gcc/pic32mx/4.8.3/../../../../pic32mx/lib/fpu64/libc.a(strtol.o)
 .debug_ranges  0x00000838       0x10 /home/programs/XC32/v2.30/bin/bin/../../lib/gcc/pic32mx/4.8.3/../../../../pic32mx/lib/fpu64/libc.a(fprintf_cdnopsuxX.eo)
 .debug_ranges  0x00000848       0x10 /home/programs/XC32/v2.30/bin/bin/../../lib/gcc/pic32mx/4.8.3/../../../../pic32mx/lib/fpu64/libc.a(fflush.o)
 .debug_ranges  0x00000858       0x18 /home/programs/XC32/v2.30/bin/bin/../../lib/gcc/pic32mx/4.8.3/../../../../pic32mx/lib/fpu64/libc.a(fseek.o)
 .debug_ranges  0x00000870       0x10 /home/programs/XC32/v2.30/bin/bin/../../lib/gcc/pic32mx/4.8.3/../../../../pic32mx/lib/fpu64/libc.a(strcspn.o)
 .debug_ranges  0x00000880       0x10 /home/programs/XC32/v2.30/bin/bin/../../lib/gcc/pic32mx/4.8.3/../../../../pic32mx/lib/fpu64/libc.a(strspn.o)
 .debug_ranges  0x00000890       0x10 /home/programs/XC32/v2.30/bin/bin/../../lib/gcc/pic32mx/4.8.3/../../../../pic32mx/lib/fpu64/libc.a(doprnt_cdnopsuxX.eo)
 .debug_ranges  0x000008a0       0x98 /home/programs/XC32/v2.30/bin/bin/../../lib/gcc/pic32mx/4.8.3/fpu64/libgcc.a(_udivdi3.o)
 .debug_ranges  0x00000938       0xd8 /home/programs/XC32/v2.30/bin/bin/../../lib/gcc/pic32mx/4.8.3/fpu64/libgcc.a(_umoddi3.o)
 .debug_ranges  0x00000a10       0x30 /home/programs/XC32/v2.30/bin/bin/../../lib/gcc/pic32mx/4.8.3/../../../../pic32mx/lib/fpu64/libpic32.a(sbrk.o)
 .debug_ranges  0x00000a40       0x10 /home/programs/XC32/v2.30/bin/bin/../../lib/gcc/pic32mx/4.8.3/../../../../pic32mx/lib/fpu64/libpic32.a(write.o)
 .debug_ranges  0x00000a50       0x10 /home/programs/XC32/v2.30/bin/bin/../../lib/gcc/pic32mx/4.8.3/../../../../pic32mx/lib/fpu64/libpic32.a(lseek.o)
 .debug_ranges  0x00000a60       0x10 /home/programs/XC32/v2.30/bin/bin/../../lib/gcc/pic32mx/4.8.3/../../../../pic32mx/lib/fpu64/libpic32.a(_mon_putc.o)

.gnu.attributes
                0x00000000       0x10
 *(.gnu.attributes)
 .gnu.attributes
                0x00000000       0x10 build/default/production/_ext/360186330/cpu_endian.o
 .gnu.attributes
                0x00000010       0x10 build/default/production/_ext/360186330/os_port_freertos.o
 .gnu.attributes
                0x00000020       0x10 build/default/production/_ext/360186330/date_time.o
 .gnu.attributes
                0x00000030       0x10 build/default/production/_ext/360186330/str.o
 .gnu.attributes
                0x00000040       0x10 build/default/production/_ext/360186330/path.o
 .gnu.attributes
                0x00000050       0x10 build/default/production/_ext/360186330/resource_manager.o
 .gnu.attributes
                0x00000060       0x10 build/default/production/_ext/120521611/md5.o
 .gnu.attributes
                0x00000070       0x10 build/default/production/_ext/120521611/sha1.o
 .gnu.attributes
                0x00000080       0x10 build/default/production/_ext/120521611/sha224.o
 .gnu.attributes
                0x00000090       0x10 build/default/production/_ext/120521611/sha256.o
 .gnu.attributes
                0x000000a0       0x10 build/default/production/_ext/120521611/sha384.o
 .gnu.attributes
                0x000000b0       0x10 build/default/production/_ext/120521611/sha512.o
 .gnu.attributes
                0x000000c0       0x10 build/default/production/_ext/273211656/hmac.o
 .gnu.attributes
                0x000000d0       0x10 build/default/production/_ext/7005106/rc4.o
 .gnu.attributes
                0x000000e0       0x10 build/default/production/_ext/7005106/idea.o
 .gnu.attributes
                0x000000f0       0x10 build/default/production/_ext/7005106/des.o
 .gnu.attributes
                0x00000100       0x10 build/default/production/_ext/7005106/des3.o
 .gnu.attributes
                0x00000110       0x10 build/default/production/_ext/7005106/aes.o
 .gnu.attributes
                0x00000120       0x10 build/default/production/_ext/7005106/camellia.o
 .gnu.attributes
                0x00000130       0x10 build/default/production/_ext/7005106/seed.o
 .gnu.attributes
                0x00000140       0x10 build/default/production/_ext/7005106/aria.o
 .gnu.attributes
                0x00000150       0x10 build/default/production/_ext/1125617168/cbc.o
 .gnu.attributes
                0x00000160       0x10 build/default/production/_ext/120726866/ccm.o
 .gnu.attributes
                0x00000170       0x10 build/default/production/_ext/120726866/gcm.o
 .gnu.attributes
                0x00000180       0x10 build/default/production/_ext/7005106/chacha.o
 .gnu.attributes
                0x00000190       0x10 build/default/production/_ext/273211656/poly1305.o
 .gnu.attributes
                0x000001a0       0x10 build/default/production/_ext/120726866/chacha20_poly1305.o
 .gnu.attributes
                0x000001b0       0x10 build/default/production/_ext/273214849/dh.o
 .gnu.attributes
                0x000001c0       0x10 build/default/production/_ext/273214849/rsa.o
 .gnu.attributes
                0x000001d0       0x10 build/default/production/_ext/273214849/dsa.o
 .gnu.attributes
                0x000001e0       0x10 build/default/production/_ext/273204030/ec.o
 .gnu.attributes
                0x000001f0       0x10 build/default/production/_ext/273204030/ec_curves.o
 .gnu.attributes
                0x00000200       0x10 build/default/production/_ext/273204030/ecdh.o
 .gnu.attributes
                0x00000210       0x10 build/default/production/_ext/273204030/ecdsa.o
 .gnu.attributes
                0x00000220       0x10 build/default/production/_ext/273204030/eddsa.o
 .gnu.attributes
                0x00000230       0x10 build/default/production/_ext/273204030/curve25519.o
 .gnu.attributes
                0x00000240       0x10 build/default/production/_ext/273204030/curve448.o
 .gnu.attributes
                0x00000250       0x10 build/default/production/_ext/273204030/x25519.o
 .gnu.attributes
                0x00000260       0x10 build/default/production/_ext/273204030/x448.o
 .gnu.attributes
                0x00000270       0x10 build/default/production/_ext/273204030/ed25519.o
 .gnu.attributes
                0x00000280       0x10 build/default/production/_ext/273204030/ed448.o
 .gnu.attributes
                0x00000290       0x10 build/default/production/_ext/273212127/mpi.o
 .gnu.attributes
                0x000002a0       0x10 build/default/production/_ext/1404394810/base64.o
 .gnu.attributes
                0x000002b0       0x10 build/default/production/_ext/1404394810/asn1.o
 .gnu.attributes
                0x000002c0       0x10 build/default/production/_ext/1404394810/oid.o
 .gnu.attributes
                0x000002d0       0x10 build/default/production/_ext/120273967/pem_import.o
 .gnu.attributes
                0x000002e0       0x10 build/default/production/_ext/120273967/pkcs8_key_parse.o
 .gnu.attributes
                0x000002f0       0x10 build/default/production/_ext/120273967/x509_key_parse.o
 .gnu.attributes
                0x00000300       0x10 build/default/production/_ext/120273967/x509_cert_parse.o
 .gnu.attributes
                0x00000310       0x10 build/default/production/_ext/120273967/x509_cert_validate.o
 .gnu.attributes
                0x00000320       0x10 build/default/production/_ext/120273967/x509_crl_parse.o
 .gnu.attributes
                0x00000330       0x10 build/default/production/_ext/120273967/x509_crl_validate.o
 .gnu.attributes
                0x00000340       0x10 build/default/production/_ext/120273967/x509_common.o
 .gnu.attributes
                0x00000350       0x10 build/default/production/_ext/273209830/hkdf.o
 .gnu.attributes
                0x00000360       0x10 build/default/production/_ext/273216868/yarrow.o
 .gnu.attributes
                0x00000370       0x10 build/default/production/_ext/476983781/tls.o
 .gnu.attributes
                0x00000380       0x10 build/default/production/_ext/476983781/tls_cipher_suites.o
 .gnu.attributes
                0x00000390       0x10 build/default/production/_ext/476983781/tls_handshake.o
 .gnu.attributes
                0x000003a0       0x10 build/default/production/_ext/476983781/tls_client.o
 .gnu.attributes
                0x000003b0       0x10 build/default/production/_ext/476983781/tls_client_fsm.o
 .gnu.attributes
                0x000003c0       0x10 build/default/production/_ext/476983781/tls_client_extensions.o
 .gnu.attributes
                0x000003d0       0x10 build/default/production/_ext/476983781/tls_client_misc.o
 .gnu.attributes
                0x000003e0       0x10 build/default/production/_ext/476983781/tls_server.o
 .gnu.attributes
                0x000003f0       0x10 build/default/production/_ext/476983781/tls_server_fsm.o
 .gnu.attributes
                0x00000400       0x10 build/default/production/_ext/476983781/tls_server_extensions.o
 .gnu.attributes
                0x00000410       0x10 build/default/production/_ext/476983781/tls_server_misc.o
 .gnu.attributes
                0x00000420       0x10 build/default/production/_ext/476983781/tls_common.o
 .gnu.attributes
                0x00000430       0x10 build/default/production/_ext/476983781/tls_extensions.o
 .gnu.attributes
                0x00000440       0x10 build/default/production/_ext/476983781/tls_certificate.o
 .gnu.attributes
                0x00000450       0x10 build/default/production/_ext/476983781/tls_signature.o
 .gnu.attributes
                0x00000460       0x10 build/default/production/_ext/476983781/tls_key_material.o
 .gnu.attributes
                0x00000470       0x10 build/default/production/_ext/476983781/tls_transcript_hash.o
 .gnu.attributes
                0x00000480       0x10 build/default/production/_ext/476983781/tls_cache.o
 .gnu.attributes
                0x00000490       0x10 build/default/production/_ext/476983781/tls_ticket.o
 .gnu.attributes
                0x000004a0       0x10 build/default/production/_ext/476983781/tls_ffdhe.o
 .gnu.attributes
                0x000004b0       0x10 build/default/production/_ext/476983781/tls_record.o
 .gnu.attributes
                0x000004c0       0x10 build/default/production/_ext/476983781/tls_record_encryption.o
 .gnu.attributes
                0x000004d0       0x10 build/default/production/_ext/476983781/tls_record_decryption.o
 .gnu.attributes
                0x000004e0       0x10 build/default/production/_ext/476983781/tls_misc.o
 .gnu.attributes
                0x000004f0       0x10 build/default/production/_ext/476983781/tls13_client.o
 .gnu.attributes
                0x00000500       0x10 build/default/production/_ext/476983781/tls13_client_extensions.o
 .gnu.attributes
                0x00000510       0x10 build/default/production/_ext/476983781/tls13_client_misc.o
 .gnu.attributes
                0x00000520       0x10 build/default/production/_ext/476983781/tls13_server.o
 .gnu.attributes
                0x00000530       0x10 build/default/production/_ext/476983781/tls13_server_extensions.o
 .gnu.attributes
                0x00000540       0x10 build/default/production/_ext/476983781/tls13_server_misc.o
 .gnu.attributes
                0x00000550       0x10 build/default/production/_ext/476983781/tls13_common.o
 .gnu.attributes
                0x00000560       0x10 build/default/production/_ext/476983781/tls13_key_material.o
 .gnu.attributes
                0x00000570       0x10 build/default/production/_ext/476983781/tls13_misc.o
 .gnu.attributes
                0x00000580       0x10 build/default/production/_ext/476983781/ssl_misc.o
 .gnu.attributes
                0x00000590       0x10 build/default/production/_ext/1079766828/net.o
 .gnu.attributes
                0x000005a0       0x10 build/default/production/_ext/1079766828/net_mem.o
 .gnu.attributes
                0x000005b0       0x10 build/default/production/_ext/37329846/pic32mz_eth_driver.o
 .gnu.attributes
                0x000005c0       0x10 build/default/production/_ext/37332968/lan8720_driver.o
 .gnu.attributes
                0x000005d0       0x10 build/default/production/_ext/1157531022/wilc1000_driver.o
 .gnu.attributes
                0x000005e0       0x10 build/default/production/_ext/1079766828/nic.o
 .gnu.attributes
                0x000005f0       0x10 build/default/production/_ext/1079766828/ethernet.o
 .gnu.attributes
                0x00000600       0x10 build/default/production/_ext/1079766828/ethernet_misc.o
 .gnu.attributes
                0x00000610       0x10 build/default/production/_ext/1079587046/arp.o
 .gnu.attributes
                0x00000620       0x10 build/default/production/_ext/1079587046/ipv4.o
 .gnu.attributes
                0x00000630       0x10 build/default/production/_ext/1079587046/ipv4_frag.o
 .gnu.attributes
                0x00000640       0x10 build/default/production/_ext/1079587046/ipv4_misc.o
 .gnu.attributes
                0x00000650       0x10 build/default/production/_ext/1079587046/icmp.o
 .gnu.attributes
                0x00000660       0x10 build/default/production/_ext/1079587046/igmp.o
 .gnu.attributes
                0x00000670       0x10 build/default/production/_ext/1079587044/ipv6.o
 .gnu.attributes
                0x00000680       0x10 build/default/production/_ext/1079587044/ipv6_frag.o
 .gnu.attributes
                0x00000690       0x10 build/default/production/_ext/1079587044/ipv6_misc.o
 .gnu.attributes
                0x000006a0       0x10 build/default/production/_ext/1079587044/ipv6_pmtu.o
 .gnu.attributes
                0x000006b0       0x10 build/default/production/_ext/1079587044/icmpv6.o
 .gnu.attributes
                0x000006c0       0x10 build/default/production/_ext/1079587044/mld.o
 .gnu.attributes
                0x000006d0       0x10 build/default/production/_ext/1079587044/ndp.o
 .gnu.attributes
                0x000006e0       0x10 build/default/production/_ext/1079587044/ndp_cache.o
 .gnu.attributes
                0x000006f0       0x10 build/default/production/_ext/1079587044/ndp_misc.o
 .gnu.attributes
                0x00000700       0x10 build/default/production/_ext/1079587044/ndp_router_adv.o
 .gnu.attributes
                0x00000710       0x10 build/default/production/_ext/1079587044/slaac.o
 .gnu.attributes
                0x00000720       0x10 build/default/production/_ext/1079766828/ip.o
 .gnu.attributes
                0x00000730       0x10 build/default/production/_ext/1079766828/tcp.o
 .gnu.attributes
                0x00000740       0x10 build/default/production/_ext/1079766828/tcp_fsm.o
 .gnu.attributes
                0x00000750       0x10 build/default/production/_ext/1079766828/tcp_misc.o
 .gnu.attributes
                0x00000760       0x10 build/default/production/_ext/1079766828/tcp_timer.o
 .gnu.attributes
                0x00000770       0x10 build/default/production/_ext/1079766828/udp.o
 .gnu.attributes
                0x00000780       0x10 build/default/production/_ext/1079766828/socket.o
 .gnu.attributes
                0x00000790       0x10 build/default/production/_ext/1079766828/bsd_socket.o
 .gnu.attributes
                0x000007a0       0x10 build/default/production/_ext/1079766828/raw_socket.o
 .gnu.attributes
                0x000007b0       0x10 build/default/production/_ext/242264404/dns_cache.o
 .gnu.attributes
                0x000007c0       0x10 build/default/production/_ext/242264404/dns_client.o
 .gnu.attributes
                0x000007d0       0x10 build/default/production/_ext/242264404/dns_common.o
 .gnu.attributes
                0x000007e0       0x10 build/default/production/_ext/242264404/dns_debug.o
 .gnu.attributes
                0x000007f0       0x10 build/default/production/_ext/1079479599/mdns_client.o
 .gnu.attributes
                0x00000800       0x10 build/default/production/_ext/1079479599/mdns_responder.o
 .gnu.attributes
                0x00000810       0x10 build/default/production/_ext/1079479599/mdns_common.o
 .gnu.attributes
                0x00000820       0x10 build/default/production/_ext/1435316685/nbns_client.o
 .gnu.attributes
                0x00000830       0x10 build/default/production/_ext/1435316685/nbns_responder.o
 .gnu.attributes
                0x00000840       0x10 build/default/production/_ext/1435316685/nbns_common.o
 .gnu.attributes
                0x00000850       0x10 build/default/production/_ext/895184604/llmnr_client.o
 .gnu.attributes
                0x00000860       0x10 build/default/production/_ext/895184604/llmnr_responder.o
 .gnu.attributes
                0x00000870       0x10 build/default/production/_ext/895184604/llmnr_common.o
 .gnu.attributes
                0x00000880       0x10 build/default/production/_ext/1079744218/dhcp_client.o
 .gnu.attributes
                0x00000890       0x10 build/default/production/_ext/1079744218/dhcp_server.o
 .gnu.attributes
                0x000008a0       0x10 build/default/production/_ext/1079744218/dhcp_common.o
 .gnu.attributes
                0x000008b0       0x10 build/default/production/_ext/1079744218/dhcp_debug.o
 .gnu.attributes
                0x000008c0       0x10 build/default/production/_ext/1079612995/http_server.o
 .gnu.attributes
                0x000008d0       0x10 build/default/production/_ext/1079612995/http_server_auth.o
 .gnu.attributes
                0x000008e0       0x10 build/default/production/_ext/1079612995/http_server_misc.o
 .gnu.attributes
                0x000008f0       0x10 build/default/production/_ext/1079612995/mime.o
 .gnu.attributes
                0x00000900       0x10 build/default/production/_ext/1079612995/ssi.o
 .gnu.attributes
                0x00000910       0x10 build/default/production/_ext/1079466919/mqtt_client.o
 .gnu.attributes
                0x00000920       0x10 build/default/production/_ext/1079466919/mqtt_client_misc.o
 .gnu.attributes
                0x00000930       0x10 build/default/production/_ext/1079466919/mqtt_client_packet.o
 .gnu.attributes
                0x00000940       0x10 build/default/production/_ext/1079466919/mqtt_client_transport.o
 .gnu.attributes
                0x00000950       0x10 build/default/production/_ext/18976819/web_socket.o
 .gnu.attributes
                0x00000960       0x10 build/default/production/_ext/18976819/web_socket_auth.o
 .gnu.attributes
                0x00000970       0x10 build/default/production/_ext/18976819/web_socket_frame.o
 .gnu.attributes
                0x00000980       0x10 build/default/production/_ext/18976819/web_socket_misc.o
 .gnu.attributes
                0x00000990       0x10 build/default/production/_ext/18976819/web_socket_transport.o
 .gnu.attributes
                0x000009a0       0x10 build/default/production/_ext/1360937237/main.o
 .gnu.attributes
                0x000009b0       0x10 build/default/production/_ext/1360937237/debug.o
 .gnu.attributes
                0x000009c0       0x10 build/default/production/_ext/1360937237/sprintf.o
 .gnu.attributes
                0x000009d0       0x10 build/default/production/_ext/1360937237/strtok_r.o
 .gnu.attributes
                0x000009e0       0x10 build/default/production/_ext/1360937237/wilc1000_callbacks.o
 .gnu.attributes
                0x000009f0       0x10 build/default/production/_ext/1360937237/res.o
 .gnu.attributes
                0x00000a00       0x10 build/default/production/_ext/23001898/port.o
 .gnu.attributes
                0x00000a10       0x10 build/default/production/_ext/986256546/croutine.o
 .gnu.attributes
                0x00000a20       0x10 build/default/production/_ext/986256546/list.o
 .gnu.attributes
                0x00000a30       0x10 build/default/production/_ext/986256546/queue.o
 .gnu.attributes
                0x00000a40       0x10 build/default/production/_ext/986256546/tasks.o
 .gnu.attributes
                0x00000a50       0x10 build/default/production/_ext/986256546/timers.o
 .gnu.attributes
                0x00000a60       0x10 build/default/production/_ext/979089083/heap_3.o
 .gnu.attributes
                0x00000a70       0x10 build/default/production/_ext/457051042/nm_bsp_pic32mz.o
 .gnu.attributes
                0x00000a80       0x10 build/default/production/_ext/1700104339/nm_bus_wrapper_pic32mz.o
 .gnu.attributes
                0x00000a90       0x10 build/default/production/_ext/1185106856/nm_common.o
 .gnu.attributes
                0x00000aa0       0x10 build/default/production/_ext/1679150795/m2m_hif.o
 .gnu.attributes
                0x00000ab0       0x10 build/default/production/_ext/1679150795/m2m_periph.o
 .gnu.attributes
                0x00000ac0       0x10 build/default/production/_ext/1679150795/m2m_wifi.o
 .gnu.attributes
                0x00000ad0       0x10 build/default/production/_ext/1679150795/nmasic.o
 .gnu.attributes
                0x00000ae0       0x10 build/default/production/_ext/1679150795/nmbus.o
 .gnu.attributes
                0x00000af0       0x10 build/default/production/_ext/1679150795/nmdrv.o
 .gnu.attributes
                0x00000b00       0x10 build/default/production/_ext/1679150795/nmspi.o
 .gnu.attributes
                0x00000b10       0x10 build/default/production/_ext/1679150795/spi_flash.o
 .gnu.attributes
                0x00000b20       0x10 build/default/production/_ext/1022178492/PMK.o
 .gnu.attributes
                0x00000b30       0x10 build/default/production/_ext/1640134129/m2m_wifi_ex.o
 .gnu.attributes
                0x00000b40       0x10 /home/programs/XC32/v2.30/bin/bin/../../lib/gcc/pic32mx/4.8.3/../../../../pic32mx/lib/fpu64/libpic32.a(default-bootstrap-exception-handler.o)
 .gnu.attributes
                0x00000b50       0x10 /home/programs/XC32/v2.30/bin/bin/../../lib/gcc/pic32mx/4.8.3/../../../../pic32mx/lib/fpu64/libpic32.a(default-on-reset.o)
 .gnu.attributes
                0x00000b60       0x10 /home/programs/XC32/v2.30/bin/bin/../../lib/gcc/pic32mx/4.8.3/../../../../pic32mx/lib/fpu64/libpic32.a(default-on-bootstrap.o)
 .gnu.attributes
                0x00000b70       0x10 /home/programs/XC32/v2.30/bin/bin/../../lib/gcc/pic32mx/4.8.3/../../../../pic32mx/lib/fpu64/libpic32.a(defaultinterrupt.o)
 .gnu.attributes
                0x00000b80       0x10 /home/programs/XC32/v2.30/bin/bin/../../lib/gcc/pic32mx/4.8.3/../../../../pic32mx/lib/fpu64/libpic32.a(default-general-exception-handler.o)
 .gnu.attributes
                0x00000b90       0x10 /home/programs/XC32/v2.30/bin/bin/../../lib/gcc/pic32mx/4.8.3/../../../../pic32mx/lib/fpu64/libpic32.a(default-cache-err-exception-handler.o)
 .gnu.attributes
                0x00000ba0       0x10 /home/programs/XC32/v2.30/bin/bin/../../lib/gcc/pic32mx/4.8.3/../../../../pic32mx/lib/fpu64/libpic32.a(default-simple-tlb-refill-exception-handler.o)
 .gnu.attributes
                0x00000bb0       0x10 /home/programs/XC32/v2.30/bin/bin/../../lib/gcc/pic32mx/4.8.3/../../../../pic32mx/lib/fpu64/libc.a(_iob.o)
 .gnu.attributes
                0x00000bc0       0x10 /home/programs/XC32/v2.30/bin/bin/../../lib/gcc/pic32mx/4.8.3/../../../../pic32mx/lib/fpu64/libc.a(fwrite.o)
 .gnu.attributes
                0x00000bd0       0x10 /home/programs/XC32/v2.30/bin/bin/../../lib/gcc/pic32mx/4.8.3/../../../../pic32mx/lib/fpu64/libc.a(atoi.o)
 .gnu.attributes
                0x00000be0       0x10 /home/programs/XC32/v2.30/bin/bin/../../lib/gcc/pic32mx/4.8.3/../../../../pic32mx/lib/fpu64/libc.a(ctype.o)
 .gnu.attributes
                0x00000bf0       0x10 /home/programs/XC32/v2.30/bin/bin/../../lib/gcc/pic32mx/4.8.3/../../../../pic32mx/lib/fpu64/libc.a(ctypef.o)
 .gnu.attributes
                0x00000c00       0x10 /home/programs/XC32/v2.30/bin/bin/../../lib/gcc/pic32mx/4.8.3/../../../../pic32mx/lib/fpu64/libc.a(malloc.o)
 .gnu.attributes
                0x00000c10       0x10 /home/programs/XC32/v2.30/bin/bin/../../lib/gcc/pic32mx/4.8.3/../../../../pic32mx/lib/fpu64/libc.a(memmove.o)
 .gnu.attributes
                0x00000c20       0x10 /home/programs/XC32/v2.30/bin/bin/../../lib/gcc/pic32mx/4.8.3/../../../../pic32mx/lib/fpu64/libc.a(puts.o)
 .gnu.attributes
                0x00000c30       0x10 /home/programs/XC32/v2.30/bin/bin/../../lib/gcc/pic32mx/4.8.3/../../../../pic32mx/lib/fpu64/libc.a(strchr.o)
 .gnu.attributes
                0x00000c40       0x10 /home/programs/XC32/v2.30/bin/bin/../../lib/gcc/pic32mx/4.8.3/../../../../pic32mx/lib/fpu64/libc.a(strcasecmp.o)
 .gnu.attributes
                0x00000c50       0x10 /home/programs/XC32/v2.30/bin/bin/../../lib/gcc/pic32mx/4.8.3/../../../../pic32mx/lib/fpu64/libc.a(strncasecmp.o)
 .gnu.attributes
                0x00000c60       0x10 /home/programs/XC32/v2.30/bin/bin/../../lib/gcc/pic32mx/4.8.3/../../../../pic32mx/lib/fpu64/libc.a(strncat.o)
 .gnu.attributes
                0x00000c70       0x10 /home/programs/XC32/v2.30/bin/bin/../../lib/gcc/pic32mx/4.8.3/../../../../pic32mx/lib/fpu64/libc.a(strncmp.o)
 .gnu.attributes
                0x00000c80       0x10 /home/programs/XC32/v2.30/bin/bin/../../lib/gcc/pic32mx/4.8.3/../../../../pic32mx/lib/fpu64/libc.a(strncpy.o)
 .gnu.attributes
                0x00000c90       0x10 /home/programs/XC32/v2.30/bin/bin/../../lib/gcc/pic32mx/4.8.3/../../../../pic32mx/lib/fpu64/libc.a(strrchr.o)
 .gnu.attributes
                0x00000ca0       0x10 /home/programs/XC32/v2.30/bin/bin/../../lib/gcc/pic32mx/4.8.3/../../../../pic32mx/lib/fpu64/libc.a(strtok.o)
 .gnu.attributes
                0x00000cb0       0x10 /home/programs/XC32/v2.30/bin/bin/../../lib/gcc/pic32mx/4.8.3/../../../../pic32mx/lib/fpu64/libc.a(strtol.o)
 .gnu.attributes
                0x00000cc0       0x10 /home/programs/XC32/v2.30/bin/bin/../../lib/gcc/pic32mx/4.8.3/../../../../pic32mx/lib/fpu64/libc.a(fprintf_cdnopsuxX.eo)
 .gnu.attributes
                0x00000cd0       0x10 /home/programs/XC32/v2.30/bin/bin/../../lib/gcc/pic32mx/4.8.3/../../../../pic32mx/lib/fpu64/libc.a(fflush.o)
 .gnu.attributes
                0x00000ce0       0x10 /home/programs/XC32/v2.30/bin/bin/../../lib/gcc/pic32mx/4.8.3/../../../../pic32mx/lib/fpu64/libc.a(fseek.o)
 .gnu.attributes
                0x00000cf0       0x10 /home/programs/XC32/v2.30/bin/bin/../../lib/gcc/pic32mx/4.8.3/../../../../pic32mx/lib/fpu64/libc.a(errno.o)
 .gnu.attributes
                0x00000d00       0x10 /home/programs/XC32/v2.30/bin/bin/../../lib/gcc/pic32mx/4.8.3/../../../../pic32mx/lib/fpu64/libc.a(strcspn.o)
 .gnu.attributes
                0x00000d10       0x10 /home/programs/XC32/v2.30/bin/bin/../../lib/gcc/pic32mx/4.8.3/../../../../pic32mx/lib/fpu64/libc.a(strspn.o)
 .gnu.attributes
                0x00000d20       0x10 /home/programs/XC32/v2.30/bin/bin/../../lib/gcc/pic32mx/4.8.3/../../../../pic32mx/lib/fpu64/libc.a(doprnt_cdnopsuxX.eo)
 .gnu.attributes
                0x00000d30       0x10 /home/programs/XC32/v2.30/bin/bin/../../lib/gcc/pic32mx/4.8.3/fpu64/libgcc.a(_udivdi3.o)
 .gnu.attributes
                0x00000d40       0x10 /home/programs/XC32/v2.30/bin/bin/../../lib/gcc/pic32mx/4.8.3/fpu64/libgcc.a(_umoddi3.o)
 .gnu.attributes
                0x00000d50       0x10 /home/programs/XC32/v2.30/bin/bin/../../lib/gcc/pic32mx/4.8.3/../../../../pic32mx/lib/fpu64/libpic32.a(sbrk.o)
 .gnu.attributes
                0x00000d60       0x10 /home/programs/XC32/v2.30/bin/bin/../../lib/gcc/pic32mx/4.8.3/../../../../pic32mx/lib/fpu64/libpic32.a(write.o)
 .gnu.attributes
                0x00000d70       0x10 /home/programs/XC32/v2.30/bin/bin/../../lib/gcc/pic32mx/4.8.3/../../../../pic32mx/lib/fpu64/libpic32.a(lseek.o)
 .gnu.attributes
                0x00000d80       0x10 /home/programs/XC32/v2.30/bin/bin/../../lib/gcc/pic32mx/4.8.3/../../../../pic32mx/lib/fpu64/libpic32.a(_mon_putc.o)
 .gnu.attributes
                0x00000d90       0x10 /home/programs/XC32/v2.30/bin/bin/../../lib/gcc/pic32mx/4.8.3/../../../../pic32mx/lib/fpu64/libpic32.a(xc32_uart.o)
                0x9d000000                PROVIDE (__pic32_init_cache_program_base_addr, 0x9d000000)
                0x80000000                PROVIDE (__pic32_init_cache_data_base_addr, 0x80000000)
                0xd0000000                PROVIDE (__pic32_init_sqi_kseg2_virtual_base_addr, 0xd0000000)
                0x30000000                PROVIDE (__pic32_init_sqi_kseg2_physical_base_addr, 0x30000000)
                0x0000001f                PROVIDE (__pic32_init_sqi_kseg2_entrylo0_bitset, 0x1f)
                0xd0000000                __pic32_tlb_0_entryhi = __pic32_init_sqi_kseg2_virtual_base_addr
                0x00c0001f                __pic32_tlb_0_entrylo0 = ((__pic32_init_sqi_kseg2_physical_base_addr >> 0x6) | __pic32_init_sqi_kseg2_entrylo0_bitset)
                0x00c4001f                __pic32_tlb_0_entrylo1 = (__pic32_tlb_0_entrylo0 | ((__pic32_init_sqi_kseg2_physical_base_addr + 0x1000000) >> 0x6))
                0xd2000000                __pic32_tlb_1_entryhi = (__pic32_init_sqi_kseg2_virtual_base_addr + 0x2000000)
                0x00c8001f                __pic32_tlb_1_entrylo0 = (((__pic32_init_sqi_kseg2_physical_base_addr + 0x2000000) >> 0x6) | __pic32_init_sqi_kseg2_entrylo0_bitset)
                0x00cc001f                __pic32_tlb_1_entrylo1 = (__pic32_tlb_1_entrylo0 | 0x40000)
                0xf0000000                PROVIDE (__pic32_init_sqi_kseg3_virtual_base_addr, 0xf0000000)
                0x30000000                PROVIDE (__pic32_init_sqi_kseg3_physical_base_addr, 0x30000000)
                0x00000017                PROVIDE (__pic32_init_sqi_kseg3_entrylo0_bitset, 0x17)
                0xf0000000                __pic32_tlb_2_entryhi = __pic32_init_sqi_kseg3_virtual_base_addr
                0x00c00017                __pic32_tlb_2_entrylo0 = ((__pic32_init_sqi_kseg3_physical_base_addr >> 0x6) | __pic32_init_sqi_kseg3_entrylo0_bitset)
                0x00c40017                __pic32_tlb_2_entrylo1 = (__pic32_tlb_2_entrylo0 | ((__pic32_init_sqi_kseg3_physical_base_addr + 0x1000000) >> 0x6))
                0xf2000000                __pic32_tlb_3_entryhi = (__pic32_init_sqi_kseg3_virtual_base_addr + 0x2000000)
                0x00c80017                __pic32_tlb_3_entrylo0 = (((__pic32_init_sqi_kseg3_physical_base_addr + 0x2000000) >> 0x6) | __pic32_init_sqi_kseg3_entrylo0_bitset)
                0x00cc0017                __pic32_tlb_3_entrylo1 = (__pic32_tlb_3_entrylo0 | 0x40000)
                0xc0000000                PROVIDE (__pic32_init_ebi_kseg2_virtual_base_addr, 0xc0000000)
                0x20000000                PROVIDE (__pic32_init_ebi_kseg2_physical_base_addr, 0x20000000)
                0x0000001f                PROVIDE (__pic32_init_ebi_kseg2_entrylo0_bitset, 0x1f)
                0xc0000000                __pic32_tlb_4_entryhi = __pic32_init_ebi_kseg2_virtual_base_addr
                0x0080001f                __pic32_tlb_4_entrylo0 = ((__pic32_init_ebi_kseg2_physical_base_addr >> 0x6) | __pic32_init_ebi_kseg2_entrylo0_bitset)
                0x0084001f                __pic32_tlb_4_entrylo1 = (__pic32_tlb_4_entrylo0 | ((__pic32_init_ebi_kseg2_physical_base_addr + 0x1000000) >> 0x6))
                0xc2000000                __pic32_tlb_5_entryhi = (__pic32_init_ebi_kseg2_virtual_base_addr + 0x2000000)
                0x0088001f                __pic32_tlb_5_entrylo0 = (((__pic32_init_ebi_kseg2_physical_base_addr + 0x2000000) >> 0x6) | __pic32_init_ebi_kseg2_entrylo0_bitset)
                0x008c001f                __pic32_tlb_5_entrylo1 = (__pic32_tlb_5_entrylo0 | 0x40000)
                0xe0000000                PROVIDE (__pic32_init_ebi_kseg3_virtual_base_addr, 0xe0000000)
                0x20000000                PROVIDE (__pic32_init_ebi_kseg3_physical_base_addr, 0x20000000)
                0x00000017                PROVIDE (__pic32_init_ebi_kseg3_entrylo0_bitset, 0x17)
                0xe0000000                __pic32_tlb_6_entryhi = __pic32_init_ebi_kseg3_virtual_base_addr
                0x00800017                __pic32_tlb_6_entrylo0 = ((__pic32_init_ebi_kseg3_physical_base_addr >> 0x6) | __pic32_init_ebi_kseg3_entrylo0_bitset)
                0x00840017                __pic32_tlb_6_entrylo1 = (__pic32_tlb_6_entrylo0 | ((__pic32_init_ebi_kseg3_physical_base_addr + 0x1000000) >> 0x6))
                0xe2000000                __pic32_tlb_7_entryhi = (__pic32_init_ebi_kseg3_virtual_base_addr + 0x2000000)
                0x00880017                __pic32_tlb_7_entrylo0 = (((__pic32_init_ebi_kseg3_physical_base_addr + 0x2000000) >> 0x6) | __pic32_init_ebi_kseg3_entrylo0_bitset)
                0x008c0017                __pic32_tlb_7_entrylo1 = (__pic32_tlb_7_entrylo0 | 0x40000)

.tlb_init_values
                0xbfc00670       0x60
                0xbfc00670                . = ALIGN (0x4)
                0xbfc00670                __pic32_tlb_init_values_begin = ABSOLUTE (.)
                0xbfc00670        0x4 LONG 0xd0000000 __pic32_tlb_0_entryhi
                0xbfc00674        0x4 LONG 0xc0001f __pic32_tlb_0_entrylo0
                0xbfc00678        0x4 LONG 0xc4001f __pic32_tlb_0_entrylo1
                0xbfc0067c        0x4 LONG 0xd2000000 __pic32_tlb_1_entryhi
                0xbfc00680        0x4 LONG 0xc8001f __pic32_tlb_1_entrylo0
                0xbfc00684        0x4 LONG 0xcc001f __pic32_tlb_1_entrylo1
                0xbfc00688        0x4 LONG 0xf0000000 __pic32_tlb_2_entryhi
                0xbfc0068c        0x4 LONG 0xc00017 __pic32_tlb_2_entrylo0
                0xbfc00690        0x4 LONG 0xc40017 __pic32_tlb_2_entrylo1
                0xbfc00694        0x4 LONG 0xf2000000 __pic32_tlb_3_entryhi
                0xbfc00698        0x4 LONG 0xc80017 __pic32_tlb_3_entrylo0
                0xbfc0069c        0x4 LONG 0xcc0017 __pic32_tlb_3_entrylo1
                0xbfc006a0        0x4 LONG 0xc0000000 __pic32_tlb_4_entryhi
                0xbfc006a4        0x4 LONG 0x80001f __pic32_tlb_4_entrylo0
                0xbfc006a8        0x4 LONG 0x84001f __pic32_tlb_4_entrylo1
                0xbfc006ac        0x4 LONG 0xc2000000 __pic32_tlb_5_entryhi
                0xbfc006b0        0x4 LONG 0x88001f __pic32_tlb_5_entrylo0
                0xbfc006b4        0x4 LONG 0x8c001f __pic32_tlb_5_entrylo1
                0xbfc006b8        0x4 LONG 0xe0000000 __pic32_tlb_6_entryhi
                0xbfc006bc        0x4 LONG 0x800017 __pic32_tlb_6_entrylo0
                0xbfc006c0        0x4 LONG 0x840017 __pic32_tlb_6_entrylo1
                0xbfc006c4        0x4 LONG 0xe2000000 __pic32_tlb_7_entryhi
                0xbfc006c8        0x4 LONG 0x880017 __pic32_tlb_7_entrylo0
                0xbfc006cc        0x4 LONG 0x8c0017 __pic32_tlb_7_entrylo1
                0xbfc006d0                __pic32_tlb_init_values_end = ABSOLUTE (.)
                0x00000008                __pic32_tlb_init_values_count = 0x8
LOAD /home/programs/XC32/v2.30/bin/bin/../../lib/gcc/pic32mx/4.8.3/fpu64/libgcc.a
START GROUP
LOAD /home/programs/XC32/v2.30/bin/bin/../../lib/gcc/pic32mx/4.8.3/../../../../pic32mx/lib/fpu64/libpic32.a
LOAD /home/programs/XC32/v2.30/bin/bin/../../lib/gcc/pic32mx/4.8.3/../../../../pic32mx/lib/fpu64/libdebug.a
LOAD /home/programs/XC32/v2.30/bin/bin/../../lib/gcc/pic32mx/4.8.3/../../../../pic32mx/lib/fpu64/libpic32.a
LOAD /home/programs/XC32/v2.30/bin/bin/../../lib/gcc/pic32mx/4.8.3/../../../../pic32mx/lib/fpu64/libc.a
LOAD /home/programs/XC32/v2.30/bin/bin/../../lib/gcc/pic32mx/4.8.3/../../../../pic32mx/lib/fpu64/libc.a
LOAD /home/programs/XC32/v2.30/bin/bin/../../lib/gcc/pic32mx/4.8.3/../../../../pic32mx/lib/fpu64/libmfd.a
LOAD /home/programs/XC32/v2.30/bin/bin/../../lib/gcc/pic32mx/4.8.3/../../../../pic32mx/lib/fpu64/libm.a
LOAD /home/programs/XC32/v2.30/bin/bin/../../lib/gcc/pic32mx/4.8.3/../../../../pic32mx/lib/fpu64/libe.a
LOAD /home/programs/XC32/v2.30/bin/bin/../../lib/gcc/pic32mx/4.8.3/../../../../pic32mx/lib/fpu64/libdspr2.a
LOAD /home/programs/XC32/v2.30/bin/bin/../../lib/gcc/pic32mx/4.8.3/../../../../pic32mx/lib/fpu64/libdsp.a
LOAD /home/programs/XC32/v2.30/bin/bin/../../lib/gcc/pic32mx/4.8.3/fpu64/libgcc.a
LOAD /home/programs/XC32/v2.30/bin/bin/../../lib/gcc/pic32mx/4.8.3/../../../../pic32mx/lib/fpu64/libpic32.a
END GROUP
LOAD /home/programs/XC32/v2.30/bin/bin/../../lib/gcc/pic32mx/4.8.3/fpu64/libgcc.a
OUTPUT(dist/default/production/mplabx.production.elf elf32-tradlittlemips)
LOAD stack
LOAD data_init

.reginfo        0x00000000       0x18
 .reginfo       0x00000000       0x18 /home/programs/XC32/v2.30/bin/bin/../../lib/gcc/pic32mx/4.8.3/../../../../pic32mx/lib/fpu64/debug-exception-return.o

.stack          0x8004e718      0x400
 .stack         0x8004e718      0x400 stack

.__vector_offset_BF810540_data
                0xbf810540      0x178
 .__vector_offset_BF810540_data
                0xbf810540      0x178 /home/programs/XC32/v2.30/bin/bin/../../lib/gcc/pic32mx/4.8.3/../../../../pic32mx/lib/./proc/32MZ2048EFM100/vector_offset_init.o

.__vector_offset_BF810740_data
                0xbf810740       0xfc
 .__vector_offset_BF810740_data
                0xbf810740       0xfc /home/programs/XC32/v2.30/bin/bin/../../lib/gcc/pic32mx/4.8.3/../../../../pic32mx/lib/./proc/32MZ2048EFM100/vector_offset_init.o

.__vector_offset_BF8106F4_data
                0xbf8106f4       0x40
 .__vector_offset_BF8106F4_data
                0xbf8106f4       0x40 /home/programs/XC32/v2.30/bin/bin/../../lib/gcc/pic32mx/4.8.3/../../../../pic32mx/lib/./proc/32MZ2048EFM100/vector_offset_init.o

.__vector_offset_BF8106D8_data
                0xbf8106d8       0x18
 .__vector_offset_BF8106D8_data
                0xbf8106d8       0x18 /home/programs/XC32/v2.30/bin/bin/../../lib/gcc/pic32mx/4.8.3/../../../../pic32mx/lib/./proc/32MZ2048EFM100/vector_offset_init.o

.__vector_offset_BF810874_data
                0xbf810874       0x18
 .__vector_offset_BF810874_data
                0xbf810874       0x18 /home/programs/XC32/v2.30/bin/bin/../../lib/gcc/pic32mx/4.8.3/../../../../pic32mx/lib/./proc/32MZ2048EFM100/vector_offset_init.o

.__vector_offset_BF810858_data
                0xbf810858       0x14
 .__vector_offset_BF810858_data
                0xbf810858       0x14 /home/programs/XC32/v2.30/bin/bin/../../lib/gcc/pic32mx/4.8.3/../../../../pic32mx/lib/./proc/32MZ2048EFM100/vector_offset_init.o

.__vector_offset_BF810840_data
                0xbf810840        0xc
 .__vector_offset_BF810840_data
                0xbf810840        0xc /home/programs/XC32/v2.30/bin/bin/../../lib/gcc/pic32mx/4.8.3/../../../../pic32mx/lib/./proc/32MZ2048EFM100/vector_offset_init.o

.__vector_offset_BF810850_data
                0xbf810850        0x4
 .__vector_offset_BF810850_data
                0xbf810850        0x4 /home/programs/XC32/v2.30/bin/bin/../../lib/gcc/pic32mx/4.8.3/../../../../pic32mx/lib/./proc/32MZ2048EFM100/vector_offset_init.o

.__vector_offset_BF810894_data
                0xbf810894        0x4
 .__vector_offset_BF810894_data
                0xbf810894        0x4 /home/programs/XC32/v2.30/bin/bin/../../lib/gcc/pic32mx/4.8.3/../../../../pic32mx/lib/./proc/32MZ2048EFM100/vector_offset_init.o

.COHERENTBSS$   0xa00093f0     0x36b4
 .COHERENTBSS$  0xa00093f0     0x2400 build/default/production/_ext/37329846/pic32mz_eth_driver.o
 .bss.txBuffer.txBuffer
                0xa000b7f0     0x1200 build/default/production/_ext/37329846/pic32mz_eth_driver.o
 .bss.rxBufferDesc.rxBufferDesc
                0xa000c9f0       0x78 build/default/production/_ext/37329846/pic32mz_eth_driver.o
 .bss.txBufferDesc.txBufferDesc
                0xa000ca68       0x3c build/default/production/_ext/37329846/pic32mz_eth_driver.o

.bss            0x8000cab0     0x12c0
 .bss           0x8000cab0      0xc80 build/default/production/_ext/1157531022/wilc1000_driver.o
 .bss           0x8000d730      0x640 build/default/production/_ext/23001898/port.o
                0x8000d730                xISRStack

.bss            0x8000dd70      0x6c8
 .bss           0x8000dd70      0x600 build/default/production/_ext/37329846/pic32mz_eth_driver.o
 .bss           0x8000e370       0xc8 build/default/production/_ext/986256546/tasks.o

.data           0x8000e438       0xa4
 .data          0x8000e438       0xa4 /home/programs/XC32/v2.30/bin/bin/../../lib/gcc/pic32mx/4.8.3/../../../../pic32mx/lib/fpu64/libc.a(_iob.o)
                0x8000e438                _Files
                0x8000e43c                _iob

.bss            0x8000e4dc       0xc8
 .bss           0x8000e4dc       0x80 build/default/production/_ext/1404394810/oid.o
 .bss           0x8000e55c       0x48 build/default/production/_ext/1079766828/net.o

.bss            0x8000e5a4       0x84
 .bss           0x8000e5a4       0x44 /home/programs/XC32/v2.30/bin/bin/../../lib/gcc/pic32mx/4.8.3/../../../../pic32mx/lib/fpu64/libc.a(_iob.o)
                0x8000e5a4                _sobuf
                0x8000e5c4                _sibuf
                0x8000e5e4                _outdone
 .bss           0x8000e5e8       0x40 build/default/production/_ext/360186330/date_time.o

.bss            0x8000e628       0x54
 .bss           0x8000e628       0x2c build/default/production/_ext/1079766828/ethernet.o
 .bss           0x8000e654       0x28 build/default/production/_ext/1079587044/ipv6.o

.bss            0x8000e67c       0x4c
 .bss           0x8000e67c       0x28 build/default/production/_ext/986256546/timers.o
 .bss           0x8000e6a4       0x24 /home/programs/XC32/v2.30/bin/bin/../../lib/gcc/pic32mx/4.8.3/../../../../pic32mx/lib/fpu64/libpic32.a(sbrk.o)
                0x8000e6c0                _maxbrk
                0x8000e6c4                _minbrk

.bss            0x8000e6c8       0x30
 .bss           0x8000e6c8       0x20 /home/programs/XC32/v2.30/bin/bin/../../lib/gcc/pic32mx/4.8.3/../../../../pic32mx/lib/fpu64/libc.a(malloc.o)
                0x8000e6c8                __allocx
                0x8000e6d0                __alloct
                0x8000e6d4                __allocp
                0x8000e6d8                __allocs
 .bss           0x8000e6e8       0x10 build/default/production/_ext/1079587046/ipv4.o

.bss            0x800093ec        0x4
 .bss           0x800093ec        0x4 /home/programs/XC32/v2.30/bin/bin/../../lib/gcc/pic32mx/4.8.3/../../../../pic32mx/lib/fpu64/libc.a(strtok.o)

.bss.errno      0x8000e6f8        0x4
 .bss.errno     0x8000e6f8        0x4 /home/programs/XC32/v2.30/bin/bin/../../lib/gcc/pic32mx/4.8.3/../../../../pic32mx/lib/fpu64/libc.a(errno.o)
                0x8000e6f8                errno

._debug_exception
                0xbfc00480       0x2c
 ._debug_exception
                0xbfc00480       0x2c /home/programs/XC32/v2.30/bin/bin/../../lib/gcc/pic32mx/4.8.3/../../../../pic32mx/lib/fpu64/debug-exception-return.o
                0xbfc00480                __DbgExecReturn

.rodata         0x9d0009f4    0x31ac0
 .rodata        0x9d0009f4    0x2a39c build/default/production/_ext/1679150795/nmasic.o
                0x9d000c20                firmware
 .rodata        0x9d02ad90     0x7724 build/default/production/_ext/1360937237/res.o
                0x9d02ad90                res

.text           0x9d0324b4     0x2bf0
 .text          0x9d0324b4     0x2bf0 build/default/production/_ext/1360937237/main.o
                0x9d0324b4                httpServerUriNotFoundCallback
                0x9d0324bc                mqttTestTlsInitCallback
                0x9d032588                mqttTestPublishCallback
                0x9d033174                ledTask
                0x9d0331b4                httpServerCgiCallback
                0x9d0335b0                httpServerRequestCallback
                0x9d0338bc                systemInit
                0x9d03398c                ioInit
                0x9d0339e8                webSocketRngCallback
                0x9d033a14                configureNodes
                0x9d033cb0                mqttTestConnect
                0x9d033eec                ethInterfaceInit
                0x9d034108                main
                0x9d03449c                wifiStaInterfaceInit
                0x9d0346a8                wifiInit
                0x9d034800                SoftReset
                0x9d034878                mqttTestTask

.rodata         0x9d0350a4     0x2808
 .rodata        0x9d0350a4     0x2808 build/default/production/_ext/1360937237/main.o
                0x9d035bf0                trustedCaList
                0x9d036d80                clientKey
                0x9d0373f4                clientCert

.text           0x9d0378ac     0x4520
 .text          0x9d0378ac     0x2348 build/default/production/_ext/273212127/mpi.o
                0x9d0378ac                mpiInit
                0x9d0378c0                mpiFree
                0x9d037908                mpiGrow
                0x9d0379b0                mpiGetLength
                0x9d037a0c                mpiGetByteLength
                0x9d037a94                mpiGetBitLength
                0x9d037b18                mpiSetBitValue
                0x9d037bc8                mpiGetBitValue
                0x9d037bf8                mpiComp
                0x9d037cec                mpiCompInt
                0x9d037d3c                mpiCompAbs
                0x9d037e04                mpiCopy
                0x9d037ea0                mpiSetValue
                0x9d037f20                mpiRand
                0x9d038000                mpiCheckProbablePrime
                0x9d038008                mpiImport
                0x9d0381c8                mpiExport
                0x9d0382fc                mpiAddAbs
                0x9d038454                mpiSubAbs
                0x9d038624                mpiAdd
                0x9d0386bc                mpiAddInt
                0x9d03870c                mpiSub
                0x9d0387a4                mpiSubInt
                0x9d0387f4                mpiShiftLeft
                0x9d038938                mpiShiftRight
                0x9d038a58                mpiDiv
                0x9d038c1c                mpiDivInt
                0x9d038c6c                mpiMod
                0x9d038dc0                mpiAddMod
                0x9d038e08                mpiSubMod
                0x9d038e50                mpiMulAccCore
                0x9d038ef8                mpiMul
                0x9d039098                mpiMulInt
                0x9d0390e8                mpiMulMod
                0x9d039130                mpiInvMod
                0x9d039350                mpiMontgomeryMul
                0x9d0394fc                mpiMontgomeryRed
                0x9d039544                mpiExpMod
                0x9d039adc                mpiDump
 .text          0x9d039bf4     0x21d8 build/default/production/_ext/1079587044/ipv6.o
                0x9d039bf4                ipv6Init
                0x9d039cbc                ipv6SetMtu
                0x9d039d3c                ipv6GetMtu
                0x9d039d98                ipv6SetLinkLocalAddr
                0x9d039e38                ipv6GetLinkLocalAddr
                0x9d039ee0                ipv6SetGlobalAddr
                0x9d039f8c                ipv6GetGlobalAddr
                0x9d03a078                ipv6GetAnycastAddr
                0x9d03a11c                ipv6SetPrefix
                0x9d03a224                ipv6GetPrefix
                0x9d03a32c                ipv6SetDefaultRouter
                0x9d03a420                ipv6GetDefaultRouter
                0x9d03a4fc                ipv6SetDnsServer
                0x9d03a5b8                ipv6GetDnsServer
                0x9d03a678                ipv6LinkChangeEvent
                0x9d03a788                ipv6ParseRoutingHeader
                0x9d03a874                ipv6ParseAuthHeader
                0x9d03a87c                ipv6ParseEspHeader
                0x9d03a884                ipv6ParseOptions
                0x9d03aa38                ipv6ParseHopByHopOptHeader
                0x9d03ab48                ipv6ParseDestOptHeader
                0x9d03ac28                ipv6ProcessPacket
                0x9d03b0b0                ipv6SendPacket
                0x9d03b4b0                ipv6SendDatagram
                0x9d03b594                ipv6JoinMulticastGroup
                0x9d03b6f8                ipv6LeaveMulticastGroup
                0x9d03b804                ipv6SetAnycastAddr
                0x9d03b974                ipv6StringToAddr
                0x9d03bc18                ipv6AddrToString
                0x9d03bdc4                ipv6DumpHeader

.text           0x9d03bdcc     0x4138
 .text          0x9d03bdcc     0x21a8 build/default/production/_ext/273214849/rsa.o
                0x9d03bdcc                rsaInitPublicKey
                0x9d03bdf8                rsaFreePublicKey
                0x9d03be24                rsaInitPrivateKey
                0x9d03be80                rsaFreePrivateKey
                0x9d03bedc                rsaep
                0x9d03bf70                rsadp
                0x9d03c12c                rsasp1
                0x9d03c148                rsavp1
                0x9d03c164                emePkcs1v15Encode
                0x9d03c260                rsaesPkcs1v15Encrypt
                0x9d03c3ac                emePkcs1v15Decode
                0x9d03c468                rsaesPkcs1v15Decrypt
                0x9d03c660                emsaPkcs1v15Encode
                0x9d03c780                rsassaPkcs1v15Sign
                0x9d03c970                emsaPkcs1v15Verify
                0x9d03caec                rsassaPkcs1v15Verify
                0x9d03cc30                mgf1
                0x9d03cd54                emeOaepEncode
                0x9d03cf08                rsaesOaepEncrypt
                0x9d03d070                emeOaepDecode
                0x9d03d254                rsaesOaepDecrypt
                0x9d03d480                emsaPssEncode
                0x9d03d638                rsassaPssSign
                0x9d03d7b4                emsaPssVerify
                0x9d03d98c                rsassaPssVerify
                0x9d03daf8                rsaGenerateKeyPair
 .text          0x9d03df74     0x1f90 build/default/production/_ext/1079766828/tcp_misc.o
                0x9d03df74                tcpSendResetSegment
                0x9d03e230                tcpAddOption
                0x9d03e2f4                tcpGetOption
                0x9d03e3ac                tcpIsDuplicateSyn
                0x9d03e52c                tcpIsDuplicateAck
                0x9d03e58c                tcpUpdateRetransmitQueue
                0x9d03e68c                tcpFlushRetransmitQueue
                0x9d03e6dc                tcpFlushSynQueue
                0x9d03e724                tcpDeleteControlBlock
                0x9d03e768                tcpUpdateSackBlocks
                0x9d03e88c                tcpUpdateSendWindow
                0x9d03e9f8                tcpComputeRto
                0x9d03eae4                tcpUpdateEvents
                0x9d03ecec                tcpChangeState
                0x9d03ed34                tcpWaitForEvents
                0x9d03edb0                tcpWriteTxBuffer
                0x9d03ee6c                tcpReadTxBuffer
                0x9d03ef34                tcpSendSegment
                0x9d03f358                tcpCheckSequenceNumber
                0x9d03f438                tcpCheckSyn
                0x9d03f4c4                tcpUpdateReceiveWindow
                0x9d03f548                tcpNagleAlgo
                0x9d03f744                tcpRetransmitSegment
                0x9d03f878                tcpFastRetransmit
                0x9d03f8e8                tcpFastRecovery
                0x9d03f978                tcpFastLossRecovery
                0x9d03f9c4                tcpCheckAck
                0x9d03fc58                tcpWriteRxBuffer
                0x9d03fd2c                tcpProcessSegmentData
                0x9d03fe38                tcpReadRxBuffer
                0x9d03fefc                tcpDumpHeader

.text           0x9d03ff04     0x3be8
 .text          0x9d03ff04     0x1e08 build/default/production/_ext/986256546/tasks.o
                0x9d040020                uxTaskPriorityGetFromISR
                0x9d040060                xTaskResumeFromISR
                0x9d040158                vTaskEndScheduler
                0x9d04018c                vTaskSuspendAll
                0x9d0401a0                xTaskGetTickCount
                0x9d0401ac                xTaskGetTickCountFromISR
                0x9d0401b8                uxTaskGetNumberOfTasks
                0x9d0401c4                pcTaskGetName
                0x9d0401d4                xTaskIncrementTick
                0x9d040368                vTaskSwitchContext
                0x9d0403dc                vTaskPlaceOnEventList
                0x9d040414                vTaskPlaceOnUnorderedEventList
                0x9d04045c                vTaskPlaceOnEventListRestricted
                0x9d0404a4                xTaskRemoveFromEventList
                0x9d040560                vTaskRemoveFromUnorderedEventList
                0x9d0405f8                vTaskInternalSetTimeOutState
                0x9d04060c                vTaskMissedYield
                0x9d04061c                uxTaskGetStackHighWaterMark
                0x9d040664                xTaskGetCurrentTaskHandle
                0x9d040670                xTaskGetSchedulerState
                0x9d040690                xTaskPriorityInherit
                0x9d0407d8                xTaskPriorityDisinherit
                0x9d0408cc                vTaskPriorityDisinheritAfterTimeout
                0x9d0409dc                vTaskEnterCritical
                0x9d040a24                vTaskExitCritical
                0x9d040a84                xTaskCreate
                0x9d040d50                vTaskStartScheduler
                0x9d040ddc                vTaskDelete
                0x9d040f00                uxTaskPriorityGet
                0x9d040f3c                vTaskPrioritySet
                0x9d041098                vTaskSuspend
                0x9d0411d4                vTaskResume
                0x9d041354                xTaskResumeAll
                0x9d04149c                vTaskDelayUntil
                0x9d041544                vTaskDelay
                0x9d04159c                vTaskSetTimeOutState
                0x9d0415d4                xTaskCheckForTimeOut
                0x9d041678                uxTaskResetEventItemValue
                0x9d04169c                pvTaskIncrementMutexHeldCount
                0x9d0416c4                ulTaskNotifyTake
                0x9d041788                xTaskNotifyWait
                0x9d041890                xTaskGenericNotify
                0x9d041a00                xTaskGenericNotifyFromISR
                0x9d041ba8                vTaskNotifyGiveFromISR
                0x9d041cac                xTaskNotifyStateClear
 .text          0x9d041d0c     0x1de0 build/default/production/_ext/1079744218/dhcp_client.o
                0x9d041d0c                dhcpClientGetDefaultSettings
                0x9d041d54                dhcpClientInit
                0x9d041ea4                dhcpClientStart
                0x9d041f3c                dhcpClientStop
                0x9d041fac                dhcpClientGetState
                0x9d041fe4                dhcpClientLinkChangeEvent
                0x9d042084                dhcpClientSendDecline
                0x9d042218                dhcpClientCheckTimeout
                0x9d0422a0                dhcpClientComputeElapsedTime
                0x9d0422f8                dhcpClientSendDiscover
                0x9d0424bc                dhcpClientStateSelecting
                0x9d042588                dhcpClientSendRequest
                0x9d042810                dhcpClientChangeState
                0x9d0428ec                dhcpClientStateInit
                0x9d042958                dhcpClientStateRequesting
                0x9d042a64                dhcpClientStateInitReboot
                0x9d042ad0                dhcpClientStateRebooting
                0x9d042bdc                dhcpClientStateBound
                0x9d042c60                dhcpClientStateRenewing
                0x9d042d60                dhcpClientStateRebinding
                0x9d042e94                dhcpClientParseOffer
                0x9d042f80                dhcpClientParseAck
                0x9d043438                dhcpClientParseNak
                0x9d043564                dhcpClientProcessMessage
                0x9d043690                dhcpClientDumpConfig
                0x9d0438ec                dhcpClientStateProbing
                0x9d0439ec                dhcpClientTick

.text           0x9d043aec     0x3994
 .text          0x9d043aec     0x1cec build/default/production/_ext/1079587044/ndp.o
                0x9d043aec                ndpInit
                0x9d043b4c                ndpEnqueuePacket
                0x9d043c70                ndpLinkChangeEvent
                0x9d043cd4                ndpProcessRouterAdv
                0x9d0440e0                ndpProcessNeighborAdv
                0x9d044448                ndpProcessRedirect
                0x9d0447c4                ndpSendRouterSol
                0x9d0449b8                ndpTick
                0x9d044ab8                ndpSendNeighborSol
                0x9d044cf8                ndpResolve
                0x9d044e38                ndpSendNeighborAdv
                0x9d045140                ndpProcessNeighborSol
                0x9d045480                ndpSendRedirect
                0x9d0457b0                ndpDumpRouterSolMessage
                0x9d0457b8                ndpDumpRouterAdvMessage
                0x9d0457c0                ndpDumpNeighborSolMessage
                0x9d0457c8                ndpDumpNeighborAdvMessage
                0x9d0457d0                ndpDumpRedirectMessage
 .text          0x9d0457d8     0x1ca8 build/default/production/_ext/1679150795/m2m_wifi.o
                0x9d045ae0                m2m_wifi_init
                0x9d045b7c                m2m_wifi_deinit
                0x9d045ba4                m2m_wifi_handle_events
                0x9d045bc0                m2m_wifi_connect
                0x9d04600c                m2m_wifi_disconnect
                0x9d046040                m2m_wifi_set_tx_power
                0x9d04607c                m2m_wifi_set_mac_address
                0x9d0460f0                m2m_wifi_set_lsn_int
                0x9d046140                m2m_wifi_set_cust_InfoElement
                0x9d046218                m2m_wifi_set_scan_options
                0x9d0462f8                m2m_wifi_set_scan_region
                0x9d046334                m2m_wifi_set_scan_list
                0x9d0463e8                m2m_wifi_request_scan
                0x9d04651c                m2m_wifi_request_scan_ssid
                0x9d046684                m2m_wifi_wps
                0x9d0466dc                m2m_wifi_wps_disable
                0x9d046710                m2m_wifi_p2p
                0x9d0467dc                m2m_wifi_p2p_disconnect
                0x9d046810                m2m_wifi_enable_ap
                0x9d046880                m2m_wifi_disable_ap
                0x9d0468b4                m2m_wifi_ap_get_assoc_info
                0x9d0468e8                m2m_wifi_ap_add_black_list
                0x9d04693c                m2m_wifi_req_curr_rssi
                0x9d046970                m2m_wifi_send_ethernet_pkt
                0x9d0469cc                m2m_wifi_get_otp_mac_address
                0x9d046a48                m2m_wifi_get_mac_address
                0x9d046ad4                m2m_wifi_req_scan_result
                0x9d046b10                m2m_wifi_get_num_ap_found
                0x9d046b1c                m2m_wifi_get_sleep_mode
                0x9d046b38                m2m_wifi_set_sleep_mode
                0x9d046bf0                m2m_wifi_set_device_name
                0x9d046c54                m2m_wifi_set_p2p_pin
                0x9d046cc0                m2m_wifi_allow_p2p_connection
                0x9d046ce0                m2m_wifi_enable_monitoring_mode
                0x9d046d50                m2m_wifi_disable_monitoring_mode
                0x9d046d84                m2m_wifi_change_monitoring_channel
                0x9d046dd4                m2m_wifi_send_wlan_pkt
                0x9d046e2c                m2m_wifi_get_connection_info
                0x9d046e60                m2m_wifi_enable_mac_mcast
                0x9d046f50                m2m_wifi_enable_mcast_filter
                0x9d046f84                m2m_wifi_disable_mcast_filter
                0x9d046fb8                m2m_wifi_set_receive_buffer
                0x9d047044                m2m_wifi_download_cert
                0x9d047194                m2m_wifi_set_p2p_control_ifc
                0x9d0471e4                m2m_wifi_set_max_tx_rate
                0x9d047280                m2m_wifi_set_antenna_mode

.text           0x9d047480     0x37b8
 .text          0x9d047480     0x1c9c build/default/production/_ext/273204030/ec.o
                0x9d047480                ecLoadDomainParameters
                0x9d0475bc                ecInit
                0x9d0475f0                ecInitDomainParameters
                0x9d047640                ecFree
                0x9d047674                ecFreeDomainParameters
                0x9d0476bc                ecCopy
                0x9d047730                ecImport
                0x9d047870                ecExport
                0x9d047950                ecProjectify
                0x9d047990                ecTwinMultF
                0x9d0479e4                ecAddMod
                0x9d047a5c                ecSubMod
                0x9d047ad4                ecMulMod
                0x9d047b40                ecSqrMod
                0x9d047ba8                ecAffinify
                0x9d047cbc                ecIsPointAffine
                0x9d047dc4                ecDouble
                0x9d048298                ecAdd
                0x9d0487e0                ecFullAdd
                0x9d048940                ecFullSub
                0x9d0489f8                ecMult
                0x9d048cbc                ecTwinMult
 .text          0x9d04911c     0x1b1c build/default/production/_ext/120273967/x509_cert_parse.o
                0x9d04911c                x509ParseVersion
                0x9d0491c0                x509ParseSerialNumber
                0x9d049240                x509ParseNameAttribute
                0x9d049324                x509ParseName
                0x9d0496e0                x509ParseIssuerUniqueId
                0x9d049754                x509ParseSubjectUniqueId
                0x9d0497c8                x509ParseExtension
                0x9d0498e0                x509ParseBasicConstraints
                0x9d0499e4                x509ParsePolicyConstraints
                0x9d049a1c                x509ParsePolicyMappings
                0x9d049a54                x509ParseInhibitAnyPolicy
                0x9d049a5c                x509ParseKeyUsage
                0x9d049b3c                x509ParseExtendedKeyUsage
                0x9d049d34                x509ParseGeneralName
                0x9d049db0                x509ParseSubjectAltName
                0x9d049ea4                x509ParseGeneralSubtree
                0x9d049f00                x509ParseGeneralSubtrees
                0x9d049f68                x509ParseNameConstraints
                0x9d04a07c                x509ParseSubjectKeyId
                0x9d04a0c4                x509ParseAuthorityKeyId
                0x9d04a184                x509ParseNsCertType
                0x9d04a224                x509ParseExtensions
                0x9d04a52c                x509ParseSignatureAlgo
                0x9d04a5a0                x509ParseSignatureValue
                0x9d04a630                x509ParseInt
                0x9d04a6c0                x509ParseTime
                0x9d04a880                x509ParseValidity
                0x9d04a910                x509ParseTbsCertificate
                0x9d04ab30                x509ParseCertificate

.text           0x9d04ac38     0x2fa0
 .text          0x9d04ac38     0x1964 build/default/production/_ext/1679150795/nmspi.o
                0x9d04b8f0                nm_spi_reset
                0x9d04b928                nm_spi_deinit
                0x9d04b934                nm_spi_read_reg
                0x9d04b954                nm_spi_read_reg_with_ret
                0x9d04b980                nm_spi_write_reg
                0x9d04b9ac                nm_spi_init
                0x9d04bdc4                nm_spi_read_block
                0x9d04c04c                nm_spi_write_block
 .text          0x9d04c59c     0x163c build/default/production/_ext/476983781/tls.o
                0x9d04c59c                tlsInit
                0x9d04c668                tlsGetState
                0x9d04c680                tlsSetSocketCallbacks
                0x9d04c6c4                tlsSetVersion
                0x9d04c70c                tlsSetTransportProtocol
                0x9d04c734                tlsSetConnectionEnd
                0x9d04c75c                tlsSetPrng
                0x9d04c79c                tlsSetServerName
                0x9d04c860                tlsGetServerName
                0x9d04c88c                tlsSetCache
                0x9d04c8a8                tlsSetClientAuthMode
                0x9d04c8c4                tlsSetBufferSize
                0x9d04c90c                tlsSetMaxFragmentLength
                0x9d04c914                tlsSetCipherSuites
                0x9d04c944                tlsSetSupportedGroups
                0x9d04c974                tlsSetPreferredGroup
                0x9d04c990                tlsSetDhParameters
                0x9d04c998                tlsSetEcdhCallback
                0x9d04c9a0                tlsSetEcdsaSignCallback
                0x9d04c9a8                tlsSetEcdsaVerifyCallback
                0x9d04c9b0                tlsSetKeyLogCallback
                0x9d04c9b8                tlsAllowUnknownAlpnProtocols
                0x9d04c9c0                tlsSetAlpnProtocolList
                0x9d04c9c8                tlsGetAlpnProtocol
                0x9d04c9d4                tlsSetPsk
                0x9d04ca88                tlsSetPskIdentity
                0x9d04cb20                tlsSetPskIdentityHint
                0x9d04cbb8                tlsSetPskCallback
                0x9d04cbe4                tlsSetRpkVerifyCallback
                0x9d04cbec                tlsSetTrustedCaList
                0x9d04cc1c                tlsAddCertificate
                0x9d04cde4                tlsSetCertificateVerifyCallback
                0x9d04ce04                tlsEnableSecureRenegotiation
                0x9d04ce0c                tlsEnableFallbackScsv
                0x9d04ce14                tlsSetTicketCallbacks
                0x9d04ce1c                tlsSetPmtu
                0x9d04ce24                tlsSetTimeout
                0x9d04ce2c                tlsSetCookieCallbacks
                0x9d04ce34                tlsEnableReplayDetection
                0x9d04ce3c                tlsSetMaxEarlyDataSize
                0x9d04ce58                tlsWriteEarlyData
                0x9d04ce60                tlsConnect
                0x9d04cedc                tlsGetEarlyDataStatus
                0x9d04cee4                tlsWrite
                0x9d04d08c                tlsRead
                0x9d04d398                tlsIsTxReady
                0x9d04d3c4                tlsIsRxReady
                0x9d04d3e0                tlsShutdownEx
                0x9d04d59c                tlsShutdown
                0x9d04d5b8                tlsFree
                0x9d04d700                tlsInitSessionState
                0x9d04d730                tlsRestoreSessionState
                0x9d04d91c                tlsFreeSessionState
                0x9d04d98c                tlsSaveSessionState

.text           0x9d04dbd8     0x29c0
 .text          0x9d04dbd8     0x14f0 build/default/production/_ext/1079466919/mqtt_client_packet.o
                0x9d04dbd8                mqttClientReceivePacket
                0x9d04dd10                mqttClientProcessConnAck
                0x9d04ddd0                mqttClientProcessPubAck
                0x9d04de68                mqttClientProcessPubComp
                0x9d04df00                mqttClientProcessSubAck
                0x9d04df98                mqttClientProcessUnsubAck
                0x9d04e030                mqttClientProcessPingResp
                0x9d04e098                mqttClientFormatConnect
                0x9d04e358                mqttClientFormatPublish
                0x9d04e498                mqttClientFormatPubAck
                0x9d04e54c                mqttClientFormatPubRec
                0x9d04e600                mqttClientProcessPublish
                0x9d04e81c                mqttClientFormatPubRel
                0x9d04e8d4                mqttClientProcessPubRec
                0x9d04e9c4                mqttClientFormatPubComp
                0x9d04ea78                mqttClientProcessPubRel
                0x9d04eb6c                mqttClientProcessPacket
                0x9d04ede0                mqttClientFormatSubscribe
                0x9d04ef00                mqttClientFormatUnsubscribe
                0x9d04eff8                mqttClientFormatPingReq
                0x9d04f060                mqttClientFormatDisconnect
 .text          0x9d04f0c8     0x14d0 build/default/production/_ext/273204030/ec_curves.o
                0x9d04f0c8                secp224r1Mod
                0x9d04f47c                secp256r1Mod
                0x9d04fc1c                secp384r1Mod
                0x9d05034c                secp521r1Mod
                0x9d050490                ecGetCurveInfo

.text           0x9d050598     0x2970
 .text          0x9d050598     0x14bc build/default/production/_ext/120273967/pem_import.o
                0x9d050598                pemImportEddsaPublicKey
                0x9d0505a0                pemImportEddsaPrivateKey
                0x9d0505a8                pemFindTag
                0x9d050700                pemDecodeFile
                0x9d050830                pemImportCertificate
                0x9d05087c                pemImportCrl
                0x9d0508c8                pemImportCsr
                0x9d050910                pemImportDhParameters
                0x9d050a78                pemImportRsaPublicKey
                0x9d050c5c                pemImportRsaPrivateKey
                0x9d050e3c                pemImportDsaPublicKey
                0x9d050f64                pemImportDsaPrivateKey
                0x9d051148                pemImportEcParameters
                0x9d051454                pemImportEcPublicKey
                0x9d05157c                pemImportEcPrivateKey
                0x9d051760                pemGetPublicKeyType
                0x9d0518a4                pemGetPrivateKeyType
 .text          0x9d051a54     0x14b4 build/default/production/_ext/1079587044/ipv6_misc.o
                0x9d051a54                ipv6GetAddrState
                0x9d051acc                ipv6AddDefaultRouter
                0x9d051bf4                ipv6RemoveDefaultRouter
                0x9d051cf8                ipv6FlushPrefixList
                0x9d051d78                ipv6FlushDefaultRouterList
                0x9d051df4                ipv6FlushDnsServerList
                0x9d051e18                ipv6CheckSourceAddr
                0x9d051e2c                ipv6CheckDestAddr
                0x9d051f40                ipv6IsAnycastAddr
                0x9d051fa0                ipv6IsTentativeAddr
                0x9d05201c                ipv6IsLocalHostAddr
                0x9d052114                ipv6CompPrefix
                0x9d0521b4                ipv6AddPrefix
                0x9d05238c                ipv6RemovePrefix
                0x9d052480                ipv6IsOnLink
                0x9d052510                ipv6GetMulticastAddrScope
                0x9d052528                ipv6GetAddrScope
                0x9d0525bc                ipv6GetCommonPrefixLength
                0x9d052660                ipv6SelectSourceAddr
                0x9d0528b0                ipv6ComputeSolicitedNodeAddr
                0x9d05292c                ipv6SetAddr
                0x9d052b08                ipv6AddAddr
                0x9d052cb8                ipv6RemoveAddr
                0x9d052d7c                ipv6FlushAddrList
                0x9d052e14                ipv6MapMulticastAddrToMac
                0x9d052e5c                ipv6GenerateLinkLocalAddr
                0x9d052ef8                ipv6UpdateInStats
                0x9d052f00                ipv6UpdateOutStats

.text           0x9d052f08     0x28c8
 .text          0x9d052f08     0x1484 build/default/production/_ext/476983781/tls_certificate.o
                0x9d052f08                tlsFormatCertificateList
                0x9d05306c                tlsFormatRawPublicKey
                0x9d053078                tlsParseRawPublicKey
                0x9d053080                tlsIsCertificateAcceptable
                0x9d05370c                tlsValidateCertificate
                0x9d053890                tlsGetCertificateType
                0x9d053be4                tlsReadSubjectPublicKey
                0x9d053e60                tlsCheckKeyUsage
                0x9d053f50                tlsParseCertificateList
 .text          0x9d05438c     0x1444 build/default/production/_ext/1079766828/net.o
                0x9d05438c                netInit
                0x9d054528                netSetMacAddr
                0x9d0545a4                netGetMacAddr
                0x9d05461c                netSetEui64
                0x9d054688                netGetEui64
                0x9d0546fc                netSetInterfaceId
                0x9d054748                netSetInterfaceName
                0x9d0547ac                netSetHostname
                0x9d054810                netSetProxy
                0x9d054884                netSetVlanId
                0x9d05488c                netSetVmanId
                0x9d054894                netSetSwitchPort
                0x9d05489c                netSetParentInterface
                0x9d0548a4                netSetDriver
                0x9d0548fc                netSetPhyDriver
                0x9d054954                netSetPhyAddr
                0x9d0549b0                netSetSpiDriver
                0x9d054a08                netSetUartDriver
                0x9d054a60                netSetExtIntDriver
                0x9d054ab8                netGetLinkState
                0x9d054afc                netConfigInterface
                0x9d054c6c                netStartInterface
                0x9d054d48                netTick
                0x9d055018                netTask
                0x9d0551a4                netGetDefaultInterface
                0x9d0551b0                netInitRand
                0x9d0551c4                netGetRand
                0x9d05520c                netGetRandRange
                0x9d055260                netAttachLinkChangeCallback
                0x9d055358                netDetachLinkChangeCallback
                0x9d0553b4                netInvokeLinkChangeCallback
                0x9d055448                netProcessLinkChange
                0x9d0556c4                netSetLinkState
                0x9d055724                netStopInterface

.text           0x9d0557d0     0x262c
 .text          0x9d0557d0     0x13bc build/default/production/_ext/476983781/tls_common.o
                0x9d0557d0                tlsSendChangeCipherSpec
                0x9d0558c0                tlsSendAlert
                0x9d05598c                tlsFormatCertificate
                0x9d055a54                tlsSendCertificate
                0x9d055b38                tlsFormatCertificateVerify
                0x9d055b98                tlsSendCertificateVerify
                0x9d055c80                tlsFormatChangeCipherSpec
                0x9d055c98                tlsFormatFinished
                0x9d055d00                tlsSendFinished
                0x9d055e1c                tlsFormatAlert
                0x9d055e38                tlsFormatSignatureAlgorithmsExtension
                0x9d056024                tlsFormatSignatureAlgorithmsCertExtension
                0x9d05654c                tlsParseCertificate
                0x9d0566e0                tlsParseCertificateVerify
                0x9d0567c4                tlsParseChangeCipherSpec
                0x9d056940                tlsParseFinished
                0x9d056ab4                tlsParseAlert
 .text          0x9d056b8c     0x1270 build/default/production/_ext/476983781/tls_client.o
                0x9d056b8c                tlsFormatClientHello
                0x9d0571f8                tlsSendClientHello
                0x9d057374                tlsFormatClientKeyExchange
                0x9d0573d0                tlsSendClientKeyExchange
                0x9d057454                tlsParseHelloRequest
                0x9d0574a0                tlsParseServerHello
                0x9d057858                tlsParseServerKeyExchange
                0x9d0579ec                tlsParseCertificateRequest
                0x9d057d28                tlsParseServerHelloDone

.text           0x9d057dfc     0x2444
 .text          0x9d057dfc     0x1250 build/default/production/_ext/1079766828/tcp_fsm.o
                0x9d057dfc                tcpStateClosed
                0x9d057e30                tcpStateListen
                0x9d05806c                tcpStateSynSent
                0x9d0582a0                tcpStateEstablished
                0x9d0583dc                tcpStateSynReceived
                0x9d058518                tcpStateCloseWait
                0x9d0585c0                tcpStateLastAck
                0x9d058670                tcpStateFinWait1
                0x9d0587f4                tcpStateFinWait2
                0x9d05892c                tcpStateClosing
                0x9d0589f4                tcpStateTimeWait
                0x9d058abc                tcpProcessSegment
 .text          0x9d05904c     0x11f4 build/default/production/_ext/18976819/web_socket_misc.o
                0x9d05904c                webSocketChangeState
                0x9d059080                webSocketParseStatusLine
                0x9d059104                webSocketParseConnectionField
                0x9d0591f8                webSocketParseHeaderField
                0x9d059360                webSocketFormatClientHandshake
                0x9d0594b8                webSocketFormatServerHandshake
                0x9d059580                webSocketFormatErrorResponse
                0x9d0596e0                webSocketGenerateClientKey
                0x9d059744                webSocketGenerateServerKey
                0x9d0597cc                webSocketVerifyClientKey
                0x9d059838                webSocketVerifyClientHandshake
                0x9d0598b8                webSocketVerifyServerKey
                0x9d059960                webSocketVerifyServerHandshake
                0x9d0599ec                webSocketCheckStatusCode
                0x9d059a28                webSocketDecodePercentEncodedString
                0x9d059b60                webSocketParseRequestLine
                0x9d059cf0                webSocketParseHandshake
                0x9d05a050                webSocketCheckUtf8Stream

.text           0x9d05a240     0x2354
 .text          0x9d05a240     0x11f0 build/default/production/_ext/18976819/web_socket.o
                0x9d05a240                webSocketInit
                0x9d05a26c                webSocketRegisterRandCallback
                0x9d05a288                webSocketOpen
                0x9d05a32c                webSocketUpgradeSocket
                0x9d05a370                webSocketUpgradeSecureSocket
                0x9d05a3c0                webSocketRegisterTlsInitCallback
                0x9d05a3ec                webSocketSetTimeout
                0x9d05a438                webSocketSetHost
                0x9d05a47c                webSocketSetOrigin
                0x9d05a4c0                webSocketSetSubProtocol
                0x9d05a504                webSocketSetAuthInfo
                0x9d05a50c                webSocketBindToInterface
                0x9d05a528                webSocketConnect
                0x9d05a7d4                webSocketSetClientKey
                0x9d05a8a4                webSocketParseClientHandshake
                0x9d05a9b8                webSocketSendServerHandshake
                0x9d05aa74                webSocketSendErrorResponse
                0x9d05ab58                webSocketSendEx
                0x9d05adb8                webSocketSend
                0x9d05ade4                webSocketReceiveEx
                0x9d05b21c                webSocketReceive
                0x9d05b24c                webSocketIsRxReady
                0x9d05b26c                webSocketShutdown
                0x9d05b3f0                webSocketClose
 .text          0x9d05b430     0x1164 build/default/production/_ext/1079466919/mqtt_client.o
                0x9d05b430                mqttClientInit
                0x9d05b4ac                mqttClientInitCallbacks
                0x9d05b4cc                mqttClientRegisterCallbacks
                0x9d05b528                mqttClientSetVersion
                0x9d05b544                mqttClientSetTransportProtocol
                0x9d05b560                mqttClientRegisterTlsInitCallback
                0x9d05b58c                mqttClientRegisterPublishCallback
                0x9d05b5a8                mqttClientSetTimeout
                0x9d05b5c4                mqttClientSetKeepAlive
                0x9d05b5e0                mqttClientSetHost
                0x9d05b648                mqttClientSetUri
                0x9d05b6b0                mqttClientSetIdentifier
                0x9d05b718                mqttClientSetAuthInfo
                0x9d05b7b8                mqttClientSetWillMessage
                0x9d05b880                mqttClientBindToInterface
                0x9d05b89c                mqttClientConnect
                0x9d05bb3c                mqttClientPublish
                0x9d05bd54                mqttClientSubscribe
                0x9d05bf1c                mqttClientUnsubscribe
                0x9d05c19c                mqttClientPing
                0x9d05c354                mqttClientTask
                0x9d05c384                mqttClientDisconnect
                0x9d05c510                mqttClientClose
                0x9d05c550                mqttClientDeinit

.text           0x9d05c594     0x2260
 .text          0x9d05c594     0x1138 build/default/production/_ext/1679150795/nmasic.o
                0x9d05c594                chip_idle
                0x9d05c5d8                enable_interrupts
                0x9d05c660                cpu_start
                0x9d05c79c                nmi_get_chipid
                0x9d05c880                nmi_get_rfrevid
                0x9d05c8ac                restore_pmu_settings_after_global_reset
                0x9d05c8d0                nmi_update_pll
                0x9d05c914                nmi_set_sys_clk_src_to_xo
                0x9d05c944                chip_sleep
                0x9d05c9f0                chip_wake
                0x9d05cb9c                chip_reset
                0x9d05cbe0                firmware_download
                0x9d05ce34                wait_for_firmware_start
                0x9d05d028                chip_deinit
                0x9d05d258                set_gpio_dir
                0x9d05d2dc                set_gpio_val
                0x9d05d360                get_gpio_val
                0x9d05d3b0                pullup_ctrl
                0x9d05d4e0                nmi_get_otp_mac_address
                0x9d05d638                nmi_get_mac_address
                0x9d05d694                is_valid_gpio
 .text          0x9d05d6cc     0x1128 build/default/production/_ext/986256546/queue.o
                0x9d05d944                xQueueGenericReset
                0x9d05da04                xQueueGenericCreate
                0x9d05da98                xQueueCreateCountingSemaphore
                0x9d05dacc                xQueueGenericSend
                0x9d05dcd8                xQueueCreateMutex
                0x9d05dd30                xQueueGiveMutexRecursive
                0x9d05dd98                xQueueGenericSendFromISR
                0x9d05de88                xQueueGiveFromISR
                0x9d05df48                xQueueReceive
                0x9d05e108                xQueueSemaphoreTake
                0x9d05e334                xQueueTakeMutexRecursive
                0x9d05e3a8                xQueuePeek
                0x9d05e560                xQueueReceiveFromISR
                0x9d05e640                xQueuePeekFromISR
                0x9d05e6b4                uxQueueMessagesWaiting
                0x9d05e6e8                uxQueueSpacesAvailable
                0x9d05e720                uxQueueMessagesWaitingFromISR
                0x9d05e72c                vQueueDelete
                0x9d05e748                xQueueIsQueueEmptyFromISR
                0x9d05e754                xQueueIsQueueFullFromISR
                0x9d05e768                vQueueWaitForMessageRestricted

.text           0x9d05e7f4     0x20ec
 .text          0x9d05e7f4     0x10b4 build/default/production/_ext/476983781/tls_signature.o
                0x9d05e7f4                tlsSelectSignatureScheme
                0x9d05eb94                tlsGenerateRsaSignature
                0x9d05ed00                tlsVerifyRsaSignature
                0x9d05ee98                tlsGenerateDsaSignature
                0x9d05eea0                tlsVerifyDsaSignature
                0x9d05eea8                tlsGenerateEcdsaSignature
                0x9d05efb4                tlsGenerateSignature
                0x9d05f130                tls12GenerateSignature
                0x9d05f3c0                tlsVerifyEcdsaSignature
                0x9d05f450                tlsVerifySignature
                0x9d05f5b4                tls12VerifySignature
                0x9d05f898                tlsGenerateEddsaSignature
                0x9d05f8a0                tlsVerifyEddsaSignature
 .text          0x9d05f8a8     0x1038 build/default/production/_ext/1079744218/dhcp_server.o
                0x9d05f8a8                dhcpServerGetDefaultSettings
                0x9d05f8fc                dhcpServerInit
                0x9d05fa18                dhcpServerDeinit
                0x9d05fa74                dhcpServerStart
                0x9d05fae4                dhcpServerStop
                0x9d05fb50                dhcpServerTick
                0x9d05fc30                dhcpServerSendReply
                0x9d05ff64                dhcpServerParseInform
                0x9d05ff9c                dhcpServerCreateBinding
                0x9d06007c                dhcpServerFindBindingByMacAddr
                0x9d060110                dhcpServerParseDecline
                0x9d0601a0                dhcpServerParseRelease
                0x9d0601e4                dhcpServerFindBindingByIpAddr
                0x9d060264                dhcpServerParseRequest
                0x9d060468                dhcpServerGetNextIpAddr
                0x9d060528                dhcpServerParseDiscover
                0x9d060758                dhcpServerProcessMessage

.text           0x9d0608e0     0x1ef0
 .text          0x9d0608e0      0xf7c build/default/production/_ext/476983781/tls13_misc.o
                0x9d0608e0                tls13GenerateSignature
                0x9d060d38                tls13VerifySignature
                0x9d06115c                tls13DigestClientHello1
                0x9d06120c                tls13IsPskValid
                0x9d061268                tls13IsTicketValid
                0x9d0612c4                tls13ComputePskBinder
                0x9d061524                tls13IsEcdheGroupSupported
                0x9d061568                tls13GenerateKeyShare
                0x9d0615e8                tls13GenerateSharedSecret
                0x9d061694                tls13IsGroupSupported
                0x9d0616b4                tls13IsFfdheGroupSupported
                0x9d0616bc                tls13CheckDuplicateKeyShare
                0x9d061798                tls13FormatCertExtensions
                0x9d0617b0                tls13ParseCertExtensions
 .text          0x9d06185c      0xf74 build/default/production/_ext/1079587046/ipv4.o
                0x9d06185c                ipv4Init
                0x9d0618fc                ipv4SetHostAddrEx
                0x9d06197c                ipv4SetHostAddr
                0x9d06199c                ipv4GetHostAddrEx
                0x9d061a1c                ipv4GetHostAddr
                0x9d061a3c                ipv4SetSubnetMaskEx
                0x9d061a94                ipv4SetSubnetMask
                0x9d061ab4                ipv4GetSubnetMaskEx
                0x9d061b28                ipv4GetSubnetMask
                0x9d061b48                ipv4SetDefaultGatewayEx
                0x9d061bb0                ipv4SetDefaultGateway
                0x9d061bd0                ipv4GetDefaultGatewayEx
                0x9d061c44                ipv4GetDefaultGateway
                0x9d061c64                ipv4SetDnsServer
                0x9d061ce8                ipv4GetDnsServer
                0x9d061d74                ipv4LinkChangeEvent
                0x9d061dbc                ipv4ProcessDatagram
                0x9d061f38                ipv4ProcessPacket
                0x9d0620e4                ipv4SendPacket
                0x9d062400                ipv4SendDatagram
                0x9d0624c0                ipv4JoinMulticastGroup
                0x9d0625cc                ipv4LeaveMulticastGroup
                0x9d062698                ipv4StringToAddr
                0x9d06276c                ipv4AddrToString
                0x9d0627c8                ipv4DumpHeader

.text           0x9d0627d0     0x1d74
 .text          0x9d0627d0      0xebc build/default/production/_ext/1679150795/m2m_hif.o
                0x9d062838                hif_chip_wake
                0x9d06289c                hif_set_sleep_mode
                0x9d0628a8                hif_get_sleep_mode
                0x9d0628b4                hif_chip_sleep_sc
                0x9d0628dc                hif_chip_sleep
                0x9d062938                hif_deinit
                0x9d062954                hif_send
                0x9d062c30                hif_send_optimized
                0x9d062e34                hif_handle_isr
                0x9d063368                hif_receive
                0x9d0634f4                hif_register_cb
                0x9d0635a0                hif_init
                0x9d063600                hif_set_receive_buffer
 .text          0x9d06368c      0xeb8 build/default/production/_ext/1079612995/http_server.o
                0x9d06368c                httpListenerTask
                0x9d0637d4                httpServerGetDefaultSettings
                0x9d063840                httpServerInit
                0x9d0639f8                httpServerStart
                0x9d063b20                httpWriteHeader
                0x9d063ba0                httpReadStream
                0x9d063d58                httpWriteStream
                0x9d063e34                httpCloseStream
                0x9d063e80                httpSendResponse
                0x9d063f38                httpSendErrorResponse
                0x9d06404c                httpConnectionTask
                0x9d06441c                httpSendRedirectResponse
                0x9d064534                httpCheckWebSocketHandshake
                0x9d06453c                httpUpgradeToWebSocket

.text           0x9d064544     0x1cb8
 .text          0x9d064544      0xe84 build/default/production/_ext/476983781/tls_client_misc.o
                0x9d064544                tlsFormatInitialClientHello
                0x9d0645c0                tlsFormatSessionId
                0x9d064630                tlsFormatCipherSuites
                0x9d06481c                tlsFormatCompressMethods
                0x9d064838                tlsFormatPskIdentity
                0x9d064884                tlsFormatClientKeyParams
                0x9d064a28                tlsParsePskIdentityHint
                0x9d064ab0                tlsParseServerKeyParams
                0x9d064c0c                tlsVerifyServerKeySignature
                0x9d064e60                tls12VerifyServerKeySignature
                0x9d0651b0                tlsSelectClientVersion
                0x9d065340                tlsResumeClientSession
 .text          0x9d0653c8      0xe34 build/default/production/_ext/1079587046/arp.o
                0x9d0653c8                arpInit
                0x9d0653f0                arpFindEntry
                0x9d065428                arpSendQueuedPackets
                0x9d0654ec                arpFlushQueuedPackets
                0x9d065548                arpFlushCache
                0x9d06559c                arpCreateEntry
                0x9d065664                arpEnqueuePacket
                0x9d065768                arpProcessReply
                0x9d065914                arpSendProbe
                0x9d065a58                arpSendRequest
                0x9d065bbc                arpResolve
                0x9d065cd4                arpTick
                0x9d065e9c                arpSendReply
                0x9d065fec                arpProcessRequest
                0x9d0660ac                arpProcessPacket
                0x9d0661f4                arpDumpPacket

.text           0x9d0661fc     0x1be4
 .text          0x9d0661fc      0xdfc build/default/production/_ext/1079766828/socket.o
                0x9d0661fc                socketInit
                0x9d0662b0                socketOpen
                0x9d066414                socketSetTimeout
                0x9d066460                socketSetTxBufferSize
                0x9d0664d4                socketSetRxBufferSize
                0x9d066548                socketSetInterface
                0x9d066564                socketGetInterface
                0x9d06657c                socketBind
                0x9d0665e4                socketConnect
                0x9d0666e0                socketListen
                0x9d06674c                socketAccept
                0x9d06678c                socketSendTo
                0x9d066870                socketSend
                0x9d0668ac                socketReceiveEx
                0x9d066a00                socketReceive
                0x9d066a38                socketReceiveFrom
                0x9d066a70                socketGetLocalAddr
                0x9d066ad0                socketGetRemoteAddr
                0x9d066b30                socketShutdown
                0x9d066ba8                socketClose
                0x9d066c34                socketRegisterEvents
                0x9d066ccc                socketUnregisterEvents
                0x9d066d04                socketGetEvents
                0x9d066d4c                socketPoll
                0x9d066e94                getHostByName
 .text          0x9d066ff8      0xde8 build/default/production/_ext/476983781/tls_key_material.o
                0x9d066ff8                tlsGeneratePskPremasterSecret
                0x9d067000                tlsPrf
                0x9d067444                tls12Prf
                0x9d0675dc                tlsGenerateMasterSecret
                0x9d06774c                tlsGenerateExtendedMasterSecret
                0x9d0678ac                tlsGenerateKeyBlock
                0x9d067a14                tlsGenerateSessionKeys
                0x9d067ab8                tlsExportKeyingMaterial
                0x9d067dd8                tlsDumpSecret

.text           0x9d067de0     0x1b8c
 .text          0x9d067de0      0xdd0 build/default/production/_ext/1079612995/http_server_misc.o
                0x9d067de0                httpParseConnectionField
                0x9d067ea4                httpParseHeaderField
                0x9d067fd8                httpParseContentTypeField
                0x9d067fe0                httpParseAcceptEncodingField
                0x9d067fe8                httpParseCookieField
                0x9d067ff0                httpInitResponseHeader
                0x9d068044                httpFormatResponseHeader
                0x9d06829c                httpSend
                0x9d0682c0                httpReceive
                0x9d0682e4                httpReadHeaderField
                0x9d068478                httpReadChunkSize
                0x9d0685d0                httpGetAbsolutePath
                0x9d068630                httpCompExtension
                0x9d068698                httpDecodePercentEncodedString
                0x9d0687d0                httpParseRequestLine
                0x9d068988                httpReadRequestHeader
                0x9d068b50                httpConvertArrayToHexString
 .text          0x9d068bb0      0xdbc build/default/production/_ext/120521611/md5.o
                0x9d068bb0                md5Init
                0x9d068bf8                md5FinalRaw
                0x9d068c3c                md5ProcessBlock
                0x9d06974c                md5Update
                0x9d06980c                md5Final
                0x9d0698e8                md5Compute

.text           0x9d06996c     0x1b4c
 .text          0x9d06996c      0xda8 build/default/production/_ext/1079766828/tcp.o
                0x9d06996c                tcpInit
                0x9d069978                tcpGetDynamicPort
                0x9d0699e0                tcpConnect
                0x9d069b90                tcpListen
                0x9d069bd8                tcpSend
                0x9d069d8c                tcpReceive
                0x9d06a024                tcpShutdown
                0x9d06a294                tcpAbort
                0x9d06a368                tcpGetState
                0x9d06a3a0                tcpAccept
                0x9d06a678                tcpKillOldestConnection
 .text          0x9d06a714      0xda4 build/default/production/_ext/476983781/tls_misc.o
                0x9d06a714                tlsProcessError
                0x9d06a9ec                tlsGenerateRandomValue
                0x9d06aae4                tlsSelectVersion
                0x9d06ab14                tlsSelectCipherSuite
                0x9d06acc4                tlsInitEncryptionEngine
                0x9d06af94                tlsFreeEncryptionEngine
                0x9d06b004                tlsWriteMpi
                0x9d06b078                tlsReadMpi
                0x9d06b0ec                tlsWriteEcPoint
                0x9d06b13c                tlsReadEcPoint
                0x9d06b1a4                tlsGetVersionName
                0x9d06b23c                tlsGetHashAlgo
                0x9d06b2a8                tlsGetCurveInfo
                0x9d06b360                tlsGetNamedCurve
                0x9d06b3b0                tlsComputeEncryptionOverhead
                0x9d06b444                tlsCheckDnsHostname

.text           0x9d06b4b8     0x1a38
 .text          0x9d06b4b8      0xd5c build/default/production/_ext/1079766828/udp.o
                0x9d06b4b8                udpInit
                0x9d06b4fc                udpGetDynamicPort
                0x9d06b564                udpSendDatagramEx
                0x9d06b804                udpAllocBuffer
                0x9d06b840                udpSendDatagram
                0x9d06b938                udpUpdateEvents
                0x9d06b9c8                udpReceiveDatagram
                0x9d06bb28                udpAttachRxCallback
                0x9d06bc08                udpDetachRxCallback
                0x9d06bc98                udpInvokeRxCallback
                0x9d06bde8                udpProcessDatagram
                0x9d06c20c                udpDumpHeader
 .text          0x9d06c214      0xcdc build/default/production/_ext/273204030/curve25519.o
                0x9d06c214                curve25519SetInt
                0x9d06c238                curve25519Copy
                0x9d06c25c                curve25519Swap
                0x9d06c2a4                curve25519Select
                0x9d06c2e0                curve25519Red
                0x9d06c34c                curve25519Add
                0x9d06c3b4                curve25519AddInt
                0x9d06c408                curve25519Sub
                0x9d06c484                curve25519SubInt
                0x9d06c4f8                curve25519Mul
                0x9d06c76c                curve25519Sqr
                0x9d06c788                curve25519Pwr2
                0x9d06c7e4                curve25519Inv
                0x9d06c9e0                curve25519MulInt
                0x9d06cadc                curve25519Comp
                0x9d06cb10                curve25519Sqrt
                0x9d06cde8                curve25519Import
                0x9d06ce6c                curve25519Export

.text           0x9d06cef0      0xcc4
 .text          0x9d06cef0      0xcc4 build/default/production/_ext/476983781/tls_record_decryption.o
                0x9d06cef0                tlsDecryptAeadRecord
                0x9d06d1a8                tlsDecryptStreamRecord
                0x9d06d1b0                tlsVerifyMessageAuthCode
                0x9d06d334                tlsVerifyPadding
                0x9d06d3cc                tlsVerifyMac
                0x9d06d730                tlsExtractMac
                0x9d06d900                tlsDecryptCbcRecord
                0x9d06db6c                tlsDecryptRecord

.text._vfprintf_cdnopsuxX
                0x9d06dbb4      0xc8c
 .text._vfprintf_cdnopsuxX
                0x9d06dbb4      0xc8c /home/programs/XC32/v2.30/bin/bin/../../lib/gcc/pic32mx/4.8.3/../../../../pic32mx/lib/fpu64/libc.a(doprnt_cdnopsuxX.eo)
                0x9d06dbb4                _vfprintf_0
                0x9d06dbb4                _vfprintf_cdnopsuxX
                0x9d06dbb4                _vfprintf_cdnopuxX
                0x9d06dbb4                _vfprintf_s

.text           0x9d06e840     0x18cc
 .text          0x9d06e840      0xc78 build/default/production/_ext/476983781/tls_extensions.o
                0x9d06e840                tlsCheckHelloExtensions
                0x9d06ebe4                tlsCheckDuplicateExtension
                0x9d06ecd4                tlsParseHelloExtensions
                0x9d06f4b0                tlsIsAlpnProtocolSupported
 .text          0x9d06f4b8      0xc54 build/default/production/_ext/1640134129/m2m_wifi_ex.o
                0x9d06f4b8                os_m2m_wifi_init
                0x9d06f4f8                os_m2m_wifi_deinit
                0x9d06f538                os_m2m_wifi_handle_events
                0x9d06f578                os_m2m_wifi_connect
                0x9d06f5f0                os_m2m_wifi_disconnect
                0x9d06f62c                os_m2m_wifi_get_connection_info
                0x9d06f668                os_m2m_wifi_set_mac_address
                0x9d06f6b8                os_m2m_wifi_wps
                0x9d06f708                os_m2m_wifi_wps_disable
                0x9d06f744                os_m2m_wifi_p2p
                0x9d06f7a4                os_m2m_wifi_p2p_disconnect
                0x9d06f7e0                os_m2m_wifi_enable_ap
                0x9d06f820                os_m2m_wifi_disable_ap
                0x9d06f85c                os_m2m_wifi_ap_get_assoc_info
                0x9d06f898                os_m2m_wifi_ap_add_black_list
                0x9d06f8e8                os_m2m_wifi_set_scan_options
                0x9d06f938                os_m2m_wifi_set_scan_region
                0x9d06f978                os_m2m_wifi_set_scan_list
                0x9d06f9b8                os_m2m_wifi_request_scan
                0x9d06f9f8                os_m2m_wifi_request_scan_ssid
                0x9d06fa48                os_m2m_wifi_get_num_ap_found
                0x9d06fa84                os_m2m_wifi_req_scan_result
                0x9d06fac4                os_m2m_wifi_req_curr_rssi
                0x9d06fb00                os_m2m_wifi_get_otp_mac_address
                0x9d06fb50                os_m2m_wifi_get_mac_address
                0x9d06fba0                os_m2m_wifi_set_sleep_mode
                0x9d06fbf0                os_m2m_wifi_get_sleep_mode
                0x9d06fc2c                os_m2m_wifi_set_device_name
                0x9d06fc7c                os_m2m_wifi_set_p2p_pin
                0x9d06fccc                os_m2m_wifi_allow_p2p_connection
                0x9d06fd08                os_m2m_wifi_set_lsn_int
                0x9d06fd48                os_m2m_wifi_enable_monitoring_mode
                0x9d06fd88                os_m2m_wifi_disable_monitoring_mode
                0x9d06fdc4                os_m2m_wifi_change_monitoring_channel
                0x9d06fe04                os_m2m_wifi_send_wlan_pkt
                0x9d06fe64                os_m2m_wifi_send_ethernet_pkt
                0x9d06fec4                os_m2m_wifi_set_cust_InfoElement
                0x9d06ff04                os_m2m_wifi_enable_mac_mcast
                0x9d06ff54                os_m2m_wifi_enable_mcast_filter
                0x9d06ff90                os_m2m_wifi_disable_mcast_filter
                0x9d06ffcc                os_m2m_wifi_set_receive_buffer
                0x9d07001c                os_m2m_wifi_set_tx_power
                0x9d07005c                os_m2m_wifi_set_max_tx_rate
                0x9d07009c                os_m2m_wifi_set_antenna_mode

.text           0x9d07010c     0x17f8
 .text          0x9d07010c      0xc30 build/default/production/_ext/120273967/pkcs8_key_parse.o
                0x9d07010c                pkcs8ParsePrivateKeyAlgo
                0x9d070238                pkcs8ParseRsaPrivateKey
                0x9d07051c                pkcs8ParseDsaPrivateKey
                0x9d070710                pkcs8ParseEcPrivateKey
                0x9d070838                pkcs8ParsePrivateKeyInfo
                0x9d0709e8                pkcs8ParseEddsaPrivateKey
                0x9d070a24                pkcs8ImportRsaPrivateKey
                0x9d070be0                pkcs8ImportDsaPrivateKey
                0x9d070cc4                pkcs8ImportEcPrivateKey
                0x9d070d34                pkcs8ImportEddsaPrivateKey
 .text          0x9d070d3c      0xbc8 build/default/production/_ext/476983781/tls_record.o
                0x9d070d3c                tlsWriteRecord
                0x9d070ed8                tlsWriteProtocolData
                0x9d071000                tlsProcessRecord
                0x9d0711a8                tlsReadRecord
                0x9d0714c4                tlsReadProtocolData
                0x9d0716e4                tlsSetRecordType
                0x9d0716ec                tlsGetRecordType
                0x9d0716f4                tlsSetRecordLength
                0x9d071728                tlsGetRecordLength
                0x9d071750                tlsGetRecordData
                0x9d071758                tlsFormatAad
                0x9d0717d8                tlsFormatNonce
                0x9d0718c0                tlsIncSequenceNumber

.text           0x9d071904     0x16c4
 .text          0x9d071904      0xb84 build/default/production/_ext/120273967/x509_key_parse.o
                0x9d071904                x509ParseRsaPublicKey
                0x9d0719e0                x509ParseRsaPssHashAlgo
                0x9d071a40                x509ParseRsaPssMaskGenHashAlgo
                0x9d071aa0                x509ParseRsaPssMaskGenAlgo
                0x9d071b2c                x509ParseRsaPssSaltLength
                0x9d071b78                x509ParseRsaPssParameters
                0x9d071ce0                x509ParseDsaPublicKey
                0x9d071d44                x509ParseDsaParameters
                0x9d071e70                x509ParseEcPublicKey
                0x9d071e8c                x509ParseEcParameters
                0x9d071ec8                x509ParseAlgorithmIdentifier
                0x9d071ff4                x509ParseSubjectPublicKeyInfo
                0x9d0721c0                x509ImportRsaPublicKey
                0x9d07228c                x509ImportDsaPublicKey
                0x9d072370                x509ImportEcPublicKey
                0x9d07243c                x509ImportEcParameters
                0x9d072480                x509ImportEddsaPublicKey
 .text          0x9d072488      0xb40 build/default/production/_ext/120726866/gcm.o
                0x9d072488                gcmInit
                0x9d072718                gcmMul
                0x9d072890                gcmXorBlock
                0x9d0728bc                gcmIncCounter
                0x9d072900                gcmEncrypt
                0x9d072c48                gcmDecrypt

.text           0x9d072fc8     0x15e8
 .text          0x9d072fc8      0xb38 build/default/production/_ext/1079587044/ndp_router_adv.o
                0x9d072fc8                ndpRouterAdvGetDefaultSettings
                0x9d07304c                ndpRouterAdvInit
                0x9d073124                ndpRouterAdvStart
                0x9d0731e0                ndpRouterAdvLinkChangeEvent
                0x9d073244                ndpProcessRouterSol
                0x9d0734cc                ndpSendRouterAdv
                0x9d0739b0                ndpRouterAdvStop
                0x9d073a48                ndpRouterAdvTick
 .text          0x9d073b00      0xab0 build/default/production/_ext/1079612995/ssi.o
                0x9d073b00                ssiProcessEchoCommand
                0x9d073e08                ssiProcessExecCommand
                0x9d073f7c                ssiSearchTag
                0x9d07403c                ssiExecuteScript
                0x9d074228                ssiProcessIncludeCommand
                0x9d0744a0                ssiProcessCommand

.text           0x9d0745b0     0x1544
 .text          0x9d0745b0      0xaa4 build/default/production/_ext/1079587044/ndp_misc.o
                0x9d0745b0                ndpParsePrefixInfoOption
                0x9d0746e8                ndpUpdateAddrList
                0x9d074920                ndpUpdatePrefixList
                0x9d0749a8                ndpUpdateDefaultRouterList
                0x9d074a68                ndpSelectDefaultRouter
                0x9d074c14                ndpIsFirstHopRouter
                0x9d074cac                ndpSelectNextHop
                0x9d074df8                ndpUpdateNextHop
                0x9d074ee4                ndpAddOption
                0x9d074f8c                ndpGetOption
                0x9d074ff0                ndpCheckOptions
 .text          0x9d075054      0xaa0 build/default/production/_ext/1079587044/slaac.o
                0x9d075054                slaacGetDefaultSettings
                0x9d075088                slaacInit
                0x9d07513c                slaacStop
                0x9d0751a8                slaacParsePrefixInfoOption
                0x9d075520                slaacGenerateLinkLocalAddr
                0x9d0755c0                slaacStart
                0x9d07566c                slaacLinkChangeEvent
                0x9d0756fc                slaacDumpConfig
                0x9d075968                slaacParseRouterAdv

.text           0x9d075af4      0xa9c
 .text          0x9d075af4      0xa9c build/default/production/_ext/7005106/aes.o
                0x9d075af4                aesInit
                0x9d075d80                aesEncryptBlock
                0x9d076188                aesDecryptBlock

.rodata         0x9d076590     0x1454
 .rodata        0x9d076590      0xa54 build/default/production/_ext/7005106/aes.o
                0x9d076594                aesCipherAlgo
 .rodata        0x9d076fe4      0xa00 build/default/production/_ext/273204030/ec_curves.o
                0x9d076ff0                x25519Curve
                0x9d0771c4                secp521r1Curve
                0x9d077398                secp384r1Curve
                0x9d07756c                secp256r1Curve
                0x9d077740                secp224r1Curve
                0x9d077908                ED448_OID
                0x9d07790c                ED25519_OID
                0x9d077910                X448_OID
                0x9d077914                X25519_OID
                0x9d077918                BRAINPOOLP512R1_OID
                0x9d077924                BRAINPOOLP384R1_OID
                0x9d077930                BRAINPOOLP320R1_OID
                0x9d07793c                BRAINPOOLP256R1_OID
                0x9d077948                BRAINPOOLP224R1_OID
                0x9d077954                BRAINPOOLP192R1_OID
                0x9d077960                BRAINPOOLP160R1_OID
                0x9d07796c                SECP521R1_OID
                0x9d077974                SECP384R1_OID
                0x9d07797c                SECP256R1_OID
                0x9d077984                SECP256K1_OID
                0x9d07798c                SECP224R1_OID
                0x9d077994                SECP224K1_OID
                0x9d07799c                SECP192R1_OID
                0x9d0779a4                SECP192K1_OID
                0x9d0779ac                SECP160R2_OID
                0x9d0779b4                SECP160R1_OID
                0x9d0779bc                SECP160K1_OID
                0x9d0779c4                SECP128R2_OID
                0x9d0779cc                SECP128R1_OID
                0x9d0779d4                SECP112R2_OID
                0x9d0779dc                SECP112R1_OID

.text           0x9d0779e4     0x13e4
 .text          0x9d0779e4      0x9f8 build/default/production/_ext/242264404/dns_client.o
                0x9d0779e4                dnsProcessResponse
                0x9d077e90                dnsSendQuery
                0x9d0780e4                dnsResolve
 .text          0x9d0783dc      0x9ec build/default/production/_ext/273204030/ecdsa.o
                0x9d0783dc                ecdsaInitSignature
                0x9d078408                ecdsaFreeSignature
                0x9d078434                ecdsaWriteSignature
                0x9d078680                ecdsaReadSignature
                0x9d0787e0                ecdsaGenerateKeyPair
                0x9d0788d8                ecdsaGenerateSignature
                0x9d078b3c                ecdsaVerifySignature

.text           0x9d078dc8     0x1374
 .text          0x9d078dc8      0x9d8 build/default/production/_ext/476983781/tls13_key_material.o
                0x9d078dc8                tls13HkdfExpandLabel
                0x9d078f5c                tls13DeriveSecret
                0x9d07902c                tls13GenerateEarlyTrafficKeys
                0x9d079190                tls13GenerateHandshakeTrafficKeys
                0x9d079414                tls13GenerateServerAppTrafficKeys
                0x9d079678                tls13GenerateClientAppTrafficKeys
 .text          0x9d0797a0      0x99c build/default/production/_ext/1079587044/ipv6_frag.o
                0x9d0797a0                ipv6FragmentDatagram
                0x9d079938                ipv6FlushFragQueue
                0x9d079988                ipv6FindHole
                0x9d0799ac                ipv6FragTick
                0x9d079aa8                ipv6SearchFragQueue
                0x9d079c58                ipv6ParseFragmentHeader
                0x9d07a134                ipv6DumpHoleList

.text           0x9d07a13c     0x128c
 .text          0x9d07a13c      0x964 build/default/production/_ext/273214849/dsa.o
                0x9d07a13c                dsaInitPublicKey
                0x9d07a178                dsaFreePublicKey
                0x9d07a1b4                dsaInitPrivateKey
                0x9d07a1f0                dsaFreePrivateKey
                0x9d07a22c                dsaInitSignature
                0x9d07a258                dsaFreeSignature
                0x9d07a284                dsaWriteSignature
                0x9d07a4d0                dsaReadSignature
                0x9d07a630                dsaGenerateSignature
                0x9d07a850                dsaVerifySignature
 .text          0x9d07aaa0      0x928 build/default/production/_ext/273211656/poly1305.o
                0x9d07aaa0                poly1305Init
                0x9d07ac78                poly1305ProcessBlock
                0x9d07b134                poly1305Update
                0x9d07b1d8                poly1305Final

.text           0x9d07b3c8     0x11e8
 .text          0x9d07b3c8      0x8f8 build/default/production/_ext/1079587044/mld.o
                0x9d07b3c8                mldInit
                0x9d07b3d0                mldProcessListenerReport
                0x9d07b4d4                mldSendListenerReport
                0x9d07b68c                mldStartListening
                0x9d07b720                mldTick
                0x9d07b7cc                mldLinkChangeEvent
                0x9d07b8b8                mldSendListenerDone
                0x9d07ba78                mldStopListening
                0x9d07babc                mldRand
                0x9d07baf0                mldProcessListenerQuery
                0x9d07bcb8                mldDumpMessage
 .text          0x9d07bcc0      0x8f0 build/default/production/_ext/120521611/sha512.o
                0x9d07bcc0                sha512Init
                0x9d07bd98                sha512ProcessBlock
                0x9d07c328                sha512Update
                0x9d07c3e8                sha512Final
                0x9d07c52c                sha512Compute

.text           0x9d07c5b0     0x1184
 .text          0x9d07c5b0      0x8d4 build/default/production/_ext/37329846/pic32mz_eth_driver.o
                0x9d07c5b0                pic32mzEthTick
                0x9d07c5d4                pic32mzEthEnableIrq
                0x9d07c604                pic32mzEthDisableIrq
                0x9d07c634                pic32mzEthUpdateMacConfig
                0x9d07c6ac                pic32mzEthWritePhyReg
                0x9d07c6f8                pic32mzEthReadPhyReg
                0x9d07c75c                pic32mzEthSendPacket
                0x9d07c84c                pic32mzEthInitGpio
                0x9d07c884                pic32mzEthInitBufferDesc
                0x9d07c950                pic32mzEthInit
                0x9d07cb70                pic32mzEthIrqHandler
                0x9d07cc2c                pic32mzEthReceivePacket
                0x9d07cd04                pic32mzEthEventHandler
                0x9d07cd6c                pic32mzEthCalcCrc
                0x9d07cdd4                pic32mzEthUpdateMacAddrFilter
 .text          0x9d07ce84      0x8b0 build/default/production/_ext/1079587046/ipv4_frag.o
                0x9d07ce84                ipv4FragmentDatagram
                0x9d07d010                ipv4FlushFragQueue
                0x9d07d060                ipv4FindHole
                0x9d07d084                ipv4FragTick
                0x9d07d180                ipv4SearchFragQueue
                0x9d07d320                ipv4ReassembleDatagram
                0x9d07d72c                ipv4DumpHoleList

.text           0x9d07d734     0x1144
 .text          0x9d07d734      0x8a4 build/default/production/_ext/1079766828/net_mem.o
                0x9d07d734                memPoolInit
                0x9d07d73c                memPoolAlloc
                0x9d07d794                memPoolFree
                0x9d07d7b0                memPoolGetStats
                0x9d07d7d0                netBufferGetLength
                0x9d07d804                netBufferSetLength
                0x9d07d9b8                netBufferFree
                0x9d07d9e8                netBufferAlloc
                0x9d07da70                netBufferAt
                0x9d07dae0                netBufferConcat
                0x9d07dbe0                netBufferCopy
                0x9d07ddc8                netBufferAppend
                0x9d07de04                netBufferWrite
                0x9d07deec                netBufferRead
 .text          0x9d07dfd8      0x8a0 build/default/production/_ext/1079587044/icmpv6.o
                0x9d07dfd8                icmpv6EnableMulticastEchoRequest
                0x9d07e024                icmpv6ProcessDestUnreachable
                0x9d07e074                icmpv6ProcessPacketTooBig
                0x9d07e128                icmpv6ProcessEchoRequest
                0x9d07e34c                icmpv6ProcessMessage
                0x9d07e5d8                icmpv6SendErrorMessage
                0x9d07e850                icmpv6DumpMessage
                0x9d07e858                icmpv6DumpDestUnreachableMessage
                0x9d07e860                icmpv6DumpPacketTooBigMessage
                0x9d07e868                icmpv6DumpEchoMessage
                0x9d07e870                icmpv6DumpErrorMessage

.text           0x9d07e878     0x10dc
 .text          0x9d07e878      0x874 build/default/production/_ext/7005106/chacha.o
                0x9d07e878                chachaInit
                0x9d07ed24                chachaProcessBlock
                0x9d07efc8                chachaCipher
 .text          0x9d07f0ec      0x868 build/default/production/_ext/1404394810/asn1.o
                0x9d07f0ec                asn1ReadTag
                0x9d07f26c                asn1WriteTag
                0x9d07f4c8                asn1WriteInt32
                0x9d07f55c                asn1WriteMpi
                0x9d07f62c                asn1CheckTag
                0x9d07f65c                asn1ReadSequence
                0x9d07f698                asn1ReadOctetString
                0x9d07f6d4                asn1ReadOid
                0x9d07f710                asn1ReadBoolean
                0x9d07f78c                asn1ReadInt32
                0x9d07f850                asn1ReadMpi
                0x9d07f8d8                asn1CheckOid
                0x9d07f94c                asn1DumpObject

.text           0x9d07f954     0x1048
 .text          0x9d07f954      0x84c build/default/production/_ext/1079766828/ethernet.o
                0x9d07f954                ethInit
                0x9d07f97c                ethProcessFrame
                0x9d07fb1c                ethSendFrame
                0x9d07fca8                ethAcceptMacAddr
                0x9d07fd88                ethDropMacAddr
                0x9d07fe58                ethAllocBuffer
                0x9d07fe8c                macStringToAddr
                0x9d07ff7c                macAddrToString
                0x9d07ffe4                macAddrToEui64
                0x9d080030                ethDumpHeader
                0x9d080038                eui64StringToAddr
                0x9d080128                eui64AddrToString
 .text          0x9d0801a0      0x7fc build/default/production/_ext/1404394810/oid.o
                0x9d0801a0                oidCheck
                0x9d08021c                oidComp
                0x9d0802b8                oidMatch
                0x9d08049c                oidCountSubIdentifiers
                0x9d0804e4                oidEncodeSubIdentifier
                0x9d080594                oidDecodeSubIdentifier
                0x9d08061c                oidFromString
                0x9d08077c                oidToString
                0x9d0808c8                maskFromString

.text           0x9d08099c      0x7dc
 .text          0x9d08099c      0x7dc build/default/production/_ext/120273967/x509_cert_validate.o
                0x9d08099c                x509CompareName
                0x9d0809d0                x509CompareSubjectName
                0x9d080ae0                x509CheckSubjectName
                0x9d080bf4                x509CompareSubtree
                0x9d080cc4                x509CheckNameConstraints
                0x9d080ea0                x509VerifySignature
                0x9d081064                x509ValidateCertificate

.rodata         0x9d081178      0x7b4
 .rodata        0x9d081178      0x7b4 build/default/production/_ext/1679150795/nmspi.o

.text           0x9d08192c      0xef8
 .text          0x9d08192c      0x784 build/default/production/_ext/1079466919/mqtt_client_transport.o
                0x9d08192c                mqttClientOpenConnection
                0x9d081aa4                mqttClientEstablishConnection
                0x9d081bc8                mqttClientShutdownConnection
                0x9d081c88                mqttClientCloseConnection
                0x9d081d34                mqttClientSendData
                0x9d081e38                mqttClientReceiveData
                0x9d081f54                mqttClientWaitForData
 .text          0x9d0820b0      0x774 build/default/production/_ext/476983781/tls_client_extensions.o
                0x9d0820b0                tlsFormatClientSupportedVersionsExtension
                0x9d082248                tlsFormatClientSniExtension
                0x9d08232c                tlsFormatClientMaxFragLenExtension
                0x9d082338                tlsFormatClientRecordSizeLimitExtension
                0x9d0823c4                tlsFormatSupportedGroupsExtension
                0x9d082500                tlsFormatClientEcPointFormatsExtension
                0x9d082580                tlsFormatClientAlpnExtension
                0x9d08258c                tlsFormatClientCertTypeListExtension
                0x9d082598                tlsFormatServerCertTypeListExtension
                0x9d0825a4                tlsFormatClientEmsExtension
                0x9d0825f0                tlsFormatClientRenegoInfoExtension
                0x9d0825fc                tlsFormatClientHelloPaddingExtension
                0x9d08269c                tlsParseServerSniExtension
                0x9d0826bc                tlsParseServerMaxFragLenExtension
                0x9d0826c4                tlsParseServerRecordSizeLimitExtension
                0x9d082734                tlsParseServerEcPointFormatsExtension
                0x9d0827a0                tlsParseServerAlpnExtension
                0x9d0827a8                tlsParseClientCertTypeExtension
                0x9d0827b0                tlsParseServerCertTypeExtension
                0x9d0827b8                tlsParseServerEmsExtension
                0x9d08281c                tlsParseServerRenegoInfoExtension

.text           0x9d082824      0xeb0
 .text          0x9d082824      0x764 build/default/production/_ext/360186330/path.o
                0x9d082824                pathIsAbsolute
                0x9d082848                pathIsRelative
                0x9d08286c                pathFindFileName
                0x9d08293c                pathCanonicalize
                0x9d082cd0                pathAddSlash
                0x9d082d54                pathRemoveSlash
                0x9d082dc4                pathCombine
                0x9d082e78                pathMatch
 .text          0x9d082f88      0x74c build/default/production/_ext/986256546/timers.o
                0x9d083070                xTimerCreateTimerTask
                0x9d0830cc                xTimerCreate
                0x9d083164                xTimerGenericCommand
                0x9d0835c4                xTimerGetTimerDaemonTaskHandle
                0x9d0835cc                xTimerGetPeriod
                0x9d0835d4                vTimerSetReloadMode
                0x9d083628                xTimerGetExpiryTime
                0x9d083630                pcTimerGetName
                0x9d083638                xTimerIsTimerActive
                0x9d08366c                pvTimerGetTimerID
                0x9d08369c                vTimerSetTimerID

.text           0x9d0836d4      0xe88
 .text          0x9d0836d4      0x744 build/default/production/_ext/360186330/date_time.o
                0x9d0836d4                formatSystemTime
                0x9d083818                formatDate
                0x9d083938                getCurrentUnixTime
                0x9d083940                convertDateToUnixTime
                0x9d083a38                compareDateTime
                0x9d083b34                computeDayOfWeek
                0x9d083c14                convertUnixTimeToDate
                0x9d083df8                getCurrentDate
 .text          0x9d083e18      0x744 build/default/production/_ext/476983781/tls13_client_extensions.o
                0x9d083e18                tls13FormatCookieExtension
                0x9d083eb4                tls13FormatClientKeyShareExtension
                0x9d083fa4                tls13FormatPskKeModesExtension
                0x9d084008                tls13FormatClientPreSharedKeyExtension
                0x9d08422c                tls13FormatClientEarlyDataExtension
                0x9d084238                tls13ParseServerSupportedVersionsExtension
                0x9d084274                tls13ParseCookieExtension
                0x9d084328                tls13ParseSelectedGroupExtension
                0x9d084378                tls13ParseServerKeyShareExtension
                0x9d084444                tls13ParseServerPreSharedKeyExtension
                0x9d084530                tls13ParseServerEarlyDataExtension

.text           0x9d08455c      0xe1c
 .text          0x9d08455c      0x738 build/default/production/_ext/1079766828/ip.o
                0x9d08455c                ipSendDatagram
                0x9d0845b0                ipSelectSourceAddr
                0x9d084608                ipCompAddr
                0x9d084698                ipIsUnspecifiedAddr
                0x9d0846ec                ipIsMulticastAddr
                0x9d08472c                ipJoinMulticastGroup
                0x9d0847c0                ipLeaveMulticastGroup
                0x9d084854                ipCalcChecksum
                0x9d084960                ipCalcChecksumEx
                0x9d084aa0                ipCalcUpperLayerChecksum
                0x9d084b0c                ipCalcUpperLayerChecksumEx
                0x9d084b7c                ipAllocBuffer
                0x9d084bb8                ipStringToAddr
                0x9d084c3c                ipAddrToString
 .text          0x9d084c94      0x6e4 build/default/production/_ext/1079587044/ndp_cache.o
                0x9d084c94                ndpFindNeighborCacheEntry
                0x9d084d0c                ndpSendQueuedPackets
                0x9d084e1c                ndpFlushQueuedPackets
                0x9d084ec0                ndpCreateNeighborCacheEntry
                0x9d084f88                ndpUpdateNeighborCache
                0x9d0851cc                ndpFlushNeighborCache
                0x9d085220                ndpCreateDestCacheEntry
                0x9d0852e8                ndpFindDestCacheEntry
                0x9d085354                ndpFlushDestCache

.dinit          0x9d085378      0x6a0
 .dinit         0x9d085378      0x6a0 data_init

.rodata         0x9d085a18      0x688
 .rodata        0x9d085a18      0x688 build/default/production/_ext/476983781/tls_cipher_suites.o
                0x9d085d64                tlsSupportedCipherSuites

.text           0x9d0860a0      0xcbc
 .text          0x9d0860a0      0x66c build/default/production/_ext/120521611/sha256.o
                0x9d0860a0                sha256Init
                0x9d086118                sha256FinalRaw
                0x9d086214                sha256ProcessBlock
                0x9d086470                sha256Update
                0x9d086530                sha256Final
                0x9d086688                sha256Compute
 .text          0x9d08670c      0x650 build/default/production/_ext/1079466919/mqtt_client_misc.o
                0x9d08670c                mqttClientChangeState
                0x9d086714                mqttClientCheckKeepAlive
                0x9d08680c                mqttClientProcessEvents
                0x9d086964                mqttSerializeHeader
                0x9d086a30                mqttSerializeByte
                0x9d086a5c                mqttSerializeShort
                0x9d086a90                mqttSerializeString
                0x9d086b0c                mqttSerializeData
                0x9d086b60                mqttDeserializeHeader
                0x9d086c90                mqttDeserializeByte
                0x9d086cbc                mqttDeserializeShort
                0x9d086cf8                mqttDeserializeString

.text           0x9d086d5c      0xc68
 .text          0x9d086d5c      0x638 build/default/production/_ext/1360937237/sprintf.o
                0x9d087364                _sprintf_s
                0x9d087364                _sprintf_cdnopsuxX
                0x9d087364                _sprintf_0
                0x9d087364                _sprintf
                0x9d087364                _sprintf_cdnopuxX
 .text          0x9d087394      0x630 build/default/production/_ext/895184604/llmnr_responder.o
                0x9d087394                llmnrResponderInit
                0x9d087400                llmnrSendResponse
                0x9d087748                llmnrProcessQuery

.text           0x9d0879c4      0xc14
 .text          0x9d0879c4      0x618 build/default/production/_ext/242264404/dns_common.o
                0x9d0879c4                dnsEncodeName
                0x9d087a7c                dnsParseName
                0x9d087c20                dnsCompareName
                0x9d087d94                dnsCompareEncodedName
 .text          0x9d087fdc      0x5fc build/default/production/_ext/1435316685/nbns_common.o
                0x9d087fdc                nbnsProcessMessage
                0x9d0880bc                nbnsInit
                0x9d0880e4                nbnsEncodeName
                0x9d0881e8                nbnsParseName
                0x9d0883d8                nbnsCompareName

.text           0x9d0885d8      0xbcc
 .text          0x9d0885d8      0x5e8 build/default/production/_ext/18976819/web_socket_frame.o
                0x9d0885d8                webSocketFormatFrameHeader
                0x9d08874c                webSocketParseFrameHeader
                0x9d088b1c                webSocketFormatCloseFrame
 .text          0x9d088bc0      0x5e4 build/default/production/_ext/120521611/sha1.o
                0x9d088bc0                sha1Init
                0x9d088c14                sha1FinalRaw
                0x9d088ce0                sha1ProcessBlock
                0x9d088f38                sha1Update
                0x9d088ff8                sha1Final
                0x9d089120                sha1Compute

.text           0x9d0891a4      0xba4
 .text          0x9d0891a4      0x5e0 build/default/production/_ext/1157531022/wilc1000_driver.o
                0x9d0891a4                wilc1000Tick
                0x9d0891ac                wilc1000EnableIrq
                0x9d0891b4                wilc1000DisableIrq
                0x9d0891bc                wilc1000Init
                0x9d089320                wilc1000EventHandler
                0x9d08933c                wilc1000SendPacket
                0x9d089414                wilc1000AppWifiEvent
                0x9d0894c8                wilc1000AppEthEvent
                0x9d0895e4                wilc1000IrqHandler
                0x9d089624                wilc1000GetAddrRefCount
                0x9d0896a4                wilc1000UpdateMacAddrFilter
 .text          0x9d089784      0x5c4 build/default/production/_ext/1079587046/ipv4_misc.o
                0x9d089784                ipv4IsOnLink
                0x9d0897ac                ipv4IsBroadcastAddr
                0x9d089808                ipv4CheckSourceAddr
                0x9d08984c                ipv4CheckDestAddr
                0x9d0898e0                ipv4IsTentativeAddr
                0x9d089904                ipv4IsLocalHostAddr
                0x9d089978                ipv4GetAddrScope
                0x9d0899e0                ipv4GetPrefixLength
                0x9d089a40                ipv4SelectSourceAddr
                0x9d089ca0                ipv4GetBroadcastAddr
                0x9d089ce0                ipv4MapMulticastAddrToMac
                0x9d089d30                ipv4UpdateInStats
                0x9d089d38                ipv4UpdateOutStats
                0x9d089d40                ipv4UpdateErrorStats

.text           0x9d089d48      0xb64
 .text          0x9d089d48      0x5c0 build/default/production/_ext/476983781/tls13_client.o
                0x9d089d48                tls13SendEndOfEarlyData
                0x9d089d50                tls13FormatEndOfEarlyData
                0x9d089d5c                tls13ParseHelloRetryRequest
                0x9d08a00c                tls13ParseEncryptedExtensions
                0x9d08a0e8                tls13ParseNewSessionTicket
 .text          0x9d08a308      0x5a4 build/default/production/_ext/476983781/tls_transcript_hash.o
                0x9d08a308                tlsUpdateTranscriptHash
                0x9d08a3b8                tlsInitTranscriptHash
                0x9d08a50c                tlsFinalizeTranscriptHash
                0x9d08a5c0                tlsFreeTranscriptHash
                0x9d08a638                tlsComputeVerifyData

.text           0x9d08a8ac      0x590
 .text          0x9d08a8ac      0x590 build/default/production/_ext/1435316685/nbns_client.o
                0x9d08a8ac                nbnsSendQuery
                0x9d08aa0c                nbnsResolve
                0x9d08ac20                nbnsProcessResponse

.rodata         0x9d08ae3c      0x564
 .rodata        0x9d08ae3c      0x564 build/default/production/_ext/1079612995/mime.o

.text           0x9d08b3a0      0xa38
 .text          0x9d08b3a0      0x520 build/default/production/_ext/360186330/resource_manager.o
                0x9d08b3a0                resGetData
                0x9d08b638                resSearchFile
 .text          0x9d08b8c0      0x518 build/default/production/_ext/476983781/tls_record_encryption.o
                0x9d08b8c0                tlsEncryptAeadRecord
                0x9d08bacc                tlsEncryptCbcRecord
                0x9d08bbf8                tlsEncryptStreamRecord
                0x9d08bc00                tlsComputeMac
                0x9d08bc98                tlsAppendMessageAuthCode
                0x9d08bd54                tlsEncryptRecord

.text           0x9d08bdd8      0x988
 .text          0x9d08bdd8      0x4e0 build/default/production/_ext/273216868/yarrow.o
                0x9d08bdd8                yarrowInit
                0x9d08be30                yarrowRelease
                0x9d08be64                yarrowGenerateBlock
                0x9d08bed4                yarrowRead
                0x9d08bfb4                yarrowFastReseed
                0x9d08c064                yarrowSeed
                0x9d08c0a8                yarrowSlowReseed
                0x9d08c194                yarrowAddEntropy
 .text          0x9d08c2b8      0x4a8 build/default/production/_ext/1079587046/icmp.o
                0x9d08c2b8                icmpProcessEchoRequest
                0x9d08c49c                icmpProcessMessage
                0x9d08c554                icmpSendErrorMessage
                0x9d08c738                icmpUpdateInStats
                0x9d08c740                icmpUpdateOutStats
                0x9d08c748                icmpDumpMessage
                0x9d08c750                icmpDumpEchoMessage
                0x9d08c758                icmpDumpErrorMessage

.text           0x9d08c760      0x93c
 .text          0x9d08c760      0x4a4 build/default/production/_ext/476983781/tls_cache.o
                0x9d08c760                tlsInitCache
                0x9d08c7f8                tlsFindCache
                0x9d08c950                tlsSaveToCache
                0x9d08cab8                tlsRemoveFromCache
                0x9d08cb94                tlsFreeCache
 .text          0x9d08cc04      0x498 build/default/production/_ext/273204030/ecdh.o
                0x9d08cc04                ecdhInit
                0x9d08cc40                ecdhFree
                0x9d08cc7c                ecdhGenerateKeyPair
                0x9d08cdd8                ecdhCheckPublicKey
                0x9d08cf04                ecdhComputeSharedSecret

.rodata         0x9d08d09c      0x480
 .rodata        0x9d08d09c      0x480 build/default/production/_ext/18976819/web_socket_misc.o
                0x9d08d4f4                webSocketGuid

.text           0x9d08d51c      0x8dc
 .text          0x9d08d51c      0x470 build/default/production/_ext/1679150795/nmdrv.o
                0x9d08d51c                nm_drv_init
                0x9d08d898                nm_drv_deinit
 .text          0x9d08d98c      0x46c build/default/production/_ext/1079766828/tcp_timer.o
                0x9d08d98c                tcpTimerStart
                0x9d08d9cc                tcpTimerStop
                0x9d08d9d4                tcpTimerRunning
                0x9d08d9dc                tcpTimerElapsed
                0x9d08da28                tcpTick
                0x9d08ddf0                tcpTimerGetInterval

.text           0x9d08ddf8      0x8bc
 .text          0x9d08ddf8      0x464 /home/programs/XC32/v2.30/bin/bin/../../lib/gcc/pic32mx/4.8.3/fpu64/libgcc.a(_umoddi3.o)
                0x9d08ddf8                __umoddi3
 .text          0x9d08e25c      0x458 /home/programs/XC32/v2.30/bin/bin/../../lib/gcc/pic32mx/4.8.3/fpu64/libgcc.a(_udivdi3.o)
                0x9d08e25c                __udivdi3

.text           0x9d08e6b4      0x88c
 .text          0x9d08e6b4      0x450 build/default/production/_ext/120273967/x509_common.o
                0x9d08e6b4                x509IsSignAlgoSupported
                0x9d08e6d8                x509IsHashAlgoSupported
                0x9d08e700                x509GetSignHashAlgo
                0x9d08e908                x509GetPublicKeyType
                0x9d08e9e4                x509GetCurveInfo
 .text          0x9d08eb04      0x43c build/default/production/_ext/476983781/tls_client_fsm.o
                0x9d08eb04                tlsPerformClientHandshake
                0x9d08ed78                tlsParseServerHandshakeMessage

.text           0x9d08ef40      0x434
 .text          0x9d08ef40      0x434 build/default/production/_ext/242264404/dns_cache.o
                0x9d08ef40                dnsInit
                0x9d08ef6c                dnsDeleteEntry
                0x9d08efbc                dnsFlushCache
                0x9d08f024                dnsCreateEntry
                0x9d08f0e8                dnsFindEntry
                0x9d08f1c0                dnsTick

.rodata         0x9d08f374      0x42c
 .rodata        0x9d08f374      0x42c build/default/production/_ext/1679150795/m2m_wifi.o

.text           0x9d08f7a0      0x7fc
 .text          0x9d08f7a0      0x400 build/default/production/_ext/360186330/os_port_freertos.o
                0x9d08f7a0                osInitKernel
                0x9d08f7a8                osStartKernel
                0x9d08f7c4                osCreateTask
                0x9d08f818                osDeleteTask
                0x9d08f834                osDelayTask
                0x9d08f850                osSwitchTask
                0x9d08f874                osSuspendAllTasks
                0x9d08f8a4                osResumeAllTasks
                0x9d08f8d4                osCreateEvent
                0x9d08f90c                osDeleteEvent
                0x9d08f938                osSetEvent
                0x9d08f960                osResetEvent
                0x9d08f980                osWaitForEvent
                0x9d08f9b8                osSetEventFromIsr
                0x9d08f9e0                osCreateSemaphore
                0x9d08fa10                osDeleteSemaphore
                0x9d08fa3c                osWaitForSemaphore
                0x9d08fa74                osReleaseSemaphore
                0x9d08fa9c                osCreateMutex
                0x9d08facc                osDeleteMutex
                0x9d08faf8                osAcquireMutex
                0x9d08fb18                osReleaseMutex
                0x9d08fb40                osGetSystemTime
                0x9d08fb5c                osAllocMem
                0x9d08fb78                osFreeMem
 .text          0x9d08fba0      0x3fc build/default/production/_ext/1079766828/ethernet_misc.o
                0x9d08fba0                ethPadFrame
                0x9d08fc04                ethEncodeVlanTag
                0x9d08fc8c                ethDecodeVlanTag
                0x9d08fd0c                ethCheckDestAddr
                0x9d08fdcc                ethUpdateInStats
                0x9d08fdd4                ethUpdateOutStats
                0x9d08fddc                ethUpdateErrorStats
                0x9d08fde4                ethCalcCrc
                0x9d08fe48                ethCalcCrcEx
                0x9d08ff04                ethCheckCrc

.rodata         0x9d08ff9c      0x3fc
 .rodata        0x9d08ff9c      0x3fc build/default/production/_ext/1079612995/http_server_misc.o

.text           0x9d090398      0x7c4
 .text          0x9d090398      0x3ec build/default/production/_ext/23001898/port_asm.o
                0x9d090398                vPortStartFirstTask
                0x9d09056c                vPortInitialiseFPSCR
                0x9d0906fc                vPortFPUReadback
 .text          0x9d090784      0x3d8 build/default/production/_ext/1360937237/eth_irq_wrapper.o
                0x9d090784                ethIrqWrapper

.text           0x9d090b5c      0x798
 .text          0x9d090b5c      0x3d8 build/default/production/_ext/1360937237/ext1_irq_wrapper.o
                0x9d090b5c                ext1IrqWrapper
 .text          0x9d090f34      0x3c0 build/default/production/_ext/120726866/chacha20_poly1305.o
                0x9d090f34                chacha20Poly1305Encrypt
                0x9d091100                chacha20Poly1305Decrypt

.text           0x9d0912f4      0x768
 .text          0x9d0912f4      0x3c0 build/default/production/_ext/1360937237/wilc1000_callbacks.o
                0x9d0912f4                wilc1000Connect
                0x9d0913e8                wilc100ConnectLogic
                0x9d091610                wilc1000EventHook
 .text          0x9d0916b4      0x3a8 build/default/production/_ext/273211656/hmac.o
                0x9d0916b4                hmacInit
                0x9d0917e4                hmacUpdate
                0x9d091808                hmacFinal
                0x9d0918f0                hmacCompute
                0x9d09198c                hmacFinalRaw

.rodata         0x9d091a5c      0x38c
 .rodata        0x9d091a5c      0x38c build/default/production/_ext/1079612995/http_server.o

.text           0x9d091de8      0x6e8
 .text          0x9d091de8      0x384 build/default/production/_ext/1404394810/base64.o
                0x9d091de8                base64Encode
                0x9d091fdc                base64Decode
 .text          0x9d09216c      0x364 build/default/production/_ext/37332968/lan8720_driver.o
                0x9d09216c                lan8720EnableIrq
                0x9d09219c                lan8720DisableIrq
                0x9d0921cc                lan8720WritePhyReg
                0x9d092204                lan8720ReadPhyReg
                0x9d092234                lan8720Tick
                0x9d0922ac                lan8720EventHandler
                0x9d0923fc                lan8720Init
                0x9d0924b4                lan8720DumpPhyReg

.rodata         0x9d0924d0      0x348
 .rodata        0x9d0924d0      0x348 build/default/production/_ext/120521611/sha512.o
                0x9d0924d8                sha512HashAlgo
                0x9d09250c                sha512Oid

.text           0x9d092818      0x338
 .text          0x9d092818      0x338 build/default/production/_ext/273204030/x25519.o
                0x9d092818                x25519

.rodata         0x9d092b50      0x32c
 .rodata        0x9d092b50      0x32c build/default/production/_ext/1679150795/m2m_hif.o

.text           0x9d092e7c      0x61c
 .text          0x9d092e7c      0x318 build/default/production/_ext/1079766828/nic.o
                0x9d092e7c                nicGetLogicalInterface
                0x9d092e84                nicGetPhysicalInterface
                0x9d092e8c                nicGetSwitchPort
                0x9d092e94                nicGetVlanId
                0x9d092e9c                nicGetVmanId
                0x9d092ea4                nicIsParentInterface
                0x9d092eb0                nicTick
                0x9d092f10                nicSendPacket
                0x9d092fd8                nicUpdateMacAddrFilter
                0x9d09304c                nicProcessPacket
                0x9d093104                nicNotifyLinkChange
 .text          0x9d093194      0x304 build/default/production/_ext/273209830/hkdf.o
                0x9d093194                hkdfExtract
                0x9d0932a8                hkdfExpand
                0x9d093430                hkdf

.text           0x9d093498      0x5ec
 .text          0x9d093498      0x2f8 build/default/production/_ext/360186330/cpu_endian.o
                0x9d093498                swapInt16
                0x9d0934ac                swapInt32
                0x9d0934d4                swapInt64
                0x9d093528                reverseInt4
                0x9d093550                reverseInt8
                0x9d09358c                reverseInt16
                0x9d0935dc                reverseInt32
                0x9d093674                reverseInt64
 .text          0x9d093790      0x2f4 build/default/production/_ext/120521611/sha384.o
                0x9d093790                sha384Init
                0x9d093868                sha384Update
                0x9d093884                sha384Final
                0x9d093918                sha384FinalRaw
                0x9d093a00                sha384Compute

.text           0x9d093a84      0x570
 .text          0x9d093a84      0x2cc build/default/production/_ext/1435316685/nbns_responder.o
                0x9d093a84                nbnsSendResponse
                0x9d093c10                nbnsProcessQuery
 .text          0x9d093d50      0x2a4 build/default/production/_ext/18976819/web_socket_transport.o
                0x9d093d50                webSocketOpenConnection
                0x9d093e50                webSocketEstablishConnection
                0x9d093e94                webSocketShutdownConnection
                0x9d093f14                webSocketCloseConnection
                0x9d093f6c                webSocketSendData
                0x9d093fb0                webSocketReceiveData

.text.malloc    0x9d093ff4      0x28c
 .text.malloc   0x9d093ff4      0x28c /home/programs/XC32/v2.30/bin/bin/../../lib/gcc/pic32mx/4.8.3/../../../../pic32mx/lib/fpu64/libc.a(malloc.o)
                0x9d093ff4                malloc

.text           0x9d094280      0x4c4
 .text          0x9d094280      0x26c build/default/production/_ext/476983781/tls_handshake.o
                0x9d094280                tlsInitHandshake
                0x9d094318                tlsPerformHandshake
                0x9d094344                tlsSendHandshakeMessage
                0x9d0943d4                tlsParseHandshakeMessage
                0x9d094448                tlsReceiveHandshakeMessage
 .text          0x9d0944ec      0x258 build/default/production/_ext/457051042/nm_bsp_pic32mz.o
                0x9d0944ec                nm_bsp_sleep
                0x9d094538                nm_bsp_reset
                0x9d0945dc                nm_bsp_init
                0x9d094664                nm_bsp_register_isr
                0x9d0946b4                nm_bsp_interrupt_ctrl
                0x9d0946dc                ext1IrqHandler

.text           0x9d094744      0x460
 .text          0x9d094744      0x230 build/default/production/_ext/476983781/tls13_common.o
                0x9d094744                tls13SendKeyUpdate
                0x9d094824                tls13FormatKeyUpdate
                0x9d094838                tls13ParseKeyUpdate
 .text          0x9d094974      0x230 build/default/production/_ext/23001898/port.o
                0x9d094998                pxPortInitialiseStack
                0x9d0949f8                vApplicationSetupTickTimerInterrupt
                0x9d094a64                vPortEndScheduler
                0x9d094a6c                xPortStartScheduler
                0x9d094ac8                uxPortSetInterruptMaskFromISR
                0x9d094b04                vPortIncrementTick
                0x9d094b58                vPortClearInterruptMaskFromISR
                0x9d094b74                vPortTaskUsesFPU

.text           0x9d094ba4      0x454
 .text          0x9d094ba4      0x230 build/default/production/_ext/1679150795/nmbus.o
                0x9d094ba4                nm_bus_iface_init
                0x9d094bc0                nm_bus_iface_deinit
                0x9d094bdc                nm_bus_reset
                0x9d094bf8                nm_bus_iface_reconfigure
                0x9d094c00                nm_read_reg
                0x9d094c1c                nm_read_reg_with_ret
                0x9d094c38                nm_write_reg
                0x9d094c54                nm_read_block
                0x9d094d14                nm_write_block
 .text          0x9d094dd4      0x224 build/default/production/_ext/476983781/tls13_client_misc.o
                0x9d094dd4                tls13IsHelloRetryRequest
                0x9d094e10                tls13ComputePskBinders
                0x9d094ff0                tls13SendEarlyData

.text           0x9d094ff8      0x214
 .text          0x9d094ff8      0x214 build/default/production/_ext/1185106856/nm_common.o
                0x9d094ff8                m2m_memcpy
                0x9d09501c                m2m_checksum
                0x9d095050                m2m_memset
                0x9d095070                m2m_strlen
                0x9d0950a4                m2m_strncmp
                0x9d095124                m2m_strstr
                0x9d0951b4                m2m_memcmp

.text.fwrite    0x9d09520c      0x214
 .text.fwrite   0x9d09520c      0x214 /home/programs/XC32/v2.30/bin/bin/../../lib/gcc/pic32mx/4.8.3/../../../../pic32mx/lib/fpu64/libc.a(fwrite.o)
                0x9d09520c                fwrite

.text           0x9d095420      0x200
 .text          0x9d095420      0x200 build/default/production/_ext/360186330/str.o
                0x9d095420                strDuplicate
                0x9d095490                strTrimWhitespace
                0x9d09551c                strRemoveTrailingSpace
                0x9d095568                strReplaceChar
                0x9d095594                strSafeCopy

.rodata         0x9d095620      0x1e4
 .rodata        0x9d095620      0x1e4 build/default/production/_ext/1079744218/dhcp_client.o
                0x9d0957fc                dhcpOptionList

.text           0x9d095804      0x1d4
 .text          0x9d095804      0x1d4 build/default/production/_ext/1125617168/cbc.o
                0x9d095804                cbcEncrypt
                0x9d0958f0                cbcDecrypt

.text.strtoul   0x9d0959d8      0x1d4
 .text.strtoul  0x9d0959d8      0x1d4 /home/programs/XC32/v2.30/bin/bin/../../lib/gcc/pic32mx/4.8.3/../../../../pic32mx/lib/fpu64/libc.a(strtol.o)
                0x9d0959d8                strtoul

.text           0x9d095bac      0x1d0
 .text          0x9d095bac      0x1d0 build/default/production/_ext/1360937237/debug.o
                0x9d095bac                debugInit
                0x9d095c28                debugDisplayArray
                0x9d095d20                fputc

.rodata         0x9d095d7c      0x390
 .rodata        0x9d095d7c      0x1cc build/default/production/_ext/1079466919/mqtt_client.o
 .rodata        0x9d095f48      0x1c4 build/default/production/_ext/1079466919/mqtt_client_packet.o

.text.fseek     0x9d09610c      0x1ac
 .text.fseek    0x9d09610c      0x1ac /home/programs/XC32/v2.30/bin/bin/../../lib/gcc/pic32mx/4.8.3/../../../../pic32mx/lib/fpu64/libc.a(fseek.o)
                0x9d09610c                fseek

.text           0x9d0962b8      0x348
 .text          0x9d0962b8      0x1a8 build/default/production/_ext/476983781/tls_cipher_suites.o
                0x9d0962b8                tlsGetNumSupportedCipherSuites
                0x9d0962c0                tlsGetCipherSuiteName
                0x9d096324                tlsIsCipherSuiteAcceptable
                0x9d09637c                tlsGetCipherSuiteType
 .text          0x9d096460      0x1a0 /home/programs/XC32/v2.30/bin/bin/../../lib/gcc/pic32mx/4.8.3/../../../../pic32mx/lib/fpu64/libpic32.a(strcpy.o)
                0x9d096460                strcpy

.text._sbrk_init
                0x9d096600      0x194
 .text._sbrk_init
                0x9d096600      0x194 /home/programs/XC32/v2.30/bin/bin/../../lib/gcc/pic32mx/4.8.3/../../../../pic32mx/lib/fpu64/libpic32.a(sbrk.o)
                0x9d096600                _sbrk_init

.rodata         0x9d096794      0x188
 .rodata        0x9d096794      0x188 build/default/production/_ext/120521611/sha256.o
                0x9d09679c                sha256HashAlgo
                0x9d0967d0                sha256Oid

.text           0x9d09691c      0x2ec
 .text          0x9d09691c      0x184 build/default/production/_ext/1700104339/nm_bus_wrapper_pic32mz.o
                0x9d09691c                nm_bus_init
                0x9d096988                nm_bus_ioctl
                0x9d096a98                nm_bus_deinit
 .text          0x9d096aa0      0x168 /home/programs/XC32/v2.30/bin/bin/../../lib/gcc/pic32mx/4.8.3/../../../../pic32mx/lib/fpu64/libpic32.a(memcpy.o)
                0x9d096aa0                memcpy

.text           0x9d096c08      0x168
 .text          0x9d096c08      0x168 /home/programs/XC32/v2.30/bin/bin/../../lib/gcc/pic32mx/4.8.3/../../../../pic32mx/lib/fpu64/libpic32.a(strlen.o)
                0x9d096c08                strlen

.rodata         0x9d096d70      0x154
 .rodata        0x9d096d70      0x154 build/default/production/_ext/360186330/date_time.o

.text           0x9d096ec4      0x150
 .text          0x9d096ec4      0x150 build/default/production/_ext/1079744218/dhcp_common.o
                0x9d096ec4                dhcpAddOption
                0x9d096f70                dhcpGetOption

.rodata         0x9d097014      0x288
 .rodata        0x9d097014      0x150 build/default/production/_ext/1360937237/wilc1000_callbacks.o
 .rodata        0x9d097164      0x138 build/default/production/_ext/1679150795/nmdrv.o

.rodata         0x9d09729c      0x12c
 .rodata        0x9d09729c      0x12c build/default/production/_ext/1079612995/ssi.o

.text           0x9d0973c8      0x22c
 .text          0x9d0973c8      0x120 /home/programs/XC32/v2.30/bin/bin/../../lib/gcc/pic32mx/4.8.3/../../../../pic32mx/lib/fpu64/libpic32.a(strcmp.o)
                0x9d0973c8                strcmp
 .text          0x9d0974e8      0x10c build/default/production/_ext/986256546/list.o
                0x9d0974e8                vListInitialise
                0x9d09750c                vListInitialiseItem
                0x9d097514                vListInsertEnd
                0x9d097548                vListInsert
                0x9d0975a8                uxListRemove

.rodata         0x9d0975f4      0x20c
 .rodata        0x9d0975f4      0x108 build/default/production/_ext/476983781/tls_record_decryption.o
 .rodata        0x9d0976fc      0x104 /home/programs/XC32/v2.30/bin/bin/../../lib/gcc/pic32mx/4.8.3/../../../../pic32mx/lib/fpu64/libc.a(ctype.o)
                0x9d0976fc                _ctype

.rodata         0x9d097800       0xf4
 .rodata        0x9d097800       0xf4 build/default/production/_ext/1079766828/net.o

.rodata         0x9d000010       0xf0
 .rodata        0x9d000010       0xf0 build/default/production/_ext/1079587044/slaac.o

.rodata         0x9d0978f4       0xe8
 .rodata        0x9d0978f4       0xe8 build/default/production/_ext/120273967/x509_common.o
                0x9d0978f4                X509_EXTENSION_REQUEST_OID
                0x9d097900                X509_CHALLENGE_PASSWORD_OID
                0x9d09790c                X509_KP_OCSP_SIGNING_OID
                0x9d097914                X509_KP_TIME_STAMPING_OID
                0x9d09791c                X509_KP_EMAIL_PROTECTION_OID
                0x9d097924                X509_KP_CODE_SIGNING_OID
                0x9d09792c                X509_KP_CLIENT_AUTH_OID
                0x9d097934                X509_KP_SERVER_AUTH_OID
                0x9d09793c                X509_ANY_EXT_KEY_USAGE_OID
                0x9d097940                X509_NS_CERT_TYPE_OID
                0x9d09794c                X509_INHIBIT_ANY_POLICY_OID
                0x9d097950                X509_FRESHEST_CRL_OID
                0x9d097954                X509_EXTENDED_KEY_USAGE_OID
                0x9d097958                X509_POLICY_CONSTRAINTS_OID
                0x9d09795c                X509_AUTHORITY_KEY_ID_OID
                0x9d097960                X509_POLICY_MAPPINGS_OID
                0x9d097964                X509_CERTIFICATE_POLICIES_OID
                0x9d097968                X509_CRL_DISTR_POINTS_OID
                0x9d09796c                X509_NAME_CONSTRAINTS_OID
                0x9d097970                X509_CERTIFICATE_ISSUER_OID
                0x9d097974                X509_ISSUING_DISTR_POINT_OID
                0x9d097978                X509_DELTA_CRL_INDICATOR_OID
                0x9d09797c                X509_INVALIDITY_DATE_OID
                0x9d097980                X509_REASON_CODE_OID
                0x9d097984                X509_CRL_NUMBER_OID
                0x9d097988                X509_BASIC_CONSTRAINTS_OID
                0x9d09798c                X509_ISSUER_ALT_NAME_OID
                0x9d097990                X509_SUBJECT_ALT_NAME_OID
                0x9d097994                X509_KEY_USAGE_OID
                0x9d097998                X509_SUBJECT_KEY_ID_OID
                0x9d09799c                X509_SUBJECT_DIRECTORY_ATTR_OID
                0x9d0979a0                X509_PSEUDONYM_OID
                0x9d0979a4                X509_DN_QUALIFIER_OID
                0x9d0979a8                X509_GENERATION_QUALIFIER_OID
                0x9d0979ac                X509_INITIALS_OID
                0x9d0979b0                X509_GIVEN_NAME_OID
                0x9d0979b4                X509_NAME_OID
                0x9d0979b8                X509_TITLE_OID
                0x9d0979bc                X509_ORGANIZATIONAL_UNIT_NAME_OID
                0x9d0979c0                X509_ORGANIZATION_NAME_OID
                0x9d0979c4                X509_STATE_OR_PROVINCE_NAME_OID
                0x9d0979c8                X509_LOCALITY_NAME_OID
                0x9d0979cc                X509_COUNTRY_NAME_OID
                0x9d0979d0                X509_SERIAL_NUMBER_OID
                0x9d0979d4                X509_SURNAME_OID
                0x9d0979d8                X509_COMMON_NAME_OID

.text.general_exception
                0x9d0979dc       0xdc
 .text.general_exception
                0x9d0979dc       0xdc /home/programs/XC32/v2.30/bin/bin/../../lib/gcc/pic32mx/4.8.3/../../../../pic32mx/lib/fpu64/libpic32.a(general-exception.o)
                0x9d0979dc                _general_exception_context

.text._cache_err_exception_context
                0x9d097ab8       0xd8
 .text._cache_err_exception_context
                0x9d097ab8       0xd8 /home/programs/XC32/v2.30/bin/bin/../../lib/gcc/pic32mx/4.8.3/../../../../pic32mx/lib/fpu64/libpic32.a(cache-err-exception.o)
                0x9d097ab8                _cache_err_exception_context

.text.simple_tlb_refill_context
                0x9d097b90       0xd8
 .text.simple_tlb_refill_context
                0x9d097b90       0xd8 /home/programs/XC32/v2.30/bin/bin/../../lib/gcc/pic32mx/4.8.3/../../../../pic32mx/lib/fpu64/libpic32.a(simple-tlb-refill-exception.o)
                0x9d097b90                _simple_tlb_refill_exception_context

.rodata         0x9d097c68       0xd4
 .rodata        0x9d097c68       0xd4 build/default/production/_ext/273214849/rsa.o
                0x9d097c74                MGF1_OID
                0x9d097c80                RSASSA_PSS_OID
                0x9d097c8c                RSASSA_PKCS1_V1_5_WITH_SHA3_512_OID
                0x9d097c98                RSASSA_PKCS1_V1_5_WITH_SHA3_384_OID
                0x9d097ca4                RSASSA_PKCS1_V1_5_WITH_SHA3_256_OID
                0x9d097cb0                RSASSA_PKCS1_V1_5_WITH_SHA3_224_OID
                0x9d097cbc                SHA512_256_WITH_RSA_ENCRYPTION_OID
                0x9d097cc8                SHA512_224_WITH_RSA_ENCRYPTION_OID
                0x9d097cd4                SHA512_WITH_RSA_ENCRYPTION_OID
                0x9d097ce0                SHA384_WITH_RSA_ENCRYPTION_OID
                0x9d097cec                SHA256_WITH_RSA_ENCRYPTION_OID
                0x9d097cf8                SHA224_WITH_RSA_ENCRYPTION_OID
                0x9d097d04                SHA1_WITH_RSA_ENCRYPTION_OID
                0x9d097d10                MD5_WITH_RSA_ENCRYPTION_OID
                0x9d097d1c                MD2_WITH_RSA_ENCRYPTION_OID
                0x9d097d28                RSA_ENCRYPTION_OID
                0x9d097d34                PKCS1_OID

.text._mon_putc
                0x9d097d3c       0xd4
 .text._mon_putc
                0x9d097d3c       0xd4 /home/programs/XC32/v2.30/bin/bin/../../lib/gcc/pic32mx/4.8.3/../../../../pic32mx/lib/fpu64/libpic32.a(_mon_putc.o)
                0x9d097d3c                _mon_putc

.text.strtok    0x9d097e10       0xd0
 .text.strtok   0x9d097e10       0xd0 /home/programs/XC32/v2.30/bin/bin/../../lib/gcc/pic32mx/4.8.3/../../../../pic32mx/lib/fpu64/libc.a(strtok.o)
                0x9d097e10                strtok

.rodata         0x9d097ee0       0xd0
 .rodata        0x9d097ee0       0xd0 /home/programs/XC32/v2.30/bin/bin/../../lib/gcc/pic32mx/4.8.3/../../../../pic32mx/lib/fpu64/libc.a(doprnt_cdnopsuxX.eo)

.text           0x9d097fb0       0xcc
 .text          0x9d097fb0       0xcc build/default/production/_ext/1079612995/mime.o
                0x9d097fb0                mimeGetType

.text._sbrk     0x9d09807c       0xc8
 .text._sbrk    0x9d09807c       0xc8 /home/programs/XC32/v2.30/bin/bin/../../lib/gcc/pic32mx/4.8.3/../../../../pic32mx/lib/fpu64/libpic32.a(sbrk.o)
                0x9d09807c                _sbrk

.rodata         0x9d098144      0x188
 .rodata        0x9d098144       0xc4 build/default/production/_ext/120273967/pem_import.o
 .rodata        0x9d098208       0xc4 build/default/production/_ext/476983781/tls13_misc.o
                0x9d09829c                tls13HelloRetryRequestRandom
                0x9d0982bc                tls12DowngradeRandom
                0x9d0982c4                tls11DowngradeRandom

.rodata         0x9d0982cc       0xc0
 .rodata        0x9d0982cc       0xc0 build/default/production/_ext/1404394810/base64.o

.tlb.__pic32_tlb_init_ebi_sqi
                0x9d09838c       0xbc
 .tlb.__pic32_tlb_init_ebi_sqi
                0x9d09838c       0xbc /home/programs/XC32/v2.30/bin/bin/../../lib/gcc/pic32mx/4.8.3/../../../../pic32mx/lib/fpu64/libpic32.a(pic32_init_tlb_ebi_sqi.o)
                0x9d09838c                __pic32_tlb_init_ebi_sqi

.rodata         0x9d098448       0xb8
 .rodata        0x9d098448       0xb8 build/default/production/_ext/242264404/dns_client.o

.text           0x9d098500       0xa8
 .text          0x9d098500       0xa8 /home/programs/XC32/v2.30/bin/bin/../../lib/gcc/pic32mx/4.8.3/../../../../pic32mx/lib/fpu64/libpic32.a(memset.o)
                0x9d098500                memset

.text.atoi      0x9d0985a8       0xa8
 .text.atoi     0x9d0985a8       0xa8 /home/programs/XC32/v2.30/bin/bin/../../lib/gcc/pic32mx/4.8.3/../../../../pic32mx/lib/fpu64/libc.a(atoi.o)
                0x9d0985a8                atoi

.text           0x9d098650       0xa4
 .text          0x9d098650       0xa4 build/default/production/_ext/1360937237/strtok_r.o
                0x9d098650                strtok_r

.text.fflush    0x9d0986f4       0xa0
 .text.fflush   0x9d0986f4       0xa0 /home/programs/XC32/v2.30/bin/bin/../../lib/gcc/pic32mx/4.8.3/../../../../pic32mx/lib/fpu64/libc.a(fflush.o)
                0x9d0986f4                fflush

.text.write     0x9d098794       0x9c
 .text.write    0x9d098794       0x9c /home/programs/XC32/v2.30/bin/bin/../../lib/gcc/pic32mx/4.8.3/../../../../pic32mx/lib/fpu64/libpic32.a(write.o)
                0x9d098794                write

.text           0x9d098830       0x98
 .text          0x9d098830       0x98 /home/programs/XC32/v2.30/bin/bin/../../lib/gcc/pic32mx/4.8.3/../../../../pic32mx/lib/fpu64/libpic32.a(memcmp.o)
                0x9d098830                memcmp

.rodata         0x9d0988c8      0x10c
 .rodata        0x9d0988c8       0x88 build/default/production/_ext/476983781/tls13_key_material.o
 .rodata        0x9d098950       0x84 build/default/production/_ext/120521611/sha1.o
                0x9d098958                sha1HashAlgo
                0x9d09898c                sha1Oid

.text           0x9d0989d4      0x108
 .text          0x9d0989d4       0x84 build/default/production/_ext/1079612995/http_server_auth.o
                0x9d0989d4                httpCheckPassword
                0x9d098a18                httpParseAuthorizationField
                0x9d098a40                httpAddAuthenticateField
                0x9d098a48                httpGenerateNonce
                0x9d098a50                httpVerifyNonce
 .text          0x9d098a58       0x84 /home/programs/XC32/v2.30/bin/bin/../../lib/gcc/pic32mx/4.8.3/../../../../pic32mx/lib/fpu64/libpic32.a(pic32_data_init.o)
                0x9d098a58                __pic32_data_init

.rodata         0x9d098adc      0x100
 .rodata        0x9d098adc       0x80 build/default/production/_ext/120521611/md5.o
                0x9d098ae0                md5HashAlgo
                0x9d098b14                md5Oid
 .rodata        0x9d098b5c       0x80 build/default/production/_ext/1157531022/wilc1000_driver.o
                0x9d098b5c                wilc1000ApDriver
                0x9d098b9c                wilc1000StaDriver

.text.strncasecmp
                0x9d098bdc       0x80
 .text.strncasecmp
                0x9d098bdc       0x80 /home/programs/XC32/v2.30/bin/bin/../../lib/gcc/pic32mx/4.8.3/../../../../pic32mx/lib/fpu64/libc.a(strncasecmp.o)
                0x9d098bdc                strncasecmp

.text           0x9d098c5c       0x74
 .text          0x9d098c5c       0x74 build/default/production/_ext/979089083/heap_3.o
                0x9d098c5c                pvPortMalloc
                0x9d098c94                vPortFree

.text.strncpy   0x9d098cd0       0x74
 .text.strncpy  0x9d098cd0       0x74 /home/programs/XC32/v2.30/bin/bin/../../lib/gcc/pic32mx/4.8.3/../../../../pic32mx/lib/fpu64/libc.a(strncpy.o)
                0x9d098cd0                strncpy

.text.ftell     0x9d098d44       0x74
 .text.ftell    0x9d098d44       0x74 /home/programs/XC32/v2.30/bin/bin/../../lib/gcc/pic32mx/4.8.3/../../../../pic32mx/lib/fpu64/libc.a(fseek.o)
                0x9d098d44                ftell

.rodata         0x9d000110       0x70
 .rodata        0x9d000110       0x70 build/default/production/_ext/273214849/dsa.o
                0x9d000110                DSA_WITH_SHA3_512_OID
                0x9d00011c                DSA_WITH_SHA3_384_OID
                0x9d000128                DSA_WITH_SHA3_256_OID
                0x9d000134                DSA_WITH_SHA3_224_OID
                0x9d000140                DSA_WITH_SHA512_OID
                0x9d00014c                DSA_WITH_SHA384_OID
                0x9d000158                DSA_WITH_SHA256_OID
                0x9d000164                DSA_WITH_SHA224_OID
                0x9d000170                DSA_WITH_SHA1_OID
                0x9d000178                DSA_OID

.text.strncmp   0x9d000190       0x70
 .text.strncmp  0x9d000190       0x70 /home/programs/XC32/v2.30/bin/bin/../../lib/gcc/pic32mx/4.8.3/../../../../pic32mx/lib/fpu64/libc.a(strncmp.o)
                0x9d000190                strncmp

.text.strcspn   0x9d098db8       0x70
 .text.strcspn  0x9d098db8       0x70 /home/programs/XC32/v2.30/bin/bin/../../lib/gcc/pic32mx/4.8.3/../../../../pic32mx/lib/fpu64/libc.a(strcspn.o)
                0x9d098db8                strcspn

.text.strspn    0x9d098e28       0x70
 .text.strspn   0x9d098e28       0x70 /home/programs/XC32/v2.30/bin/bin/../../lib/gcc/pic32mx/4.8.3/../../../../pic32mx/lib/fpu64/libc.a(strspn.o)
                0x9d098e28                strspn

.text           0x9d098e98       0x6c
 .text          0x9d098e98       0x6c build/default/production/_ext/1079587044/ipv6_pmtu.o
                0x9d098e98                ipv6GetPathMtu
                0x9d098ec8                ipv6UpdatePathMtu

.text.strncat   0x9d098f04       0x6c
 .text.strncat  0x9d098f04       0x6c /home/programs/XC32/v2.30/bin/bin/../../lib/gcc/pic32mx/4.8.3/../../../../pic32mx/lib/fpu64/libc.a(strncat.o)
                0x9d098f04                strncat

.rodata         0x9d098f70       0xd0
 .rodata        0x9d098f70       0x68 build/default/production/_ext/37329846/pic32mz_eth_driver.o
                0x9d098f98                pic32mzEthDriver
 .rodata        0x9d098fd8       0x68 build/default/production/_ext/1079587044/ipv6.o
                0x9d098fe0                IPV6_SOLICITED_NODE_ADDR_PREFIX
                0x9d098ff0                IPV6_LINK_LOCAL_ADDR_PREFIX
                0x9d099000                IPV6_LINK_LOCAL_ALL_ROUTERS_ADDR
                0x9d099010                IPV6_LINK_LOCAL_ALL_NODES_ADDR
                0x9d099020                IPV6_LOOPBACK_ADDR
                0x9d099030                IPV6_UNSPECIFIED_ADDR

.text.strcasecmp
                0x9d099040       0x68
 .text.strcasecmp
                0x9d099040       0x68 /home/programs/XC32/v2.30/bin/bin/../../lib/gcc/pic32mx/4.8.3/../../../../pic32mx/lib/fpu64/libc.a(strcasecmp.o)
                0x9d099040                strcasecmp

.text.strrchr   0x9d0990a8       0x68
 .text.strrchr  0x9d0990a8       0x68 /home/programs/XC32/v2.30/bin/bin/../../lib/gcc/pic32mx/4.8.3/../../../../pic32mx/lib/fpu64/libc.a(strrchr.o)
                0x9d0990a8                strrchr

.rodata         0x9d099110       0x64
 .rodata        0x9d099110       0x64 build/default/production/_ext/476983781/tls_misc.o

.text.memmove   0x9d099174       0x64
 .text.memmove  0x9d099174       0x64 /home/programs/XC32/v2.30/bin/bin/../../lib/gcc/pic32mx/4.8.3/../../../../pic32mx/lib/fpu64/libc.a(memmove.o)
                0x9d099174                memmove

.rodata         0x9d0991d8       0x60
 .rodata        0x9d0991d8       0x60 build/default/production/_ext/1079766828/ethernet.o
                0x9d099220                EUI64_UNSPECIFIED_ADDR
                0x9d099228                MAC_BROADCAST_ADDR
                0x9d099230                MAC_UNSPECIFIED_ADDR

.text.fputs     0x9d099238       0x60
 .text.fputs    0x9d099238       0x60 /home/programs/XC32/v2.30/bin/bin/../../lib/gcc/pic32mx/4.8.3/../../../../pic32mx/lib/fpu64/libc.a(puts.o)
                0x9d099238                fputs

.rodata         0x9d099298       0xb0
 .rodata        0x9d099298       0x58 build/default/production/_ext/273204030/ecdsa.o
                0x9d099298                ECDSA_WITH_SHA3_512_OID
                0x9d0992a4                ECDSA_WITH_SHA3_384_OID
                0x9d0992b0                ECDSA_WITH_SHA3_256_OID
                0x9d0992bc                ECDSA_WITH_SHA3_224_OID
                0x9d0992c8                ECDSA_WITH_SHA512_OID
                0x9d0992d0                ECDSA_WITH_SHA384_OID
                0x9d0992d8                ECDSA_WITH_SHA256_OID
                0x9d0992e0                ECDSA_WITH_SHA224_OID
                0x9d0992e8                ECDSA_WITH_SHA1_OID
 .rodata        0x9d0992f0       0x58 build/default/production/_ext/1079744218/dhcp_server.o

.rodata         0x9d099348       0x54
 .rodata        0x9d099348       0x54 build/default/production/_ext/37332968/lan8720_driver.o
                0x9d099380                lan8720PhyDriver

.text.main_entry
                0x9d09939c       0x54
 .text.main_entry
                0x9d09939c       0x54 /tmp/ccIr63g9.o
                0x9d0993d0                __crt0_exit

.text.sbrk      0x9d0993f0       0x50
 .text.sbrk     0x9d0993f0       0x50 /home/programs/XC32/v2.30/bin/bin/../../lib/gcc/pic32mx/4.8.3/../../../../pic32mx/lib/fpu64/libpic32.a(sbrk.o)
                0x9d0993f0                sbrk

.rodata         0x9d099440       0x90
 .rodata        0x9d099440       0x48 build/default/production/_ext/120521611/sha384.o
                0x9d099448                sha384HashAlgo
                0x9d09947c                sha384Oid
 .rodata        0x9d099488       0x48 build/default/production/_ext/476983781/tls_key_material.o

.text._bootstrap_exception_handler
                0x9d0994d0       0x48
 .text._bootstrap_exception_handler
                0x9d0994d0       0x48 /home/programs/XC32/v2.30/bin/bin/../../lib/gcc/pic32mx/4.8.3/../../../../pic32mx/lib/fpu64/libpic32.a(default-bootstrap-exception-handler.o)
                0x9d0994d0                _bootstrap_exception_handler

.text._general_exception_handler
                0x9d099518       0x48
 .text._general_exception_handler
                0x9d099518       0x48 /home/programs/XC32/v2.30/bin/bin/../../lib/gcc/pic32mx/4.8.3/../../../../pic32mx/lib/fpu64/libpic32.a(default-general-exception-handler.o)
                0x9d099518                _general_exception_handler

.text._cache_err_exception_handler
                0x9d099560       0x48
 .text._cache_err_exception_handler
                0x9d099560       0x48 /home/programs/XC32/v2.30/bin/bin/../../lib/gcc/pic32mx/4.8.3/../../../../pic32mx/lib/fpu64/libpic32.a(default-cache-err-exception-handler.o)
                0x9d099560                _cache_err_exception_handler

.text._simple_tlb_refill_exception_handler
                0x9d0995a8       0x48
 .text._simple_tlb_refill_exception_handler
                0x9d0995a8       0x48 /home/programs/XC32/v2.30/bin/bin/../../lib/gcc/pic32mx/4.8.3/../../../../pic32mx/lib/fpu64/libpic32.a(default-simple-tlb-refill-exception-handler.o)
                0x9d0995a8                _simple_tlb_refill_exception_handler

.text           0x9d0995f0       0x44
 .text          0x9d0995f0       0x44 /home/programs/XC32/v2.30/bin/bin/../../lib/gcc/pic32mx/4.8.3/../../../../pic32mx/lib/fpu64/pic32_software_reset.o
                0x9d0995f0                __pic32_software_reset

.rodata         0x9d099634       0x80
 .rodata        0x9d099634       0x40 build/default/production/_ext/120726866/gcm.o
 .rodata        0x9d099674       0x40 build/default/production/_ext/1079766828/ethernet_misc.o
                0x9d099674                ethPadding

.rodata         0x9d0996b4       0x74
 .rodata        0x9d0996b4       0x40 build/default/production/_ext/1700104339/nm_bus_wrapper_pic32mz.o
 .rodata        0x9d0996f4       0x34 build/default/production/_ext/476983781/tls_record.o

.rodata         0x9d099728       0x64
 .rodata        0x9d099728       0x34 build/default/production/_ext/1079466919/mqtt_client_misc.o
 .rodata        0x9d09975c       0x30 build/default/production/_ext/476983781/tls_client_extensions.o
                0x9d09975c                tlsSupportedGroups

.rodata         0x9d09978c       0x30
 .rodata        0x9d09978c       0x30 build/default/production/_ext/476983781/tls_transcript_hash.o

.text.free      0x9d0997bc       0x30
 .text.free     0x9d0997bc       0x30 /home/programs/XC32/v2.30/bin/bin/../../lib/gcc/pic32mx/4.8.3/../../../../pic32mx/lib/fpu64/libc.a(malloc.o)
                0x9d0997bc                free

.text.strchr    0x9d0997ec       0x2c
 .text.strchr   0x9d0997ec       0x2c /home/programs/XC32/v2.30/bin/bin/../../lib/gcc/pic32mx/4.8.3/../../../../pic32mx/lib/fpu64/libc.a(strchr.o)
                0x9d0997ec                strchr

.text._fprintf_cdnopsuxX
                0x9d099818       0x2c
 .text._fprintf_cdnopsuxX
                0x9d099818       0x2c /home/programs/XC32/v2.30/bin/bin/../../lib/gcc/pic32mx/4.8.3/../../../../pic32mx/lib/fpu64/libc.a(fprintf_cdnopsuxX.eo)
                0x9d099818                _fprintf_0
                0x9d099818                _fprintf_cdnopsuxX
                0x9d099818                _fprintf_cdnopuxX
                0x9d099818                _fprintf_s

.text._stub_sbd_memlayout
                0x9d099844       0x2c
 .text._stub_sbd_memlayout
                0x9d099844       0x2c /home/programs/XC32/v2.30/bin/bin/../../lib/gcc/pic32mx/4.8.3/../../../../pic32mx/lib/fpu64/libpic32.a(sbrk.o)
                0x9d099844                _stub_sbd_memlayout
                0x9d099844                _sbd_memlayout

.rodata         0x9d099870       0x4c
 .rodata        0x9d099870       0x28 build/default/production/_ext/1079766828/ip.o
                0x9d099870                IP_ADDR_UNSPECIFIED
                0x9d099884                IP_ADDR_ANY
 .rodata        0x9d099898       0x24 build/default/production/_ext/273216868/yarrow.o
                0x9d0998a0                yarrowPrngAlgo

.rodata         0x9d0998bc       0x24
 .rodata        0x9d0998bc       0x24 build/default/production/_ext/1079612995/http_server_auth.o

.text.tolower   0x9d0998e0       0x24
 .text.tolower  0x9d0998e0       0x24 /home/programs/XC32/v2.30/bin/bin/../../lib/gcc/pic32mx/4.8.3/../../../../pic32mx/lib/fpu64/libc.a(ctypef.o)
                0x9d0998e0                tolower

.text.toupper   0x9d099904       0x24
 .text.toupper  0x9d099904       0x24 /home/programs/XC32/v2.30/bin/bin/../../lib/gcc/pic32mx/4.8.3/../../../../pic32mx/lib/fpu64/libc.a(ctypef.o)
                0x9d099904                toupper

.rodata         0x9d099928       0x3c
 .rodata        0x9d099928       0x20 build/default/production/_ext/273204030/curve25519.o
 .rodata        0x9d099948       0x1c build/default/production/_ext/476983781/tls_client_fsm.o

.rodata         0x9d099964       0x34
 .rodata        0x9d099964       0x1c build/default/production/_ext/1079766828/net_mem.o
 .rodata        0x9d099980       0x18 build/default/production/_ext/476983781/tls_certificate.o

.text           0x9d099998       0x18
 .text          0x9d099998       0x18 /home/programs/XC32/v2.30/bin/bin/../../lib/gcc/pic32mx/4.8.3/../../../../pic32mx/lib/fpu64/libpic32.a(default-nmi-handler.o)
                0x9d099998                _nmi_handler

.rodata         0x9d0999b0       0x20
 .rodata        0x9d0999b0       0x10 build/default/production/_ext/895184604/llmnr_common.o
                0x9d0999b0                LLMNR_IPV6_MULTICAST_ADDR
 .rodata        0x9d0999c0       0x10 build/default/production/_ext/457051042/nm_bsp_pic32mz.o

.rodata         0x9d0999d0       0x18
 .rodata        0x9d0999d0        0xc build/default/production/_ext/273212127/mpi.o
 .rodata        0x9d0999dc        0xc build/default/production/_ext/1404394810/oid.o

.rodata         0x9d0999e8       0x18
 .rodata        0x9d0999e8        0xc build/default/production/_ext/476983781/tls13_client.o
 .rodata        0x9d0999f4        0xc build/default/production/_ext/476983781/tls13_common.o

.rodata         0x9d099a00       0x18
 .rodata        0x9d099a00        0xc build/default/production/_ext/1079587046/ipv4.o
 .rodata        0x9d099a0c        0xc build/default/production/_ext/1360937237/debug.o

.rodata         0x9d099a18       0x10
 .rodata        0x9d099a18        0x8 build/default/production/_ext/273204030/ec.o
                0x9d099a18                EC_PUBLIC_KEY_OID
 .rodata        0x9d099a20        0x8 build/default/production/_ext/476983781/tls.o

.rodata         0x9d099a28       0x10
 .rodata        0x9d099a28        0x8 build/default/production/_ext/1079766828/socket.o
 .rodata        0x9d099a30        0x8 build/default/production/_ext/1079466919/mqtt_client_transport.o

.rodata         0x9d099a38       0x10
 .rodata        0x9d099a38        0x8 build/default/production/_ext/1360937237/sprintf.o
 .rodata        0x9d099a40        0x8 build/default/production/_ext/986256546/tasks.o

.rodata         0x9d099a48        0x8
 .rodata        0x9d099a48        0x8 build/default/production/_ext/986256546/timers.o

.text._on_reset
                0x9d099a50        0x8
 .text._on_reset
                0x9d099a50        0x8 /home/programs/XC32/v2.30/bin/bin/../../lib/gcc/pic32mx/4.8.3/../../../../pic32mx/lib/fpu64/libpic32.a(default-on-reset.o)
                0x9d099a50                _on_reset

.text._on_bootstrap
                0x9d099a58        0x8
 .text._on_bootstrap
                0x9d099a58        0x8 /home/programs/XC32/v2.30/bin/bin/../../lib/gcc/pic32mx/4.8.3/../../../../pic32mx/lib/fpu64/libpic32.a(default-on-bootstrap.o)
                0x9d099a58                _on_bootstrap

.text.lseek     0x9d099a60        0x8
 .text.lseek    0x9d099a60        0x8 /home/programs/XC32/v2.30/bin/bin/../../lib/gcc/pic32mx/4.8.3/../../../../pic32mx/lib/fpu64/libpic32.a(lseek.o)
                0x9d099a60                lseek

.rodata         0x9d099a68        0x8
 .rodata        0x9d099a68        0x4 build/default/production/_ext/360186330/path.o
 .rodata        0x9d099a6c        0x4 build/default/production/_ext/476983781/tls_signature.o

.rodata         0x9d099a70        0x4
 .rodata        0x9d099a70        0x4 build/default/production/_ext/23001898/port.o
                0x9d099a70                xISRStackTop
